(lp0
(S'chladata'
p1
I32
tp2
a(S'bottleqc'
p3
I32
tp4
a(S'prododata'
p5
I32
tp6
a(S'rptdata'
p7
I32
tp8
a(S'bottledata'
p9
I31
tp10
a(S'castdata'
p11
I31
tp12
a(S'featuretype'
p13
I31
tp14
a(S'operator'
p15
I31
tp16
a(S'Prodo_Cast'
p17
I31
tp18
a(S'CalCOFI_stationid'
p19
I31
tp20
a(S'weatherData'
p21
I31
tp22
a(S'assumption'
p23
I31
tp24
a(S'object'
p25
I31
tp26
a(S'quantity'
p27
I31
tp28
a(S'noaadatalevels'
p29
I31
tp30
a(S'nutrient'
p31
I31
tp32
a(S'areatype'
p33
I30
tp34
a(S'datalevel.1'
p35
I30
tp36
a(S'ooidatalevel'
p37
I30
tp38
a(S'WoRMS'
p39
I30
tp40
a(S'ionrole'
p41
I29
tp42
a(S'qu.rdf'
p43
I29
tp44
a(S'species'
p45
I28
tp46
a(S'udunits2-base'
p47
I28
tp48
a(S'udunits2-accepted'
p49
I28
tp50
a(S'udunits2-common'
p51
I28
tp52
a(S'udunits2-prefixes'
p53
I28
tp54
a(S'udunits2-derived'
p55
I28
tp56
a(S'juvenilerockfish'
p57
I27
tp58
a(S'instituteCodes'
p59
I27
tp60
a(S'pctd'
p61
I27
tp62
a(S'datatype'
p63
I27
tp64
a(S'bctd'
p65
I27
tp66
a(S'qvalue'
p67
I27
tp68
a(S'qualityFlag.4'
p69
I27
tp70
a(S'instruments.1'
p71
I27
tp72
a(S'ANZRC_Codes'
p73
I26
tp74
a(S'dimensional.rdf'
p75
I26
tp76
a(S'active_acoustic_metadata'
p77
I26
tp78
a(S'dimensi.rdf'
p79
I26
tp80
a(S'informationResource'
p81
I26
tp82
a(S'sensor.1'
p83
I26
tp84
a(S'passive_acoustic_metadata'
p85
I25
tp86
a(S'relationshiptype'
p87
I25
tp88
a(S'resourcetype'
p89
I24
tp90
a(S'MethodType'
p91
I24
tp92
a(S'SamplingFeatureGeotype'
p93
I24
tp94
a(S'SamplingFeatureType'
p95
I24
tp96
a(S'ActionType'
p97
I24
tp98
a(S'dimen.rdf'
p99
I24
tp100
a(S'device'
p101
I24
tp102
a(S'flag.2'
p103
I24
tp104
a(S'SiteType'
p105
I24
tp106
a(S'animal_acoustic_telemetry'
p107
I24
tp108
a(S'quan.rdf'
p109
I24
tp110
a(S'instruments_v3'
p111
I24
tp112
a(S'quanti.rdf'
p113
I24
tp114
a(S'ooiionroles'
p115
I24
tp116
a(S'swe_element_type'
p117
I24
tp118
a(S'OrganizationType'
p119
I24
tp120
a(S'datum'
p121
I23
tp122
a(S'phytopia_mapping'
p123
I23
tp124
a(S'platform_map'
p125
I23
tp126
a(S'platform'
p127
I23
tp128
a(S'waterLevel'
p129
I23
tp130
a(S'ecological_mapping'
p131
I23
tp132
a(S'parameter.8'
p133
I23
tp134
a(S'phytopia_species_mapping'
p135
I23
tp136
a(S'harmonicConstituents'
p137
I23
tp138
a(S'samplingfeaturetype'
p139
I23
tp140
a(S'pav.owl'
p141
I23
tp142
a(S'CO-OPSqcFlags'
p143
I23
tp144
a(S'properties'
p145
I23
tp146
a(S'sensor.2'
p147
I22
tp148
a(S'taxonomy'
p149
I22
tp150
a(S'environmental_interactions'
p151
I22
tp152
a(S'pigments'
p153
I22
tp154
a(S'observations'
p155
I22
tp156
a(S'parameter.5'
p157
I22
tp158
a(S'parameter.1'
p159
I22
tp160
a(S'gts'
p161
I22
tp162
a(S'observableProperty'
p163
I22
tp164
a(S'whoiCruiseID'
p165
I22
tp166
a(S'physical'
p167
I22
tp168
a(S'observation_mapping'
p169
I22
tp170
a(S'ecology'
p171
I22
tp172
a(S'noaa-tide-current'
p173
I22
tp174
a(S'mappingcategory'
p175
I22
tp176
a(S'SFM'
p177
I21
tp178
a(S'rdi'
p179
I21
tp180
a(S'param2cat'
p181
I21
tp182
a(S'unit'
p183
I21
tp184
a(S'platform_map_ioos_mmi'
p185
I21
tp186
a(S'core_variable'
p187
I21
tp188
a(S'parameter'
p189
I21
tp190
a(S'tool'
p191
I21
tp192
a(S'enivronmental_mapping'
p193
I21
tp194
a(S'parameter.2'
p195
I21
tp196
a(S'pigment_mapping'
p197
I21
tp198
a(S'platformCodes'
p199
I21
tp200
a(S'vine'
p201
I21
tp202
a(S'MVCOtoCFswell'
p203
I21
tp204
a(S'general'
p205
I21
tp206
a(S'qcflag'
p207
I21
tp208
a(S'INSAT3DM'
p209
I21
tp210
a(S'ext.owl'
p211
I21
tp212
a(S'marine_biogeography'
p213
I21
tp214
a(S'ODMTT'
p215
I21
tp216
a(S'platform.2'
p217
I21
tp218
a(S'datalevel'
p219
I21
tp220
a(S'tagging_exchange_standards_v1'
p221
I20
tp222
a(S'uberon.owl'
p223
I20
tp224
a(S'INSAT3DDPV'
p225
I20
tp226
a(S'devterm'
p227
I20
tp228
a(S'category'
p229
I20
tp230
a(S'instrument'
p231
I20
tp232
a(S'authority'
p233
I20
tp234
a(S'parent_mapping'
p235
I20
tp236
a(S'noaa-waves'
p237
I20
tp238
a(S'science_mapping'
p239
I20
tp240
a(S'science'
p241
I19
tp242
a(S'platforms'
p243
I19
tp244
a(S'societal_areas'
p245
I19
tp246
a(S'term'
p247
I19
tp248
a(S'parameter_provisional'
p249
I19
tp250
a(S'parameter.7'
p251
I19
tp252
a(S'OOI_Platform'
p253
I19
tp254
a(S'instrument.1'
p255
I19
tp256
a(S'eqtorientation'
p257
I19
tp258
a(S'sites'
p259
I19
tp260
a(S'parent'
p261
I19
tp262
a(S'resourceType'
p263
I19
tp264
a(S'multibeam'
p265
I19
tp266
a(S'endpointStatus.rdf'
p267
I19
tp268
a(S'qualityFlag.6'
p269
I19
tp270
a(S'platform_mapping'
p271
I19
tp272
a(S'fnmoc'
p273
I19
tp274
a(S'category.1'
p275
I19
tp276
a(S'map_category'
p277
I18
tp278
a(S'map_core_variable'
p279
I18
tp280
a(S'octr'
p281
I18
tp282
a(S'data_products'
p283
I18
tp284
a(S'def'
p285
I18
tp286
a(S'ComputerNetworks'
p287
I18
tp288
a(S'atmospheric'
p289
I18
tp290
a(S'waveQChard'
p291
I18
tp292
a(S'instrument_mapping'
p293
I18
tp294
a(S'qualityFlag.5'
p295
I18
tp296
a(S'instruments'
p297
I18
tp298
a(S'CN2.owl'
p299
I18
tp300
a(S'map_societal_areas'
p301
I18
tp302
a(S'device_map'
p303
I17
tp304
a(S'map_ioos_cf'
p305
I17
tp306
a(S'glossary'
p307
I17
tp308
a(S'MapSeaVoxPlatforms2IOOSandRDIPlatforms'
p309
I17
tp310
a(S'platforms.1'
p311
I17
tp312
a(S'MXP'
p313
I17
tp314
a(S'ctdfield'
p315
I17
tp316
a(S'process'
p317
I17
tp318
a(S'software'
p319
I17
tp320
a(S'NVSDevicesToTRDIOntology'
p321
I17
tp322
a(S'COMPSPC'
p323
I17
tp324
a(S'usjgofs_hydro'
p325
I17
tp326
a(S'device.1'
p327
I17
tp328
a(S'sector'
p329
I17
tp330
a(S'testQ2ODemo'
p331
I17
tp332
a(S'biological'
p333
I17
tp334
a(S'qcFlag'
p335
I17
tp336
a(S'HuPSON_v092013_merged.owl'
p337
I17
tp338
a(S'cchhg_product_type'
p339
I17
tp340
a(S'ioos_core_cf_map'
p341
I17
tp342
a(S'mvco'
p343
I17
tp344
a(S'cmecs'
p345
I17
tp346
a(S'agrelon.rdf'
p347
I17
tp348
a(S'INSAT3DM.1'
p349
I17
tp350
a(S'models'
p351
I17
tp352
a(S'qudt.owl'
p353
I16
tp354
a(S'sensor'
p355
I16
tp356
a(S'pigments2'
p357
I16
tp358
a(S'water_property'
p359
I16
tp360
a(S'indexterm'
p361
I16
tp362
a(S'wave'
p363
I16
tp364
a(S'cfonmap'
p365
I16
tp366
a(S'qualityFlag_soft'
p367
I16
tp368
a(S'water_quality'
p369
I16
tp370
a(S'current.3'
p371
I16
tp372
a(S'properties.1'
p373
I16
tp374
a(S'SFH'
p375
I16
tp376
a(S'elseweb-lifemapper.owl'
p377
I16
tp378
a(S'weather_climate'
p379
I16
tp380
a(S'definition'
p381
I16
tp382
a(S'mvco_processing'
p383
I16
tp384
a(S'historyEventType'
p385
I16
tp386
a(S'architectureConcept'
p387
I16
tp388
a(S'elseweb-edac1.owl'
p389
I16
tp390
a(S'GeneDiseaseAssociation.owl'
p391
I16
tp392
a(S'organization'
p393
I16
tp394
a(S'elseweb-lifemapper-parameters.owl'
p395
I16
tp396
a(S'dm'
p397
I16
tp398
a(S'INSAT3DDPV.1'
p399
I16
tp400
a(S'optical'
p401
I16
tp402
a(S'historyEventList'
p403
I16
tp404
a(S'habitatclassification'
p405
I16
tp406
a(S'MIOOSSEC'
p407
I16
tp408
a(S'ceiConcept'
p409
I16
tp410
a(S'coordinate'
p411
I16
tp412
a(S'elseweb-mappings.owl'
p413
I16
tp414
a(S'OA'
p415
I16
tp416
a(S'MCFS'
p417
I16
tp418
a(S'qualityFlag.2'
p419
I16
tp420
a(S'pathogen'
p421
I16
tp422
a(S'map_ioos_ioos'
p423
I16
tp424
a(S'_map'
p425
I16
tp426
a(S'platform.1'
p427
I16
tp428
a(S'qualityFlag_hard'
p429
I16
tp430
a(S'ti'
p431
I15
tp432
a(S'map-oca'
p433
I15
tp434
a(S'flag'
p435
I15
tp436
a(S'identifier_parameter_program'
p437
I15
tp438
a(S'orges.owl'
p439
I15
tp440
a(S'thesaurus.1'
p441
I15
tp442
a(S'parameter.3'
p443
I15
tp444
a(S'parameter.4'
p445
I15
tp446
a(S'thesaurus.2'
p447
I15
tp448
a(S'elseweb-modelling.owl'
p449
I15
tp450
a(S'vo.owl'
p451
I15
tp452
a(S'flag.1'
p453
I15
tp454
a(S'swo.owl'
p455
I15
tp456
a(S'reference'
p457
I15
tp458
a(S'cdm'
p459
I15
tp460
a(S'ms2o_core.owl'
p461
I15
tp462
a(S'coa'
p463
I15
tp464
a(S'elseweb-data.owl'
p465
I15
tp466
a(S'op1'
p467
I15
tp468
a(S'qualityFlag_aq'
p469
I15
tp470
a(S'thesaurus'
p471
I15
tp472
a(S'lexinfo.owl'
p473
I15
tp474
a(S'txn.owl'
p475
I14
tp476
a(S'ontoneo.owl'
p477
I14
tp478
a(S'qcCategory'
p479
I14
tp480
a(S'studyFootprinting'
p481
I14
tp482
a(S'nihss.owl'
p483
I14
tp484
a(S'qcTests'
p485
I14
tp486
a(S'general.1'
p487
I14
tp488
a(S'ooiReferenceConcept'
p489
I14
tp490
a(S'devontssn'
p491
I14
tp492
a(S'Test'
p493
I14
tp494
a(S'corelf.rdf'
p495
I14
tp496
a(S'dogont1.owl'
p497
I14
tp498
a(S'demlab1.owl'
p499
I14
tp500
a(S'ocaican'
p501
I14
tp502
a(S'icancoa'
p503
I14
tp504
a(S'rsctx.rdf'
p505
I14
tp506
a(S'scovolink.rdf'
p507
I14
tp508
a(S'qualityFlag.1'
p509
I14
tp510
a(S'cyberinfrastructureConcept'
p511
I14
tp512
a(S'om'
p513
I14
tp514
a(S'systemtype'
p515
I14
tp516
a(S'mmiorr'
p517
I14
tp518
a(S'dco.owl'
p519
I14
tp520
a(S'test'
p521
I14
tp522
a(S'ONSTR.owl'
p523
I13
tp524
a(S'cogs.rdf'
p525
I13
tp526
a(S'fingal.rdf'
p527
I13
tp528
a(S'tao.rdf'
p529
I13
tp530
a(S'cpo.rdf'
p531
I13
tp532
a(S'chartr.rdf'
p533
I13
tp534
a(S'rdforms.rdf'
p535
I13
tp536
a(S'xfn.rdf'
p537
I13
tp538
a(S'co.rdf'
p539
I13
tp540
a(S'capo.rdf'
p541
I13
tp542
a(S'csp.rdf'
p543
I13
tp544
a(S'br.rdf'
p545
I13
tp546
a(S'scovo.rdf'
p547
I13
tp548
a(S'sdg.rdf'
p549
I13
tp550
a(S'acronym.rdf'
p551
I13
tp552
a(S'OBI.owl.3'
p553
I13
tp554
a(S'OBI.owl.1'
p555
I13
tp556
a(S'rentprop.rdf'
p557
I13
tp558
a(S'2016-04-19-fabio-1_9_2.owl'
p559
I13
tp560
a(S'dady.rdf'
p561
I13
tp562
a(S'lmf.rdf'
p563
I13
tp564
a(S'xps.rdf'
p565
I13
tp566
a(S'security.rdf'
p567
I13
tp568
a(S'test.rdf'
p569
I13
tp570
a(S'rdb2rdftc.rdf'
p571
I13
tp572
a(S'slua.rdf'
p573
I13
tp574
a(S'scovo-plus.rdf'
p575
I13
tp576
a(S'EDAM_1.16.owl'
p577
I13
tp578
a(S'am.rdf'
p579
I13
tp580
a(S'odapp.rdf'
p581
I13
tp582
a(S'qualityFlag_tq'
p583
I13
tp584
a(S'Alzheimer Ontology v15R-xml_merged.owl'
p585
I13
tp586
a(S'entity-action.rdf'
p587
I13
tp588
a(S'sustainabilityTaxonomy.rdf'
p589
I13
tp590
a(S'ppmo.rdf'
p591
I13
tp592
a(S'pdo.rdf'
p593
I13
tp594
a(S'Tobion_Sports.owl'
p595
I13
tp596
a(S'grefine.rdf'
p597
I13
tp598
a(S'ppo.rdf'
p599
I13
tp600
a(S'printTracking.rdf'
p601
I13
tp602
a(S'cloudisus.rdf'
p603
I13
tp604
a(S'c4n.rdf'
p605
I13
tp606
a(S'lexinfo.rdf'
p607
I13
tp608
a(S'classi.rdf'
p609
I13
tp610
a(S'wsapo.rdf'
p611
I13
tp612
a(S'void.rdf'
p613
I13
tp614
a(S'search.rdf'
p615
I13
tp616
a(S'qualityFlag.3'
p617
I13
tp618
a(S'raul.rdf'
p619
I13
tp620
a(S'w3p.rdf'
p621
I13
tp622
a(S'admsapi.rdf'
p623
I13
tp624
a(S'BIRNLex-OBO-UBO.owl.2'
p625
I13
tp626
a(S'SmartHomeWeather.owl'
p627
I13
tp628
a(S'aardv.rdf'
p629
I13
tp630
a(S'rooms.rdf'
p631
I13
tp632
a(S'dcat.rdf'
p633
I13
tp634
a(S'BIRNLex-OBO-UBO.owl.1'
p635
I13
tp636
a(S'fiesta-iot.owl'
p637
I13
tp638
a(S'eol.owl'
p639
I13
tp640
a(S'sparqlpush.rdf'
p641
I12
tp642
a(S'OceanCore'
p643
I12
tp644
a(S'emissions.rdf'
p645
I12
tp646
a(S'SubstrateHydrologicCompound'
p647
I12
tp648
a(S'WaterQuality'
p649
I12
tp650
a(S'pen.rdf'
p651
I12
tp652
a(S'AquaBioCore'
p653
I12
tp654
a(S'ispra-core.0.1.rdf'
p655
I12
tp656
a(S'orca.rdf'
p657
I12
tp658
a(S'OceanCompound'
p659
I12
tp660
a(S'SurfaceHydrologicCompound'
p661
I12
tp662
a(S'events.rdf'
p663
I12
tp664
a(S'AtmosphericHydrologicSynthesis'
p665
I12
tp666
a(S'brucellosis_merged.owl'
p667
I12
tp668
a(S'commute.rdf'
p669
I12
tp670
a(S'SurfaceHydrologicCore'
p671
I12
tp672
a(S'autism-merged.owl'
p673
I12
tp674
a(S'orgs.rdf'
p675
I12
tp676
a(S'psc.rdf'
p677
I12
tp678
a(S'bang.rdf'
p679
I12
tp680
a(S'SurfHydrosyn'
p681
I12
tp682
a(S'cordis.rdf'
p683
I12
tp684
a(S'cmm.rdf'
p685
I12
tp686
a(S'yoda.rdf'
p687
I12
tp688
a(S'AtmosphericHydrologicCompound'
p689
I12
tp690
a(S'cap.rdf'
p691
I12
tp692
a(S'schemaorg.owl'
p693
I12
tp694
a(S'push.rdf'
p695
I12
tp696
a(S'keyword'
p697
I12
tp698
a(S'av.rdf'
p699
I12
tp700
a(S'parameter.6'
p701
I12
tp702
a(S'lsdi.rdf'
p703
I12
tp704
a(S'LandCore'
p705
I12
tp706
a(S'travel.rdf'
p707
I12
tp708
a(S'LandCompound'
p709
I12
tp710
a(S'papp.rdf'
p711
I12
tp712
a(S'timeindexedsituation1.owl'
p713
I12
tp714
a(S'LinkSpec.rdf'
p715
I12
tp716
a(S'obi11.owl'
p717
I12
tp718
a(S'SubstrateHydrologicCore'
p719
I12
tp720
a(S'SubstrateHydrologicSyn'
p721
I12
tp722
a(S'OceanSynthesis'
p723
I12
tp724
a(S'contextdescriptor1.owl'
p725
I12
tp726
a(S'CWMO-042.owl'
p727
I12
tp728
a(S'ex.rdf'
p729
I12
tp730
a(S'ac.rdf'
p731
I12
tp732
a(S'AtmosphericHydrologicCore'
p733
I12
tp734
a(S'diff.rdf'
p735
I12
tp736
a(S'WaterQualityCore2'
p737
I12
tp738
a(S'team.rdf'
p739
I12
tp740
a(S'sigma.rdf'
p741
I12
tp742
a(S'LandSynthesis'
p743
I12
tp744
a(S'BIRNLex-OBO-UBO.owl.3'
p745
I12
tp746
a(S'WaterQualityCompound'
p747
I12
tp748
a(S'rulz.rdf'
p749
I12
tp750
a(S'AquaBiologicalCompound'
p751
I12
tp752
a(S'iwsearch.owl.2'
p753
I11
tp754
a(S'sco.rdf'
p755
I11
tp756
a(S'Equipment'
p757
I11
tp758
a(S'oae.owl'
p759
I11
tp760
a(S'bp.rdf'
p761
I11
tp762
a(S'ns_MartinHepp.owl'
p763
I11
tp764
a(S'MarineOrganism'
p765
I11
tp766
a(S'index.html.5'
p767
I11
tp768
a(S'gem-nav.rdf'
p769
I11
tp770
a(S'cer.rdf'
p771
I11
tp772
a(S'event'
p773
I11
tp774
a(S'ssn.owl'
p775
I11
tp776
a(S'gem-layout.rdf'
p777
I11
tp778
a(S'qualityFlag'
p779
I11
tp780
a(S'C_battery.rdf'
p781
I11
tp782
a(S'rstvoc.rdf'
p783
I11
tp784
a(S'water.rdf'
p785
I11
tp786
a(S'usglobec'
p787
I11
tp788
a(S'birnlex.owl'
p789
I11
tp790
a(S'smail.rdf'
p791
I11
tp792
a(S'marinetlo1.owl'
p793
I11
tp794
a(S'NMR.owl'
p795
I11
tp796
a(S'ogsf.owl'
p797
I11
tp798
a(S'BioMedicalTopics.owl'
p799
I11
tp800
a(S'cm.rdf'
p801
I11
tp802
a(S'gem-base.rdf'
p803
I11
tp804
a(S'obi112.owl'
p805
I11
tp806
a(S'place'
p807
I11
tp808
a(S'specimen.rdf'
p809
I10
tp810
a(S'daml-time'
p811
I10
tp812
a(S'ocvdae-merged.owl'
p813
I10
tp814
a(S'2014-05-22-cito-2_6_3.owl'
p815
I10
tp816
a(S'index.html.13'
p817
I10
tp818
a(S'index.html.10'
p819
I10
tp820
a(S'SP_document_workflow_V3.0.owl'
p821
I10
tp822
a(S'index.html.7'
p823
I10
tp824
a(S'index.html.6'
p825
I10
tp826
a(S'lom_ontology_ods1.owl'
p827
I10
tp828
a(S'index.html.9'
p829
I10
tp830
a(S'tmo.owl'
p831
I10
tp832
a(S'CBO.owl'
p833
I10
tp834
a(S'NIF-Dysfunction.owl'
p835
I10
tp836
a(S'bfo-1.1-el.owl'
p837
I10
tp838
a(S'tao.owl'
p839
I10
tp840
a(S'index.html.8'
p841
I10
tp842
a(S'dublincore.owl'
p843
I10
tp844
a(S'index.html.14'
p845
I10
tp846
a(S'participation.owl'
p847
I10
tp848
a(S'problem-oriented-medical-record.owl'
p849
I10
tp850
a(S'index.html.12'
p851
I10
tp852
a(S'goodrelations_v1.owl'
p853
I10
tp854
a(S'biotop1.owl'
p855
I10
tp856
a(S'ns'
p857
I10
tp858
a(S'ido-merged.owl'
p859
I10
tp860
a(S'ogg.owl'
p861
I9
tp862
a(S'bonedysplasia.owl'
p863
I9
tp864
a(S'webService.owl'
p865
I9
tp866
a(S'obcs_merged_inferred.owl'
p867
I9
tp868
a(S'ns.1'
p869
I9
tp870
a(S'odnae_merged.owl'
p871
I9
tp872
a(S'2014-05-21-SCoRO-1_8_4_1.owl'
p873
I9
tp874
a(S'ucum-instances.owl'
p875
I9
tp876
a(S'bfo.owl'
p877
I9
tp878
a(S'NIF-Function.owl.1'
p879
I9
tp880
a(S'timeinterval1.owl'
p881
I9
tp882
a(S'PANDA.owl'
p883
I9
tp884
a(S'ogg-mm.owl'
p885
I9
tp886
a(S'RoleO.owl'
p887
I9
tp888
a(S'situation1.owl'
p889
I9
tp890
a(S'informationrealization1.owl'
p891
I9
tp892
a(S'2014-05-21-datacite-0_6_4_1.owl'
p893
I9
tp894
a(S'bibtex.owl'
p895
I9
tp896
a(S'clo_merged.owl'
p897
I9
tp898
a(S'go-plus.owl.crdownload.xml'
p899
I9
tp900
a(S'INO.owl'
p901
I9
tp902
a(S'VoID_Extension_Schema.owl'
p903
I9
tp904
a(S'NIF-Function.owl'
p905
I9
tp906
a(S'RackMultipart20131202-9185-1thvxyu.owl'
p907
I8
tp908
a(S'vsao.owl'
p909
I8
tp910
a(S'ObjectWithStates.owl'
p911
I8
tp912
a(S'WSIO_beta2.owl'
p913
I8
tp914
a(S'ohmi.owl'
p915
I8
tp916
a(S'RackMultipart20131021-23110-1vlki4d.owl'
p917
I8
tp918
a(S'ohd.owl'
p919
I8
tp920
a(S'CVRG_EPOntology.owl'
p921
I8
tp922
a(S'omit.owl'
p923
I8
tp924
a(S'sequence.owl'
p925
I8
tp926
a(S'gfvo_bioportal.xml'
p927
I8
tp928
a(S'AdaLab.owl'
p929
I8
tp930
a(S'merged-hospital-data.rdf'
p931
I8
tp932
a(S'oba.owl'
p933
I8
tp934
a(S'hino.owl'
p935
I8
tp936
a(S'nif.owl'
p937
I8
tp938
a(S'SAO.owl'
p939
I8
tp940
a(S'conference-ontology.owl'
p941
I8
tp942
a(S'RackMultipart20131021-23110-1vlki4d.xml'
p943
I8
tp944
a(S'BIRNLex_annotation_properties.owl'
p945
I8
tp946
a(S'uo.owl'
p947
I8
tp948
a(S'RackMultipart20131202-9185-1thvxyu.xml'
p949
I8
tp950
a(S'BIRNLex_annotation_properties.owl.5'
p951
I8
tp952
a(S'cdao1.owl'
p953
I8
tp954
a(S'CNO_05.owl'
p955
I8
tp956
a(S'BasicActions.owl'
p957
I7
tp958
a(S'PrimitiveTypes.owl'
p959
I7
tp960
a(S'cellular_component.owl.4'
p961
I7
tp962
a(S'cellular_component.owl.2'
p963
I7
tp964
a(S'UML2-Super-MDL-041007.owl'
p965
I7
tp966
a(S'ovae_merged.owl'
p967
I7
tp968
a(S'RDFWeb.owl'
p969
I7
tp970
a(S'bao_complete.owl'
p971
I7
tp972
a(S'odm_2006_04_03_kludge.owl'
p973
I7
tp974
a(S'sequence.owl.4'
p975
I7
tp976
a(S'sci_people1.owl'
p977
I7
tp978
a(S'asthma_v1.3.owl'
p979
I7
tp980
a(S'po.owl'
p981
I7
tp982
a(S'Kernel.owl'
p983
I7
tp984
a(S'OBO_annotation_properties.owl.5'
p985
I7
tp986
a(S'obib_merged_inferred.owl'
p987
I7
tp988
a(S'pro_reasoned.owl'
p989
I7
tp990
a(S'OMIT.owl'
p991
I7
tp992
a(S'fbsp.owl'
p993
I7
tp994
a(S'OBO_annotation_properties.owl.4'
p995
I7
tp996
a(S'OBO_annotation_properties.owl.2'
p997
I7
tp998
a(S'vario.owl'
p999
I7
tp1000
a(S'flu.owl'
p1001
I7
tp1002
a(S'fypo.owl'
p1003
I7
tp1004
a(S'iao-merged.owl'
p1005
I7
tp1006
a(S'omp.owl'
p1007
I7
tp1008
a(S'prov-o.owl'
p1009
I7
tp1010
a(S'collections.owl.1'
p1011
I7
tp1012
a(S'dpo.owl'
p1013
I7
tp1014
a(S'QVT.owl'
p1015
I7
tp1016
a(S'RDFBase.owl'
p1017
I7
tp1018
a(S'rex.owl'
p1019
I7
tp1020
a(S'oostt.owl'
p1021
I7
tp1022
a(S'spd.owl'
p1023
I7
tp1024
a(S'EssentialOCL.owl'
p1025
I7
tp1026
a(S'wbbt.owl'
p1027
I7
tp1028
a(S'typon.xml'
p1029
I7
tp1030
a(S'flopo-inferred.owl'
p1031
I7
tp1032
a(S'copyrightonto1.owl'
p1033
I7
tp1034
a(S'MFOEM.owl'
p1035
I7
tp1036
a(S'sequence.owl.1'
p1037
I7
tp1038
a(S'AtomOwl.rdf'
p1039
I7
tp1040
a(S'bao_gpcr_v1.1.owl'
p1041
I7
tp1042
a(S'ro.owl'
p1043
I7
tp1044
a(S'vCard'
p1045
I7
tp1046
a(S'eco.owl'
p1047
I7
tp1048
a(S'OntoDT.owl'
p1049
I7
tp1050
a(S'fresnel.1'
p1051
I7
tp1052
a(S'MGEDOntology.owl'
p1053
I7
tp1054
a(S'MOF.owl'
p1055
I7
tp1056
a(S'dideo.owl'
p1057
I7
tp1058
a(S'wbls.owl'
p1059
I7
tp1060
a(S'tok.owl'
p1061
I7
tp1062
a(S'EMOF.owl'
p1063
I7
tp1064
a(S'go.owl'
p1065
I7
tp1066
a(S'AdaLab-meta.owl'
p1067
I7
tp1068
a(S'ogroup-v1.0.owl'
p1069
I6
tp1070
a(S'ico_merged.owl'
p1071
I6
tp1072
a(S'PO2_Core.owl'
p1073
I6
tp1074
a(S'OntolUrgences_v3.0.4.owl'
p1075
I6
tp1076
a(S'omrse.owl'
p1077
I6
tp1078
a(S'd1-ECSO.owl'
p1079
I6
tp1080
a(S'akt-map-onto.xml.1'
p1081
I6
tp1082
a(S'monarch.owl'
p1083
I6
tp1084
a(S'hrdo.owl'
p1085
I6
tp1086
a(S'omiabis.owl'
p1087
I6
tp1088
a(S'fma.owl'
p1089
I6
tp1090
a(S'biomo.owl'
p1091
I6
tp1092
a(S'OBO_annotation_properties.owl.1'
p1093
I6
tp1094
a(S'tto.owl'
p1095
I6
tp1096
a(S'poro1.owl'
p1097
I6
tp1098
a(S'Menelas-Top-20130715.owl'
p1099
I6
tp1100
a(S'bcgo_merged_inferred.owl'
p1101
I6
tp1102
a(S'dermatology.owl'
p1103
I6
tp1104
a(S'bila.owl'
p1105
I6
tp1106
a(S'internano.owl'
p1107
I6
tp1108
a(S'ego.owl'
p1109
I6
tp1110
a(S'CPR.owl'
p1111
I6
tp1112
a(S'zfs.owl'
p1113
I6
tp1114
a(S'content'
p1115
I6
tp1116
a(S'wbphenotype.owl'
p1117
I6
tp1118
a(S'dispediaCoreComplete.xml'
p1119
I6
tp1120
a(S'wp-old.rdf'
p1121
I6
tp1122
a(S'swoogle.owl'
p1123
I6
tp1124
a(S'trans.owl'
p1125
I6
tp1126
a(S'football.owl'
p1127
I6
tp1128
a(S'bao_vocabulary_result.owl'
p1129
I6
tp1130
a(S'pw.owl'
p1131
I6
tp1132
a(S'rs.owl'
p1133
I6
tp1134
a(S'ontology.owl'
p1135
I6
tp1136
a(S'MaHCO.owl'
p1137
I6
tp1138
a(S'ontology1.owl'
p1139
I6
tp1140
a(S'http'
p1141
I6
tp1142
a(S'rat_strain.owl'
p1143
I6
tp1144
a(S'so.owl'
p1145
I6
tp1146
a(S'efo.owl'
p1147
I6
tp1148
a(S'pato.owl'
p1149
I6
tp1150
a(S'NIF-Subcellular.owl'
p1151
I6
tp1152
a(S'wob.owl.1'
p1153
I6
tp1154
a(S'opl.owl'
p1155
I6
tp1156
a(S'xco.owl'
p1157
I6
tp1158
a(S'experimental_condition.owl'
p1159
I6
tp1160
a(S'orderedlistontology.owl'
p1161
I6
tp1162
a(S'measurement_method.owl'
p1163
I6
tp1164
a(S'spatial.owl'
p1165
I6
tp1166
a(S'OntoPneumo_20110511.owl'
p1167
I6
tp1168
a(S'zeco.owl'
p1169
I5
tp1170
a(S'regenbase_vocabulary.owl'
p1171
I5
tp1172
a(S'ODGI.owl'
p1173
I5
tp1174
a(S'npo-2011-12-08_inferred.owl'
p1175
I5
tp1176
a(S'gsontology.owl'
p1177
I5
tp1178
a(S'snpontology_full.owl'
p1179
I5
tp1180
a(S'ddi.owl'
p1181
I5
tp1182
a(S'core.1'
p1183
I5
tp1184
a(S'cmpo.owl'
p1185
I5
tp1186
a(S'mixsterms_owl.rdf'
p1187
I5
tp1188
a(S'ski.owl'
p1189
I5
tp1190
a(S'pml-provenance.owl'
p1191
I5
tp1192
a(S'ogms1.owl'
p1193
I5
tp1194
a(S'rsa.owl'
p1195
I5
tp1196
a(S'CSSO_ver0.6.owl'
p1197
I5
tp1198
a(S'ContributingFactors-Hazards.owl'
p1199
I5
tp1200
a(S'dicty_anatomy.owl'
p1201
I5
tp1202
a(S'plant-environment-ontology.obo.owl'
p1203
I5
tp1204
a(S'IncidentCharacteristic.owl'
p1205
I5
tp1206
a(S'controlflow.owl'
p1207
I5
tp1208
a(S'Finance.owl'
p1209
I5
tp1210
a(S'd2rq.rdf'
p1211
I5
tp1212
a(S'plant-environment-ontology.owl'
p1213
I5
tp1214
a(S'RackMultipart20131205-31518-15igbu5.owl'
p1215
I5
tp1216
a(S'ngsonto2016_innuendo.owl'
p1217
I5
tp1218
a(S'sopharm2.2.owl'
p1219
I5
tp1220
a(S'ro_bfo_bridge.owl.1'
p1221
I5
tp1222
a(S'lexicon_core.rdf.owl'
p1223
I5
tp1224
a(S'PDO_ver0.7.owl'
p1225
I5
tp1226
a(S'vico_merged.owl'
p1227
I5
tp1228
a(S'OBO_annotation_properties.owl'
p1229
I5
tp1230
a(S'hom.owl'
p1231
I5
tp1232
a(S'GRO_v0.5.owl'
p1233
I5
tp1234
a(S'MF.owl'
p1235
I5
tp1236
a(S'to1.owl'
p1237
I5
tp1238
a(S'vessels_GT_GRT_ISSCFV_v1_2.owl'
p1239
I5
tp1240
a(S'PatientSafetyIncident.owl'
p1241
I5
tp1242
a(S'Person.owl'
p1243
I5
tp1244
a(S'enanomapper1.owl'
p1245
I5
tp1246
a(S'symp1.owl'
p1247
I5
tp1248
a(S'epo.owl'
p1249
I4
tp1250
a(S'CellCultureOntology.owl'
p1251
I4
tp1252
a(S'HospitalEquipment.owl'
p1253
I4
tp1254
a(S'OMIM.rdf'
p1255
I4
tp1256
a(S'HCPCS.rdf'
p1257
I4
tp1258
a(S'RXNORM.rdf'
p1259
I4
tp1260
a(S'dron-full.owl'
p1261
I4
tp1262
a(S'WeatherOntology.owl'
p1263
I4
tp1264
a(S'ActionsToReduceRisk.owl'
p1265
I4
tp1266
a(S'eclass_514en.owl'
p1267
I4
tp1268
a(S'animals.owl'
p1269
I4
tp1270
a(S'ISO-15926-2_2003_entityMembership.xml'
p1271
I4
tp1272
a(S'bibo.owl'
p1273
I4
tp1274
a(S'psimi_instance_edit.owl.1'
p1275
I4
tp1276
a(S'irw.owl'
p1277
I4
tp1278
a(S'taxrank1.owl'
p1279
I4
tp1280
a(S'msv.owl'
p1281
I4
tp1282
a(S'pdumdv.owl'
p1283
I4
tp1284
a(S'chmo.owl'
p1285
I4
tp1286
a(S'onto.rdf.10'
p1287
I4
tp1288
a(S'onto.rdf.12'
p1289
I4
tp1290
a(S'PatientOutcomes.owl'
p1291
I4
tp1292
a(S'vso.owl'
p1293
I4
tp1294
a(S'opmo-20101012.owl'
p1295
I4
tp1296
a(S'AI-RHEUM.rdf'
p1297
I4
tp1298
a(S'olatdv.owl'
p1299
I4
tp1300
a(S'meo_v07.owl'
p1301
I4
tp1302
a(S'trak.owl'
p1303
I4
tp1304
a(S'NIF-Cell.owl'
p1305
I4
tp1306
a(S'NPIs ontology v4.owl'
p1307
I4
tp1308
a(S'Process.owl'
p1309
I4
tp1310
a(S'ontopic.owl'
p1311
I4
tp1312
a(S'ubyCat1.owl'
p1313
I4
tp1314
a(S'oboe-sbc.owl'
p1315
I4
tp1316
a(S'ancestro_inferred.owl'
p1317
I4
tp1318
a(S'BuildingStructure.owl'
p1319
I4
tp1320
a(S'MEDLINEPLUS.rdf'
p1321
I4
tp1322
a(S'sse-p.owl'
p1323
I4
tp1324
a(S'COSTART.rdf'
p1325
I4
tp1326
a(S'ClinicalTrialOntology.owl'
p1327
I4
tp1328
a(S'food.owl'
p1329
I4
tp1330
a(S'PatientCharacteristics.owl'
p1331
I4
tp1332
a(S'airtravelbookingontology.owl'
p1333
I4
tp1334
a(S'Furniture.owl'
p1335
I4
tp1336
a(S'Place.owl'
p1337
I4
tp1338
a(S'LMM_L11.owl'
p1339
I4
tp1340
a(S'MSTDE-FRE.rdf'
p1341
I4
tp1342
a(S'idoden_beta0.15b.owl'
p1343
I4
tp1344
a(S'data-gov-twc.rdf.1'
p1345
I4
tp1346
a(S'document13.owl'
p1347
I4
tp1348
a(S'Anatomy.owl'
p1349
I4
tp1350
a(S'ICD10CM.rdf'
p1351
I4
tp1352
a(S'onto.rdf.8'
p1353
I4
tp1354
a(S'onto.rdf.2'
p1355
I4
tp1356
a(S'onto.rdf.3'
p1357
I4
tp1358
a(S'SNMI.rdf'
p1359
I4
tp1360
a(S'pdro.owl'
p1361
I4
tp1362
a(S'ICD10PCS.rdf'
p1363
I4
tp1364
a(S'CRISP.rdf'
p1365
I4
tp1366
a(S'Outcomes.owl'
p1367
I4
tp1368
a(S'Clothing.owl'
p1369
I4
tp1370
a(S'cl.owl'
p1371
I4
tp1372
a(S'psimi_instance_edit.owl'
p1373
I4
tp1374
a(S'ISO-15926-2_2003_entityMembershipCandidates.xml'
p1375
I4
tp1376
a(S'duo.owl'
p1377
I4
tp1378
a(S'gene_ontology_ext.owl'
p1379
I4
tp1380
a(S'pgxo.owl'
p1381
I4
tp1382
a(S'19115_CI.xml'
p1383
I4
tp1384
a(S'HL7.rdf'
p1385
I4
tp1386
a(S'IOLite.owl'
p1387
I4
tp1388
a(S'chem2bio2rdf.owl'
p1389
I4
tp1390
a(S'Medication.owl'
p1391
I4
tp1392
a(S'LMM_L2.owl'
p1393
I4
tp1394
a(S'ICD9CM.rdf'
p1395
I4
tp1396
a(S'onto.rdf.7'
p1397
I4
tp1398
a(S'ATC.rdf'
p1399
I4
tp1400
a(S'ICPC.rdf'
p1401
I4
tp1402
a(S'Countries.owl'
p1403
I4
tp1404
a(S'VANDF.rdf'
p1405
I4
tp1406
a(S'Activity.owl'
p1407
I4
tp1408
a(S'oboe-core.owl'
p1409
I4
tp1410
a(S'gni.owl'
p1411
I4
tp1412
a(S'PDQ.rdf'
p1413
I4
tp1414
a(S'oboe.owl'
p1415
I4
tp1416
a(S'expressionMechanism.owl'
p1417
I4
tp1418
a(S'OGI.owl'
p1419
I4
tp1420
a(S'TEO.owl'
p1421
I3
tp1422
a(S'ontologie_toxnuc_20140817.owl'
p1423
I3
tp1424
a(S'genont.owl.rdf'
p1425
I3
tp1426
a(S'dblp.owl.2'
p1427
I3
tp1428
a(S'basicplan.owl'
p1429
I3
tp1430
a(S'ontoneurolog-mr-dataset-acquisition.owl'
p1431
I3
tp1432
a(S'BFOGFOMerged.owl'
p1433
I3
tp1434
a(S'association.owl'
p1435
I3
tp1436
a(S'Atom.owl'
p1437
I3
tp1438
a(S'ec-odp.owl'
p1439
I3
tp1440
a(S'news.owl'
p1441
I3
tp1442
a(S'person.owl'
p1443
I3
tp1444
a(S'BFOROGFOMerged.owl'
p1445
I3
tp1446
a(S'eol_v4__collaboration.owl'
p1447
I3
tp1448
a(S'DOLCE-LiteBFOMerged.owl'
p1449
I3
tp1450
a(S'RA_metadata.owl'
p1451
I3
tp1452
a(S'ISO-15926-2_2003.xml'
p1453
I3
tp1454
a(S'sbo.owl'
p1455
I3
tp1456
a(S'DetectionMechanisms.owl'
p1457
I3
tp1458
a(S'ontoneurolog-mental-state-assessment.owl'
p1459
I3
tp1460
a(S'iridl.owl'
p1461
I3
tp1462
a(S'DUL11.owl'
p1463
I3
tp1464
a(S'SpatialRelationsGFOMerged.owl'
p1465
I3
tp1466
a(S'ordo_orphanet.owl'
p1467
I3
tp1468
a(S'owl_1_1.owl.10'
p1469
I3
tp1470
a(S'univ-bench.owl'
p1471
I3
tp1472
a(S'topology.owl'
p1473
I3
tp1474
a(S'TemporalRelationsBFOMerged.owl'
p1475
I3
tp1476
a(S'sp'
p1477
I3
tp1478
a(S'adolena_OBDA.owl'
p1479
I3
tp1480
a(S'behavior.owl'
p1481
I3
tp1482
a(S'bim_beta.owl'
p1483
I3
tp1484
a(S'ogc-gml.txt'
p1485
I3
tp1486
a(S'geopolitical.owl'
p1487
I3
tp1488
a(S'envo.owl'
p1489
I3
tp1490
a(S'ochv.owl'
p1491
I3
tp1492
a(S'gfo-basic.owl'
p1493
I3
tp1494
a(S'cio.owl'
p1495
I3
tp1496
a(S'Detection.owl'
p1497
I3
tp1498
a(S'DIKB_evidence_ontology_v1.7.owl'
p1499
I3
tp1500
a(S'Skin Physiology Ontology 2.0.owl'
p1501
I3
tp1502
a(S'Book.owl'
p1503
I3
tp1504
a(S'ucdo.owl'
p1505
I3
tp1506
a(S'1.1'
p1507
I3
tp1508
a(S'BFOGFO-basicMerged.owl'
p1509
I3
tp1510
a(S'project.owl'
p1511
I3
tp1512
a(S'ProfileHierarchy.owl'
p1513
I3
tp1514
a(S'DUL_3.22_NOTConsidered.owl'
p1515
I3
tp1516
a(S'BFOROTemporalRelationsMerged.owl'
p1517
I3
tp1518
a(S'ontovip.owl'
p1519
I3
tp1520
a(S'InferredAnatomyv3.owl'
p1521
I3
tp1522
a(S'contact.owl'
p1523
I3
tp1524
a(S'photo.owl'
p1525
I3
tp1526
a(S'foaf-dl.owl'
p1527
I3
tp1528
a(S'BFOROFunctionalParticipationMerged.owl'
p1529
I3
tp1530
a(S'assertion.owl'
p1531
I3
tp1532
a(S'sxml'
p1533
I3
tp1534
a(S'faldo.rdf'
p1535
I3
tp1536
a(S'rddl.owl'
p1537
I3
tp1538
a(S'upheno.owl'
p1539
I3
tp1540
a(S'mod-ontology-09092016.owl'
p1541
I3
tp1542
a(S'MitigatingFactors.owl'
p1543
I3
tp1544
a(S'ONLIRA_v106.owl'
p1545
I3
tp1546
a(S'aero.owl'
p1547
I3
tp1548
a(S'OrganizationalOutcomes.owl'
p1549
I3
tp1550
a(S'ecrm_160714.owl'
p1551
I3
tp1552
a(S'conference.owl'
p1553
I3
tp1554
a(S'gfo-bio.owl'
p1555
I3
tp1556
a(S'NotificationEntity.owl'
p1557
I3
tp1558
a(S'publication.owl'
p1559
I3
tp1560
a(S'rxno.owl'
p1561
I3
tp1562
a(S'ontoneurolog-dataset-processing.owl'
p1563
I3
tp1564
a(S'Muni.owl'
p1565
I3
tp1566
a(S'ISO-15926-2_2003_annotations.xml'
p1567
I3
tp1568
a(S'UnitsOntology-SDO.owl'
p1569
I3
tp1570
a(S'CTCAE_4.03_2010-06-14.owl'
p1571
I3
tp1572
a(S'AmelioratingActions.owl'
p1573
I3
tp1574
a(S'OCRe.owl'
p1575
I3
tp1576
a(S'agentrole.owl'
p1577
I3
tp1578
a(S'wikibaseOnto.owl'
p1579
I3
tp1580
a(S'ReiAnalysis.owl'
p1581
I2
tp1582
a(S'Actor.owl'
p1583
I2
tp1584
a(S'obo-foundry-core.owl.1'
p1585
I2
tp1586
a(S'obo-foundry-core.owl'
p1587
I2
tp1588
a(S'mvco11.owl'
p1589
I2
tp1590
a(S'human.owl'
p1591
I2
tp1592
a(S'ReiAction.owl'
p1593
I2
tp1594
a(S'mereology.owl'
p1595
I2
tp1596
a(S'neli.rdf'
p1597
I2
tp1598
a(S'General_Merchandise_2009_TSD_Chicago_Low_Plug_Load_Baseline'
p1599
I2
tp1600
a(S'General_Merchandise_2009_TSD_Miami_Low_Plug_Load_50%_Energy_Savings'
p1601
I2
tp1602
a(S'ds1.owl'
p1603
I2
tp1604
a(S'matrRockIgneous.owl'
p1605
I2
tp1606
a(S'General_Merchandise_2009_TSD_Chicago_High_Plug_Load_Baseline'
p1607
I2
tp1608
a(S'matr1.owl'
p1609
I2
tp1610
a(S'privacy.owl'
p1611
I2
tp1612
a(S'Service.owl.3'
p1613
I2
tp1614
a(S'OBO_Tools_1.1.1'
p1615
I2
tp1616
a(S'XML_Tab.1'
p1617
I2
tp1618
a(S'BFOROSpatialRelationsMappings.owl'
p1619
I2
tp1620
a(S'Entity.owl'
p1621
I2
tp1622
a(S'vertebrate-gross-anatomy.owl.1'
p1623
I2
tp1624
a(S'DOLCE-RL.owl'
p1625
I2
tp1626
a(S'Grocery_2009_TSD_Chicago_50%_Energy_Savings'
p1627
I2
tp1628
a(S'dreggie-ont.owl'
p1629
I2
tp1630
a(S'dicom.owl'
p1631
I2
tp1632
a(S'ReiConstraint.owl'
p1633
I2
tp1634
a(S'part.owl'
p1635
I2
tp1636
a(S'roboearth.owl'
p1637
I2
tp1638
a(S'obo.owl.2'
p1639
I2
tp1640
a(S'obo-foundry-core-full-import.owl.2'
p1641
I2
tp1642
a(S'obo-foundry-core-full-import.owl.1'
p1643
I2
tp1644
a(S'iriterms.owl'
p1645
I2
tp1646
a(S'plana.owl'
p1647
I2
tp1648
a(S'DOLCE-LiteGFO-basicMappings.owl'
p1649
I2
tp1650
a(S'Support_RM.owl'
p1651
I2
tp1652
a(S'index.html.2'
p1653
I2
tp1654
a(S'BFORO.owl'
p1655
I2
tp1656
a(S'stuff.owl'
p1657
I2
tp1658
a(S'FunctionalParticipationGFO-basicMerged.owl'
p1659
I2
tp1660
a(S'dolce-very-lite.owl'
p1661
I2
tp1662
a(S'General_Merchandise_2009_TSD_Chicago_High_Plug_Load_50%_Energy_Savings'
p1663
I2
tp1664
a(S'pma.owl'
p1665
I2
tp1666
a(S'FunctionalParticipationBFOMappings.owl'
p1667
I2
tp1668
a(S'terms.rdf'
p1669
I2
tp1670
a(S'matrElement.owl'
p1671
I2
tp1672
a(S'Stanford:SettingsXmlExample'
p1673
I2
tp1674
a(S'RDL.owl.crdownload.xml'
p1675
I2
tp1676
a(S'ppo.owl'
p1677
I2
tp1678
a(S'RackMultipart20131119-17178-uc75i6.owl'
p1679
I2
tp1680
a(S'General_Merchandise_2009_TSD_Miami_Low_Plug_Load_Baseline'
p1681
I2
tp1682
a(S'bfo-continuants.owl'
p1683
I2
tp1684
a(S'datatype.owl'
p1685
I2
tp1686
a(S'DOLCE-No-Quality-Qualia.owl'
p1687
I2
tp1688
a(S'security.owl'
p1689
I2
tp1690
a(S'RackMultipart20131119-17178-uc75i6.xml'
p1691
I2
tp1692
a(S'phare.owl'
p1693
I2
tp1694
a(S'aaaaa.owl'
p1695
I2
tp1696
a(S'networkA.owl'
p1697
I2
tp1698
a(S'Pr4_UG_rv_On_OWL_XML_rend'
p1699
I2
tp1700
a(S'SDO-merged.owl'
p1701
I2
tp1702
a(S'ReiDeontic.owl'
p1703
I2
tp1704
a(S'time-entry.owl'
p1705
I2
tp1706
a(S'PxOmetazoa.owl.crdownload.xml'
p1707
I2
tp1708
a(S'sweetAll.owl'
p1709
I2
tp1710
a(S'study_protocol.owl'
p1711
I2
tp1712
a(S'genpol.owl'
p1713
I2
tp1714
a(S'TemporalRelationsGFOMerged.owl'
p1715
I2
tp1716
a(S'link-obo.owl'
p1717
I2
tp1718
a(S'gfo.owl'
p1719
I2
tp1720
a(S'vto.owl'
p1721
I2
tp1722
a(S'timezone-ont.owl'
p1723
I2
tp1724
a(S'ISO-15926-2_2003_inverseRoles.xml'
p1725
I2
tp1726
a(S'NoNRCTontology1.0.owl.xml'
p1727
I2
tp1728
a(S'experimental_design_ontology_1.0.owl'
p1729
I2
tp1730
a(S'Expression.owl'
p1731
I2
tp1732
a(S'matrOrganicCompound.owl'
p1733
I2
tp1734
a(S'Group.owl'
p1735
I2
tp1736
a(S'Action.owl'
p1737
I2
tp1738
a(S'pizza.owl'
p1739
I2
tp1740
a(S'matrNaturalResource.owl'
p1741
I2
tp1742
a(S'Grocery_2009_TSD_Miami_50%_Energy_Savings'
p1743
I2
tp1744
a(S'carads.owl'
p1745
I2
tp1746
a(S'neuDIGs.rdf'
p1747
I2
tp1748
a(S'philosurfical.owl'
p1749
I2
tp1750
a(S'PrF_UG_files_xml_support'
p1751
I2
tp1752
a(S'General_Merchandise_2009_TSD_Miami_High_Plug_Load_50%_Energy_Savings'
p1753
I2
tp1754
a(S'sibo.owl'
p1755
I2
tp1756
a(S'dliser.rdf'
p1757
I2
tp1758
a(S'amino acid - inferred.owl'
p1759
I2
tp1760
a(S'restaurant.owl'
p1761
I2
tp1762
a(S'provenance.owl'
p1763
I2
tp1764
a(S'Pr4_UG_rp_View_OBO_Tools'
p1765
I2
tp1766
a(S'PeriodicTable.owl.xml'
p1767
I2
tp1768
a(S'Grocery_2009_TSD_Chicago_Baseline'
p1769
I2
tp1770
a(S'vocab.rdf'
p1771
I2
tp1772
a(S'NoNRCTontology1.0.owl'
p1773
I2
tp1774
a(S'temporalAggregates.owl'
p1775
I2
tp1776
a(S'travel.owl'
p1777
I2
tp1778
a(S'iribib.owl'
p1779
I2
tp1780
a(S'oboInOwl.owl'
p1781
I2
tp1782
a(S'matrRock.owl'
p1783
I2
tp1784
a(S'rdfs.owl.2'
p1785
I2
tp1786
a(S'propChemical.owl'
p1787
I2
tp1788
a(S'matrCompound.owl'
p1789
I2
tp1790
a(S'pathLex.owl'
p1791
I2
tp1792
a(S'ActionStatus.owl'
p1793
I2
tp1794
a(S'General_Merchandise_2009_TSD_Miami_High_Plug_Load_Baseline'
p1795
I2
tp1796
a(S'General_Merchandise_2009_TSD_Chicago_Low_Plug_Load_50%_Energy_Savings'
p1797
I2
tp1798
a(S'ontology-metadata.owl'
p1799
I2
tp1800
a(S'agro.owl'
p1801
I2
tp1802
a(S'OBO_Tools'
p1803
I2
tp1804
a(S'InheritanceProfile.owl'
p1805
I2
tp1806
a(S'SpatialRelationsBFOMerged.owl'
p1807
I2
tp1808
a(S'BFORODOLCE-LiteMappings.owl'
p1809
I2
tp1810
a(S'rdfcache.owl.1'
p1811
I2
tp1812
a(S'travel(2).owl'
p1813
I2
tp1814
a(S'Pr4_UG_rv_On_RDF_XML_rend'
p1815
I2
tp1816
a(S'geno.owl'
p1817
I2
tp1818
a(S'DURUM_WHEAT.owl'
p1819
I2
tp1820
a(S'deliveryContext.owl.1'
p1821
I2
tp1822
a(S'TemporalRelationsBFOMappings.owl'
p1823
I2
tp1824
a(S'XML_Tab_1.0.1'
p1825
I2
tp1826
a(S'BIOREFINERY.owl'
p1827
I2
tp1828
a(S'Tm-xml-wiki.org'
p1829
I2
tp1830
a(S'BodyLanguage.xml'
p1831
I2
tp1832
a(S'XML2OWL'
p1833
I2
tp1834
a(S'ObjectList.owl'
p1835
I2
tp1836
a(S'Policy.owl'
p1837
I2
tp1838
a(S'TRANSMAT.owl'
p1839
I2
tp1840
a(S'BRO.owl'
p1841
I2
tp1842
a(S'vivo-core-public-1.5.owl'
p1843
I2
tp1844
a(S'DOLCE-LiteGFOMappings.owl'
p1845
I2
tp1846
a(S'swrl.owl'
p1847
I2
tp1848
a(S'File:Company-LISTedTECH-2014-10-20.xml'
p1849
I2
tp1850
a(S'Grocery_2009_TSD_Miami_Baseline'
p1851
I2
tp1852
a(S'matrMineral.owl'
p1853
I2
tp1854
a(S'math.owl'
p1855
I1
tp1856
a(S'a7_group78.owl.xml'
p1857
I1
tp1858
a(S'ontology_12.owl'
p1859
I1
tp1860
a(S'TFBS.owl'
p1861
I1
tp1862
a(S'DIAB_v90rb.owl'
p1863
I1
tp1864
a(S'collections.owl.16'
p1865
I1
tp1866
a(S'PoliticianStateOntology_03.owl'
p1867
I1
tp1868
a(S'OntoFood.owl'
p1869
I1
tp1870
a(S'FFO.owl'
p1871
I1
tp1872
a(S'Coalition.owl'
p1873
I1
tp1874
a(S'CogPO12142010.owl'
p1875
I1
tp1876
a(S'ContextVocabulary.owl'
p1877
I1
tp1878
a(S'DSOBar.owl'
p1879
I1
tp1880
a(S'cedexAuxilliary.owl.1'
p1881
I1
tp1882
a(S'1471-2105-9-S6-S11-S1.owl'
p1883
I1
tp1884
a(S'ReiPolicy.owl'
p1885
I1
tp1886
a(S'ParasiteExperimentOntology_111910_External.owl'
p1887
I1
tp1888
a(S'cogat.owl'
p1889
I1
tp1890
a(S'OntoKBCF1301new.owl'
p1891
I1
tp1892
a(S'ethernet.owl'
p1893
I1
tp1894
a(S'CancerChemopreventionOntology.owl'
p1895
I1
tp1896
a(S'Geography.owl'
p1897
I1
tp1898
a(S'FunctionalParticipationGFOMappings.owl'
p1899
I1
tp1900
a(S'FreeTime.owl'
p1901
I1
tp1902
a(S'phylogenetic_methods.owl'
p1903
I1
tp1904
a(S'opendaprdf.xml'
p1905
I1
tp1906
a(S'ntdo.owl'
p1907
I1
tp1908
a(S'SensorOntology20090320.owl.xml'
p1909
I1
tp1910
a(S'leo.owl'
p1911
I1
tp1912
a(S'venom_ontology.xml'
p1913
I1
tp1914
a(S'ECGOntologyv1.owl'
p1915
I1
tp1916
a(S'Normalisation-demo-hormones-01-01.owl'
p1917
I1
tp1918
a(S'ADW_ontology.owl'
p1919
I1
tp1920
a(S'Breast cell line ontology.owl'
p1921
I1
tp1922
a(S'DebianDpkgDist.owl'
p1923
I1
tp1924
a(S'chemState.owl'
p1925
I1
tp1926
a(S'Exo-CSEOv1.2_BFO_FINAL_merged_2.owl'
p1927
I1
tp1928
a(S'biopax-level3.owl'
p1929
I1
tp1930
a(S'pizzas2_7.owl'
p1931
I1
tp1932
a(S'SpatialRelationsBFOMappings.owl'
p1933
I1
tp1934
a(S'family.owl'
p1935
I1
tp1936
a(S'FamilyHealthHistory.owl'
p1937
I1
tp1938
a(S'ip4.owl'
p1939
I1
tp1940
a(S'CRMgeo_v1.0.owl'
p1941
I1
tp1942
a(S'phys.owl'
p1943
I1
tp1944
a(S'HPI.owl'
p1945
I1
tp1946
a(S'contacts'
p1947
I1
tp1948
a(S'SpatialRelationsGFO-basicMappings.owl'
p1949
I1
tp1950
a(S'PHAGE-schema_1.0.owl'
p1951
I1
tp1952
a(S'DQOntology.owl'
p1953
I1
tp1954
a(S'workflowOntology.owl'
p1955
I1
tp1956
a(S'mads-ontology-20101119.owl'
p1957
I1
tp1958
a(S'food1.owl'
p1959
I1
tp1960
a(S'functions.owl.2'
p1961
I1
tp1962
a(S'sciUnits.owl'
p1963
I1
tp1964
a(S'InformationOntology.owl'
p1965
I1
tp1966
a(S'AIDSClinic002 (1).owl'
p1967
I1
tp1968
a(S'spaceDistribution.owl'
p1969
I1
tp1970
a(S'TemporalRelationsGFO-basicMappings.owl'
p1971
I1
tp1972
a(S'statistics.owl'
p1973
I1
tp1974
a(S'CoDAMoS_context.owl'
p1975
I1
tp1976
a(S'skeleton.owl'
p1977
I1
tp1978
a(S'OntoWAWO+.owl'
p1979
I1
tp1980
a(S'ooevv_odp_0.0.4.owl'
p1981
I1
tp1982
a(S'context-logic.owl.1'
p1983
I1
tp1984
a(S'iceci.owl'
p1985
I1
tp1986
a(S'Amigo.owl'
p1987
I1
tp1988
a(S'oo.owl'
p1989
I1
tp1990
a(S'biopax-level2.owl'
p1991
I1
tp1992
a(S'out15.owl'
p1993
I1
tp1994
a(S'generic.owl'
p1995
I1
tp1996
a(S'tagging_vocabulary.owl'
p1997
I1
tp1998
a(S'OntoBiootope_BioNLP-ST-2016.owl'
p1999
I1
tp2000
a(S'cedexMeta.owl'
p2001
I1
tp2002
a(S'ProPreO-060506.owl'
p2003
I1
tp2004
a(S'testOntology.owl'
p2005
I1
tp2006
a(S'obo.owl.1'
p2007
I1
tp2008
a(S'questionnaire.owl.1'
p2009
I1
tp2010
a(S'BioPortalMetadata.owl'
p2011
I1
tp2012
a(S'SensorBasis.owl'
p2013
I1
tp2014
a(S'Delegation.owl'
p2015
I1
tp2016
a(S'NMOSp.owl'
p2017
I1
tp2018
a(S'study_design.owl'
p2019
I1
tp2020
a(S'XCTontologyvtemp2.owl'
p2021
I1
tp2022
a(S'lipid-classification-service-ontology.owl'
p2023
I1
tp2024
a(S'ContextLanguage.owl'
p2025
I1
tp2026
a(S'NPOntology01.owl'
p2027
I1
tp2028
a(S'MODS_RDF_Ontology.rdf'
p2029
I1
tp2030
a(S'questionnaire.owl'
p2031
I1
tp2032
a(S'KB_Bio_101.owl'
p2033
I1
tp2034
a(S'rosetta.owl'
p2035
I1
tp2036
a(S'RPO_081112_owl.0.owl'
p2037
I1
tp2038
a(S'ontoolcoleModel.owl'
p2039
I1
tp2040
a(S'STO.owl'
p2041
I1
tp2042
a(S'PVOnto-v0.1.owl'
p2043
I1
tp2044
a(S'iricrosswalk.owl.1'
p2045
I1
tp2046
a(S'GlycO_0_9.owl'
p2047
I1
tp2048
a(S'MyOntoServiceFull_FallDetection.owl'
p2049
I1
tp2050
a(S'citygml2.0.owl'
p2051
I1
tp2052
a(S'History.owl'
p2053
I1
tp2054
a(S'BFOROGFO-basicMappings.owl'
p2055
I1
tp2056
a(S'SitBAC1_3.owl'
p2057
I1
tp2058
a(S'space.owl'
p2059
I1
tp2060
a(S'bca00030.owl'
p2061
I1
tp2062
a(S'biolPlant.owl'
p2063
I1
tp2064
a(S'RPO_081112_owl.0'
p2065
I1
tp2066
a(S'family_example.owl'
p2067
I1
tp2068
a(S'hyper_ontology.owl.2'
p2069
I1
tp2070
a(S'biolAnimal.owl'
p2071
I1
tp2072
a(S'lifestyle.owl'
p2073
I1
tp2074
a(S'spaceDirection.owl'
p2075
I1
tp2076
a(S'CoalitionPolicy.owl'
p2077
I1
tp2078
a(S'caad.3.0.rdf.owl'
p2079
I1
tp2080
a(S'Ontobio_01072013.owl'
p2081
I1
tp2082
a(S'fbi-reports.owl'
p2083
I0
tp2084
a(S'tma_minimal032510.owl'
p2085
I0
tp2086
a(S'index.rdf'
p2087
I0
tp2088
a(S'PCORI_finalv2.owl'
p2089
I0
tp2090
a(S'StudyDesigns.owl'
p2091
I0
tp2092
a(S'mesh.owl'
p2093
I0
tp2094
a(S'protege-dc.owl'
p2095
I0
tp2096
a(S'layer.owl'
p2097
I0
tp2098
a(S'dc.rdf'
p2099
I0
tp2100
a(S'mnp'
p2101
I0
tp2102
a(S'ext-vers-uml.1'
p2103
I0
tp2104
a(S'CSOontology.owl'
p2105
I0
tp2106
a(S'emo.owl'
p2107
I0
tp2108
a(S'root-ontology.owl'
p2109
I0
tp2110
a(S'ocupationalemploymentcluster.owl'
p2111
I0
tp2112
a(S'personOrganization.rdf-xml.owl'
p2113
I0
tp2114
a(S'PedTerm_Jan20-13.owl'
p2115
I0
tp2116
a(S'polyCore.rdf'
p2117
I0
tp2118
a(S'owlexport.php?proorg=KM+-+Tim+35'
p2119
I0
tp2120
a(S'testsandtestingcluster.owl'
p2121
I0
tp2122
a(S'BrendaTissue.owl'
p2123
I0
tp2124
a(S'icontact.owl'
p2125
I0
tp2126
a(S'PlantExperimentalAssayOntology.owl'
p2127
I0
tp2128
a(S'vsto.owl'
p2129
I0
tp2130
a(S'quality.owl.1'
p2131
I0
tp2132
a(S'pathway.owl.1'
p2133
I0
tp2134
a(S'cvs.2'
p2135
I0
tp2136
a(S'owlDemoSchema.xml'
p2137
I0
tp2138
a(S'afeo-4.3.owl'
p2139
I0
tp2140
a(S'owlexport.php?proorg=KM+-+Tim+05'
p2141
I0
tp2142
a(S'mars-domain-notions.rdf'
p2143
I0
tp2144
a(S'periodic_full_06012009.owl'
p2145
I0
tp2146
a(S'mouse_pathology.owl.2'
p2147
I0
tp2148
a(S'Fire0.9.1.rdf'
p2149
I0
tp2150
a(S'root_Ontology.owl'
p2151
I0
tp2152
a(S'nobel.owl.1'
p2153
I0
tp2154
a(S'content.rdf'
p2155
I0
tp2156
a(S'Cell line ontology v2.0.owl'
p2157
I0
tp2158
a(S'iGTO.owl'
p2159
I0
tp2160
a(S'atol_v6.owl'
p2161
I0
tp2162
a(S'cpannotationschema1.owl'
p2163
I0
tp2164
a(S'iwip'
p2165
I0
tp2166
a(S'MNMKVT19563(1).rdf'
p2167
I0
tp2168
a(S't025.rdf'
p2169
I0
tp2170
a(S'ISO371201.owl'
p2171
I0
tp2172
a(S'tools.owl'
p2173
I0
tp2174
a(S'xproc.owl'
p2175
I0
tp2176
a(S'ero.owl'
p2177
I0
tp2178
a(S'mammalian_phenotype.owl.4'
p2179
I0
tp2180
a(S'root-ontology.owx'
p2181
I0
tp2182
a(S'mim.owl'
p2183
I0
tp2184
a(S'combined-ns-translation.rdf.fr.1'
p2185
I0
tp2186
a(S'Food.owl_NOTCONSIDERED.txt'
p2187
I0
tp2188
a(S'index.xml'
p2189
I0
tp2190
a(S'HIVOnt016.owl'
p2191
I0
tp2192
a(S'deliveryContextAll.owl.3'
p2193
I0
tp2194
a(S'familyImport18.xml'
p2195
I0
tp2196
a(S'associatedwith.owl'
p2197
I0
tp2198
a(S'gen01.rdf'
p2199
I0
tp2200
a(S'tissuepreparation.owl.1'
p2201
I0
tp2202
a(S'developmentstage.owl.1'
p2203
I0
tp2204
a(S'TM_OtherFactors.owl'
p2205
I0
tp2206
a(S'agent3911.rdf'
p2207
I0
tp2208
a(S'elvisimp.rdf'
p2209
I0
tp2210
a(S'mn'
p2211
I0
tp2212
a(S'data-02.rdf'
p2213
I0
tp2214
a(S'carelex.owl'
p2215
I0
tp2216
a(S'BioPortal_Ontology18.owl'
p2217
I0
tp2218
a(S'environment_ontology.owl'
p2219
I0
tp2220
a(S'medaka_ontology.owl.1'
p2221
I0
tp2222
a(S'3.0.1'
p2223
I0
tp2224
a(S'pstruct025.owl'
p2225
I0
tp2226
a(S'iso639-2.skos.rdf'
p2227
I0
tp2228
a(S'RackMultipart20131105-23208-n8u32x.xml'
p2229
I0
tp2230
a(S'full-galen.owl'
p2231
I0
tp2232
a(S'OntoMA.1.1.OWL'
p2233
I0
tp2234
a(S'SVECore.owl'
p2235
I0
tp2236
a(S'SSpApplication.rdf-xml.owl'
p2237
I0
tp2238
a(S'plant_trait.owl.1'
p2239
I0
tp2240
a(S'2013-11-25.rdf'
p2241
I0
tp2242
a(S'css3deps.rdf'
p2243
I0
tp2244
a(S'citeseer.owl'
p2245
I0
tp2246
a(S'TM_Constitution.owl'
p2247
I0
tp2248
a(S'Policy.owl.1'
p2249
I0
tp2250
a(S'statisticalcluster.owl'
p2251
I0
tp2252
a(S'EpigeneticsFoundation.owl'
p2253
I0
tp2254
a(S'ont-rest-file20170302-22257-dgd3nz.owl'
p2255
I0
tp2256
a(S'CEDARPC.owl'
p2257
I0
tp2258
a(S'cabro.owl'
p2259
I0
tp2260
a(S'index.html.4'
p2261
I0
tp2262
a(S'psi-mod.owl'
p2263
I0
tp2264
a(S'open3111.owl'
p2265
I0
tp2266
a(S'eCP.owl'
p2267
I0
tp2268
a(S'reto.owl'
p2269
I0
tp2270
a(S'exif-intrinsic.1'
p2271
I0
tp2272
a(S't037.rdf'
p2273
I0
tp2274
a(S'piero.owl'
p2275
I0
tp2276
a(S'2015_06_11_Transitional care.owl'
p2277
I0
tp2278
a(S'PMR.rdf-xml.owl'
p2279
I0
tp2280
a(S'BIRNLex.owl'
p2281
I0
tp2282
a(S'dcm.owl'
p2283
I0
tp2284
a(S'tp.owl'
p2285
I0
tp2286
a(S'dig-daml-axioms.rdf'
p2287
I0
tp2288
a(S'ABA.owl'
p2289
I0
tp2290
a(S'EpilepsyOntology.owl'
p2291
I0
tp2292
a(S'DDO_v1.owl'
p2293
I0
tp2294
a(S'assembler.rdf'
p2295
I0
tp2296
a(S'fly_anatomy.owl.2'
p2297
I0
tp2298
a(S'hls'
p2299
I0
tp2300
a(S'hl7-sample-plus-owl.rdf'
p2301
I0
tp2302
a(S'rdf-schema.rdf.10'
p2303
I0
tp2304
a(S'INM ontologie v2.owl'
p2305
I0
tp2306
a(S'BPO 11_12_10.owl'
p2307
I0
tp2308
a(S'roleCodes.xml'
p2309
I0
tp2310
a(S'fma_obo.owl'
p2311
I0
tp2312
a(S'celltype.owl'
p2313
I0
tp2314
a(S'mamo-xml.owl'
p2315
I0
tp2316
a(S'image.owl'
p2317
I0
tp2318
a(S'exif.2'
p2319
I0
tp2320
a(S'cell.owl'
p2321
I0
tp2322
a(S'irigaz_frwk.owl'
p2323
I0
tp2324
a(S'dictyostelium_anatomy.owl'
p2325
I0
tp2326
a(S'PTS_Revised_Merged_Final.owl'
p2327
I0
tp2328
a(S'cereals_development.owl'
p2329
I0
tp2330
a(S'apaneurocluster.owl'
p2331
I0
tp2332
a(S'nsfaward.owl'
p2333
I0
tp2334
a(S'biomodels-21.owl'
p2335
I0
tp2336
a(S'Sumo-OWL-Fixed-Version-2003.owl'
p2337
I0
tp2338
a(S'SMATApplicationOntologyV1.0jValidated.owl'
p2339
I0
tp2340
a(S'videojuegos.owl'
p2341
I0
tp2342
a(S'UncertainOnto.owl'
p2343
I0
tp2344
a(S'smash-ontology.owl'
p2345
I0
tp2346
a(S'owlexport.php?proorg=KM+-+Tim+30'
p2347
I0
tp2348
a(S'QIBO_OWL1.owl'
p2349
I0
tp2350
a(S'EXACT2.owl'
p2351
I0
tp2352
a(S'gene_ontology.owl'
p2353
I0
tp2354
a(S'conclusions002.rdf.49'
p2355
I0
tp2356
a(S'conclusions002.rdf.48'
p2357
I0
tp2358
a(S'MIDAS_Profile.owl'
p2359
I0
tp2360
a(S'fileOntology.owl'
p2361
I0
tp2362
a(S'PhylOnt.owl'
p2363
I0
tp2364
a(S'RolesAndActions.rdf-xml.owl'
p2365
I0
tp2366
a(S'DocumentFolderSchemata_2.rdf'
p2367
I0
tp2368
a(S'university.owl'
p2369
I0
tp2370
a(S'MSontologyfinal_BFOversion.owl'
p2371
I0
tp2372
a(S'00122.owl'
p2373
I0
tp2374
a(S'zea_mays_anatomy.owl.1'
p2375
I0
tp2376
a(S'TM_SignsAndSymptoms.owl'
p2377
I0
tp2378
a(S'GCI-Foundation.owl'
p2379
I0
tp2380
a(S'condition_2.owl.1'
p2381
I0
tp2382
a(S'AncientGreekWisdomOnto.owl'
p2383
I0
tp2384
a(S'ethnicityOntologyv1.owl'
p2385
I0
tp2386
a(S'po_temporal.owl'
p2387
I0
tp2388
a(S'iwi'
p2389
I0
tp2390
a(S'pooling.owl.1'
p2391
I0
tp2392
a(S'Uncertainty.owl.2'
p2393
I0
tp2394
a(S't019.rdf'
p2395
I0
tp2396
a(S'molecule_role.owl'
p2397
I0
tp2398
a(S'neomark_ontology.owl'
p2399
I0
tp2400
a(S'fly_development.owl.3'
p2401
I0
tp2402
a(S'organization.owl'
p2403
I0
tp2404
a(S'dinto_1.3.owl'
p2405
I0
tp2406
a(S'fungal_anatomy.owl.2'
p2407
I0
tp2408
a(S'JERM_alpha1.6.owl'
p2409
I0
tp2410
a(S'treatment.owl'
p2411
I0
tp2412
a(S'vitalProjectOnto.owl'
p2413
I0
tp2414
a(S'schema.owl'
p2415
I0
tp2416
a(S'fern-ontology-v0.05.owl'
p2417
I0
tp2418
a(S'ont-rest-file20170302-22257-13fcpy7.owl'
p2419
I0
tp2420
a(S'bodysystem.owl'
p2421
I0
tp2422
a(S'treatmentcluster.owl'
p2423
I0
tp2424
a(S'premises902.rdf.8'
p2425
I0
tp2426
a(S'aigp.owl'
p2427
I0
tp2428
a(S'chebi.owl.1'
p2429
I0
tp2430
a(S'mosquito_anatomy.owl.2'
p2431
I0
tp2432
a(S'syndromes.owl'
p2433
I0
tp2434
a(S'politicianbill.owl'
p2435
I0
tp2436
a(S'sio1.owl'
p2437
I0
tp2438
a(S'V3.0FAOntology.rdf-xml.owl'
p2439
I0
tp2440
a(S'GeographicalRegion.owl'
p2441
I0
tp2442
a(S'adult_mouse_anatomy.owl'
p2443
I0
tp2444
a(S'PatientSafetyOntology.owl'
p2445
I0
tp2446
a(S'common.owl'
p2447
I0
tp2448
a(S'MapItm36.rdf-xml-13-01-09.owl'
p2449
I0
tp2450
a(S'openmath.owl'
p2451
I0
tp2452
a(S'rex.owl.4'
p2453
I0
tp2454
a(S'human-dev-anat-staged.owl.1'
p2455
I0
tp2456
a(S'exif-nikon950.1'
p2457
I0
tp2458
a(S'vivo-isf-public-1.6.owl'
p2459
I0
tp2460
a(S'datastore-schema'
p2461
I0
tp2462
a(S'RDL.owl.crdownload.owl'
p2463
I0
tp2464
a(S'vsto.owl.1'
p2465
I0
tp2466
a(S'TM_Meridians.owl'
p2467
I0
tp2468
a(S'OntoDM-KDD.owl'
p2469
I0
tp2470
a(S'so.owl.1'
p2471
I0
tp2472
a(S'anatomicalsystem.owl'
p2473
I0
tp2474
a(S'BRCO_Edition_v3.0.owl'
p2475
I0
tp2476
a(S'ofpe-4.1.owl'
p2477
I0
tp2478
a(S'mo.owl'
p2479
I0
tp2480
a(S'event.owl'
p2481
I0
tp2482
a(S'CL.rdf-xml-3.owl'
p2483
I0
tp2484
a(S'naics.owl'
p2485
I0
tp2486
a(S'human-dev-anat-abstract.owl'
p2487
I0
tp2488
a(S'rdfcl.rdf'
p2489
I0
tp2490
a(S'cycCore.rdf'
p2491
I0
tp2492
a(S'psi-mi.owl.2'
p2493
I0
tp2494
a(S'mesh.owl.2'
p2495
I0
tp2496
a(S'relationship.owl.1'
p2497
I0
tp2498
a(S'zebrafish_anatomy.owl'
p2499
I0
tp2500
a(S'SimulationScenarioDeviations.owl'
p2501
I0
tp2502
a(S'instOntology.owl'
p2503
I0
tp2504
a(S'temporal.owl.2'
p2505
I0
tp2506
a(S'test_gcc3_ont.owl?file_id=10438'
p2507
I0
tp2508
a(S'PICO3.owl'
p2509
I0
tp2510
a(S'computercluster.owl'
p2511
I0
tp2512
a(S'gmo_v0.16b.owl'
p2513
I0
tp2514
a(S'IMGT-ONTOLOGY-v1-0-2.owl'
p2515
I0
tp2516
a(S'arabidopsis_development.owl'
p2517
I0
tp2518
a(S'RackMultipart20131210-10031-3l5z92.xml'
p2519
I0
tp2520
a(S'microarrayplatform.owl.1'
p2521
I0
tp2522
a(S'Hugo_July12_2010.owl'
p2523
I0
tp2524
a(S'flybase_controlled_vocabulary.owl.1'
p2525
I0
tp2526
a(S'esfo.new.owl'
p2527
I0
tp2528
a(S'radonc_ontology.owl'
p2529
I0
tp2530
a(S'software.owl'
p2531
I0
tp2532
a(S'DIS_OBO_update.owl'
p2533
I0
tp2534
a(S'contact'
p2535
I0
tp2536
a(S'Ontology1228014870390.owl'
p2537
I0
tp2538
a(S'eligibility-feature-hierarchy.owl'
p2539
I0
tp2540
a(S'bcchrcatalog.rdf'
p2541
I0
tp2542
a(S'2015_06_16 Triage nurse.owl'
p2543
I0
tp2544
a(S'harry_potter.rdf-xml.owl.1'
p2545
I0
tp2546
a(S'comodi.owl'
p2547
I0
tp2548
a(S'experimentaltechnique.owl'
p2549
I0
tp2550
a(S'RackMultipart20131003-5009-zajae3.owl'
p2551
I0
tp2552
a(S'record1_10.rdf'
p2553
I0
tp2554
a(S'educationalcluster.owl'
p2555
I0
tp2556
a(S'mccv_v0.96.owl'
p2557
I0
tp2558
a(S'2015_06_15_Administrator.owl'
p2559
I0
tp2560
a(S'TLO.rdf-xml-2.owl'
p2561
I0
tp2562
a(S'CPTAC_alpha2.owl'
p2563
I0
tp2564
a(S'disorderscluster.owl'
p2565
I0
tp2566
a(S'esg.owl'
p2567
I0
tp2568
a(S'aktive-portal-ontology-latest.owl'
p2569
I0
tp2570
a(S'pathology.owl'
p2571
I0
tp2572
a(S'owlexport.php?proorg=KM+-+Tim+17'
p2573
I0
tp2574
a(S't055.rdf'
p2575
I0
tp2576
a(S'MOedited.owl'
p2577
I0
tp2578
a(S'SYN.owl'
p2579
I0
tp2580
a(S'PICO2.owl'
p2581
I0
tp2582
a(S'mao.owl'
p2583
I0
tp2584
a(S'navigation.owl'
p2585
I0
tp2586
a(S'PublicationType.owl'
p2587
I0
tp2588
a(S'context.rdf'
p2589
I0
tp2590
a(S'bionutrition_cam9.owl'
p2591
I0
tp2592
a(S'human_disease.owl.1'
p2593
I0
tp2594
a(S'va.rdf'
p2595
I0
tp2596
a(S'ESSO V1.03.owl'
p2597
I0
tp2598
a(S'metadata.rdf'
p2599
I0
tp2600
a(S'stato1.owl'
p2601
I0
tp2602
a(S'svg_ont.owl'
p2603
I0
tp2604
a(S'RepO.owl'
p2605
I0
tp2606
a(S'cto_obo.owl'
p2607
I0
tp2608
a(S'evidence_code.owl'
p2609
I0
tp2610
a(S'wordnet_2.rdf'
p2611
I0
tp2612
a(S'fix.owl.3'
p2613
I0
tp2614
a(S'educational.owl'
p2615
I0
tp2616
a(S'uri-resolution.owl'
p2617
I0
tp2618
a(S'CEDAR_Value_Sets.owl'
p2619
I0
tp2620
a(S'RackMultipart20131003-5009-zajae3.xml'
p2621
I0
tp2622
a(S'SAMOA_Profile.owl'
p2623
I0
tp2624
a(S'OPE.owl'
p2625
I0
tp2626
a(S'hao.owl'
p2627
I0
tp2628
a(S'OntoDM.owl'
p2629
I0
tp2630
a(S'PICO1.owl'
p2631
I0
tp2632
a(S'worm_development.owl.3'
p2633
I0
tp2634
a(S'owlexport.php?proorg=Baze+Podataka+-+FOI'
p2635
I0
tp2636
a(S'exif-nikon5700'
p2637
I0
tp2638
a(S'pauls-pimo-all.rdf?rev=1712&format=txt'
p2639
I0
tp2640
a(S'Education.owl'
p2641
I0
tp2642
a(S'ResultOntology.rdf'
p2643
I0
tp2644
a(S'condition_5.owl'
p2645
I0
tp2646
a(S'BrainSchema.owl'
p2647
I0
tp2648
a(S'carre.owl'
p2649
I0
tp2650
a(S'wsdl-rdf.1'
p2651
I0
tp2652
a(S'phenXOnto_v1_2.owl'
p2653
I0
tp2654
a(S'qudt.xml'
p2655
I0
tp2656
a(S'air.rdf'
p2657
I0
tp2658
a(S'premises903.rdf.12'
p2659
I0
tp2660
a(S'ASDPhenotypeOntology_Public.owl'
p2661
I0
tp2662
a(S'PDO_FullyAnnotated_Final_v1.0.owl'
p2663
I0
tp2664
a(S'relationship.rdf'
p2665
I0
tp2666
a(S'units.owl'
p2667
I0
tp2668
a(S'ont-rest-file20170302-22257-mt3toa.owl'
p2669
I0
tp2670
a(S'PipelinePatterns.owl'
p2671
I0
tp2672
a(S'TESCHET.owl'
p2673
I0
tp2674
a(S'keys.owl'
p2675
I0
tp2676
a(S'RackMultipart20131105-23208-n8u32x.owl'
p2677
I0
tp2678
a(S'ROO.owl'
p2679
I0
tp2680
a(S'legal-2.owl'
p2681
I0
tp2682
a(S'po_anatomy.owl'
p2683
I0
tp2684
a(S'legal.owl'
p2685
I0
tp2686
a(S'GlycO.owl'
p2687
I0
tp2688
a(S'premises901.rdf.7'
p2689
I0
tp2690
a(S'EMAP.owl.1'
p2691
I0
tp2692
a(S'Read_V22015.owl'
p2693
I0
tp2694
a(S't073.rdf'
p2695
I0
tp2696
a(S'premises904.rdf.8'
p2697
I0
tp2698
a(S'hfo.owl'
p2699
I0
tp2700
a(S'OMV_v2.4.1.owl'
p2701
I0
tp2702
a(S'survey-sample.rdf'
p2703
I0
tp2704
a.