(lp0
(S'agrelon.rdf'
p1
I17
tp2
a(S'bfo-1.1.owl'
p3
I10
tp4
a(S'bibtex.owl'
p5
I9
tp6
a(S'bao_vocabulary_result.owl'
p7
I6
tp8
a(S'AncientGreekWisdomOnto.owl'
p9
I4
tp10
a(S'animals.owl'
p11
I4
tp12
a(S'airtravelbookingontology.owl'
p13
I4
tp14
a(S'bibo.owl'
p15
I4
tp16
a(S'adolena_OBDA.owl'
p17
I3
tp18
a(S'Book.owl'
p19
I3
tp20
a.