(dp0
S'http://www.w3.org/2006/time-entry'
p1
S'time-entry.owl'
p2
sS'http://neurolog.unice.fr/ontoneurolog/v3.0/ontoneurolog-mr-dataset-acquisition.owl'
p3
S'ontoneurolog-mr-dataset-acquisition.owl'
p4
sS'http://www.w3.org/2009/SSN-XG/Ontologies/SensorBasis.owl'
p5
S'SensorBasis.owl'
p6
sS'http://www.kp-lab.org/system-model/TLO#'
p7
S'TLO.rdf-xml-2.owl'
p8
sS'http://purl.bioontology.org/ontology/MIM'
p9
S'mim.owl'
p10
sS'http://opendata.inra.fr/EOL/'
p11
S'eol.owl'
p12
sS'http://www.cin.ufpe.br/~ntdo/OWLFiles/ntdo.owl'
p13
S'ntdo.owl'
p14
sS'http://mmisw.org/ont/nasa_pace/observations'
p15
S'observations'
p16
sS'http://purl.org/skeletome/bonedysplasia'
p17
S'bonedysplasia.owl'
p18
sS'https://carre.kmi.open.ac.uk/ontology/educational.owl'
p19
S'educational.owl'
p20
sS'http://www.semanticweb.org/ontologies/2012/5/Ontology1338526551855.owl'
p21
S'RPO_081112_owl.0'
p22
sS'&pub;'
p23
S'publication.owl'
p24
sS'http://www.w3.org/2002/03owlt/samePropertyAs/conclusions002'
p25
S'conclusions002.rdf.35'
p26
sS'&obo;ontoneo/ontoneo.owl'
p27
S'ontoneo.owl'
p28
sS'http://www.w3.org/ns/prov'
p29
S'prov-o.owl'
p30
sS'http://purl.oclc.org/NET/mvco.owl'
p31
S'mvco.owl'
p32
sS'&wn;'
p33
S'wordnet_2.rdf'
p34
sS'https://schema.metadatacenter.org/'
p35
S'CEDARPC.owl'
p36
sS'&obo;iao/dev/ontology-metadata.owl'
p37
S'ontology-metadata.owl'
p38
sS'http://www.modeldriven.org/rdf/context/context-logic.owl'
p39
S'context-logic.owl.1'
p40
sS'http://mmisw.org/ont/mmi/MarineOrganism'
p41
S'MarineOrganism'
p42
sS'http://www.ontologydesignpatterns.org/cp/owl/controlflow.owl'
p43
S'controlflow.owl'
p44
sS'http://www.cs.ukzn.ac.za/zubeida/ontologies/FunctionalParticipationBFOMerged.owl'
p45
S'FunctionalParticipationBFOMappings.owl'
p46
sS'&obo;in/hino.owl'
p47
S'hino.owl'
p48
sS'&table;'
p49
S'PeriodicTable.owl.xml'
p50
sS'http://purl.obolibrary.org/obo/DDO.owl'
p51
S'DDO_v1.owl'
p52
sS'&comp;'
p53
S'matrCompound.owl'
p54
sS'&obo;ovae.owl'
p55
S'ovae_merged.owl'
p56
sS'http://purl.bioontology.org/ontology/NPI'
p57
S'NPIs ontology v4.owl'
p58
sS'http://purl.obolibrary.org/obo/stato.owl'
p59
S'stato.owl'
p60
sS'http://mmisw.org/ont/CUAHSI/AquaBiologicalCompound'
p61
S'AquaBiologicalCompound'
p62
sS'http://purl.org/nbirn/birnlex/ontology/obo-foundry/core/obo-foundry-core-full-import.owl'
p63
S'obo-foundry-core-full-import.owl.1'
p64
sS'http://mmisw.org/ont/ooi_epe/platforms'
p65
S'platforms'
p66
sS'http://www.w3.org/2002/03owlt/equivalentProperty/premises003'
p67
S'premises003.rdf.27'
p68
sS'http://purl.obolibrary.org/obo/bfo.owl'
p69
S'bfo.owl'
p70
sS'http://mmisw.org/ont/ooi-ci/cdm'
p71
S'cdm'
p72
sS'http://purl.obolibrary.org/obo/aero.owl'
p73
S'aero.owl'
p74
sS'http://mmisw.org/ont/ooi_epe/platform_mapping'
p75
S'platform_mapping'
p76
sS'http://regenbase.org/ontology'
p77
S'regenbase_vocabulary.owl'
p78
sS'&obo;ico_merged.owl'
p79
S'ico_merged.owl'
p80
sS'http://neomark.owl'
p81
S'neomark_ontology.owl'
p82
sS'http://mmisw.org/ont/drdc/parameter'
p83
S'parameter.6'
p84
sS'http://www.w3.org/2002/03owlt/I5.2/conclusions002'
p85
S'conclusions002.rdf.31'
p86
sS'&pmlpbase;'
p87
S'pml-provenance.owl'
p88
sS'http://mmisw.org/ont/ioos/category'
p89
S'category'
p90
sS'http://www.semanticweb.org/ontologies/2010/5/22/Ontology1277229984000.owl'
p91
S'HPI.owl'
p92
sS'http://ecoinformatics.org/oboe/oboe.1.0/oboe.owl'
p93
S'oboe.owl'
p94
sS'http://qudt.org/schema/qudt'
p95
S'qudt.xml'
p96
sS'http://mmisw.org/ont/seacoos/qualityFlag_aq'
p97
S'qualityFlag_aq'
p98
sS'http://mmisw.org/ont/q2o/parameter'
p99
S'parameter.4'
p100
sS'http://ontology.neuinfo.org/NIF/Backend/obo-foundry-core-full-import.owl'
p101
S'obo-foundry-core-full-import.owl.2'
p102
sS'&obo;flu/dev/flu.owl'
p103
S'flu.owl'
p104
sS'http://mmisw.org/ont/mvco/MVCOtoCFswell'
p105
S'MVCOtoCFswell'
p106
sS'http://mmisw.org/ont/trdi/models'
p107
S'models'
p108
sS'http://www.semanticweb.org/jdr2160/ontologies/2015/5/venom_ontology'
p109
S'venom_ontology.xml'
p110
sS'&elem;'
p111
S'matrElement.owl'
p112
sS'http://unbsj.biordf.net/lipids/lipid-classification-service-ontology.owl'
p113
S'lipid-classification-service-ontology.owl'
p114
sS'http://mmisw.org/ont/mmi/sensor'
p115
S'sensor.2'
p116
sS'http://www.semanticweb.org/ontologies/2011/1/14/EMO.owl'
p117
S'emo.owl'
p118
sS'http://www.semanticweb.org/associatedmedicine/lavima/2011/10/Ontology1.owl'
p119
S'OntoMA.1.1.OWL'
p120
sS'http://swat.cse.lehigh.edu/resources/onto/aigp.owl'
p121
S'aigp.owl'
p122
sS'&gfo-bio;'
p123
S'gfo-bio.owl.1'
p124
sS'http://mmisw.org/ont/igoss/qualityFlag'
p125
S'qualityFlag.5'
p126
sS'http://mmisw.org/ont/calcofi/weatherData'
p127
S'weatherData'
p128
sS'http://mmisw.org/ont/secoora/optical'
p129
S'optical'
p130
sS'http://purl.org/nbirn/birnlex/ontology/obo-foundry/core/obo-foundry-core.owl'
p131
S'obo-foundry-core.owl.1'
p132
sS'http://geni-orca.renci.org/owl/ip4.owl'
p133
S'ip4.owl'
p134
sS'&chem;'
p135
S'chem.owl'
p136
sS'http://purl.org/spar/cito/'
p137
S'2014-05-22-cito-2_6_3.owl'
p138
sS'http://opendata.inra.fr/resources/BIORAF#'
p139
S'BIOREFINERY.owl'
p140
sS'http://topbraid.org/sxml'
p141
S'sxml'
p142
sS'http://mmisw.org/ont/csdms/operator'
p143
S'operator'
p144
sS'http://purl.org/nbirn/birnlex/ontology/BIRNLex-OBO-UBO.owl'
p145
S'BIRNLex-OBO-UBO.owl.2'
p146
sS'http://mmisw.org/ont/CUAHSI/LandSynthesis'
p147
S'LandSynthesis'
p148
sS'http://www.owl-ontologies.com/fbi-reports.owl'
p149
S'fbi-reports.owl'
p150
sS'http://www.owl-ontologies.com/assert.owl'
p151
S'OntoKBCF1301new.owl'
p152
sS'&meac;'
p153
S'index.html.8'
p154
sS'http://www.lia.deis.unibo.it/research/SAMOA/ontologies/SAMOA_Profile.owl'
p155
S'SAMOA_Profile.owl'
p156
sS'http://mmisw.org/ont/isdm/instituteCodes'
p157
S'instituteCodes'
p158
sS'http://mmisw.org/ont/seacoos/qualityFlag_tq'
p159
S'qualityFlag_tq'
p160
sS'http://purl.obolibrary.org/obo/ero.owl'
p161
S'ero.owl'
p162
sS'http://who.int/bodysystem.owl'
p163
S'bodysystem.owl'
p164
sS'http://www.w3.org/2002/03owlt/jjc/t019'
p165
S't019.rdf'
p166
sS'http://mmisw.org/ont/fao/habitatclassification'
p167
S'habitatclassification'
p168
sS'http://chem2bio2rdf.org/chem2bio2rdf.owl'
p169
S'chem2bio2rdf.owl'
p170
sS'http://www.loria.fr/~coulet/sopharm/'
p171
S'sopharm2.2.owl'
p172
sS'http://www.bioassayontology.org/bao'
p173
S'bao_gpcr_v1.1.owl'
p174
sS'http://www.tssg.org/public/ontologies/omg/uml/2004/BasicActions.owl'
p175
S'BasicActions.owl'
p176
sS'file:/D:/mpoveda/ICPS/Red%20ICPS/ICPS%20Network/ActionsToReduceRisk.owl'
p177
S'ActionsToReduceRisk.owl'
p178
sS'&obo;ohmi.owl'
p179
S'ohmi.owl'
p180
sS'&base;'
p181
S'expression.owl'
p182
sS'http://mmisw.org/ont/odm2/OrganizationType'
p183
S'OrganizationType'
p184
sS'http://who.int/ictm/constitution'
p185
S'TM_Constitution.owl'
p186
sS'http://purl.org/cwmo/'
p187
S'CWMO-042.owl'
p188
sS'http://purl.obolibrary.org/obo/oostt.owl/'
p189
S'oostt.owl'
p190
sS'http://www.qurator.org'
p191
S'DQOntology.owl'
p192
sS'http://mmisw.org/ont/mvco/platform'
p193
S'platform.1'
p194
sS'http://mged.sourceforge.net/ontologies/MGEDOntology.owl'
p195
S'MGEDOntology.owl'
p196
sS'http://www.w3.org/2001/sw/BestPractices/OEP/SimplePartWhole/part.owl'
p197
S'part.owl'
p198
sS'http://purl.obolibrary.org/obo/cio.owl'
p199
S'cio.owl'
p200
sS'http://www.w3.org/2002/03owlt/I5.2/conclusions004'
p201
S'conclusions004.rdf.6'
p202
sS'http://www.thezfiles.co.za/ontologies/DOLCE-LiteBFOMerged.owl'
p203
S'DOLCE-LiteBFOMerged.owl'
p204
sS'http://harmonisa.uni-klu.ac.at/ontology/skeleton.owl'
p205
S'skeleton.owl'
p206
sS'http://www.ICPS/ontologies/MitigatingFactors.owl'
p207
S'MitigatingFactors.owl'
p208
sS'http://iri.columbia.edu/~benno/Notes/DataLibrary/RDFDAP/opendaprdf.xml'
p209
S'opendaprdf.xml'
p210
sS'http://mmisw.org/ont/mmi/usjgofs_hydro'
p211
S'usjgofs_hydro'
p212
sS'&ontology;dco'
p213
S'dco.owl'
p214
sS'http://mmisw.org/ont/ioos/animal_acoustic_telemetry'
p215
S'animal_acoustic_telemetry'
p216
sS'http://www.tssg.org/public/ontologies/omg/odm/2006/RDFWeb.owl'
p217
S'RDFWeb.owl'
p218
sS'http://www.ontologydesignpatterns.org/cp/owl/timeindexedsituation.owl'
p219
S'timeindexedsituation.owl'
p220
sS'http://www.semanticweb.org/ontologies/2008/8/SPO_lightweight_merged.owl'
p221
S'Skin Physiology Ontology 2.0.owl'
p222
sS'http://data-gov.tw.rpi.edu/2009/data-gov-twc.rdf'
p223
S'data-gov-twc.rdf.1'
p224
sS'&privacy;'
p225
S'privacy.owl'
p226
sS'&exif;'
p227
S'ns'
p228
sS'http://www.semanticweb.org/ethnicityOntology'
p229
S'ethnicityOntologyv1.owl'
p230
sS'http://purl.obolibrary.org/obo/poro.owl'
p231
S'poro.owl'
p232
sS'http://ontology.neuinfo.org/NIF/BiomaterialEntities/sequence.owl'
p233
S'sequence.owl.1'
p234
sS'http://www.fadyart.com/Finance.owl'
p235
S'Finance.owl'
p236
sS'http://www.w3.org/2002/03owlt/I5.24/conclusions001'
p237
S'conclusions001.rdf.8'
p238
sS'http://mmisw.org/ont/mmi/om'
p239
S'om'
p240
sS'http://www.kp-lab.org/security-ontologies/RolesAndActions#'
p241
S'RolesAndActions.rdf-xml.owl'
p242
sS'http://www.bioassayontology.org/bao/bao_complete.owl'
p243
S'bao_complete.owl'
p244
sS'http://mmisw.org/ont/calcofi/CalCOFI_stationid'
p245
S'CalCOFI_stationid'
p246
sS'http://www.w3.org/2002/07/owl#'
p247
S'2015_06_11_Transitional care.owl'
p248
sS'&openprovenance;opmo'
p249
S'opmo-20101012.owl'
p250
sS'http://informatics.mayo.edu/TEO.owl'
p251
S'TEO.owl'
p252
sS'http://mmisw.org/ont/mbarissds/eqtorientation'
p253
S'eqtorientation'
p254
sS'http://mmisw.org/ont/mmi/udunits2-accepted'
p255
S'udunits2-accepted'
p256
sS'http://amigo.gforge.inria.fr/owl/ContextLanguage.owl'
p257
S'ContextLanguage.owl'
p258
sS'http://mmisw.org/ont/mmi/mmiorr'
p259
S'mmiorr'
p260
sS'http://mmisw.org/ont/ioos/tagging_exchange_standards_v1'
p261
S'tagging_exchange_standards_v1'
p262
sS'&meannot;'
p263
S'index.html.14'
p264
sS'http://mmisw.org/ont/ican/thesaurus'
p265
S'thesaurus.1'
p266
sS'&obo;odnae.owl'
p267
S'odnae_merged.owl'
p268
sS'http://www.ICPS/ontologies/ContributingFactors-Hazards'
p269
S'ContributingFactors-Hazards.owl'
p270
sS'http://scai.fraunhofer.de/HuPSON'
p271
S'HuPSON_v092013_merged.owl'
p272
sS'http://www.uv.es/agentes/sve/DSOBar.owl'
p273
S'DSOBar.owl'
p274
sS'http://mmisw.org/ont/noaa/noaadatalevels'
p275
S'noaadatalevels'
p276
sS'http://www.ICPS/ontologies/Outcomes.owl'
p277
S'Outcomes.owl'
p278
sS'http://mmisw.org/ont/BOEM/SFH'
p279
S'SFH'
p280
sS'http://mmisw.org/ont/noaa/noaa-tide-current'
p281
S'noaa-tide-current'
p282
sS'http://mmisw.org/ont/BOEM/SFM'
p283
S'SFM'
p284
sS'http://www.daml.org/2001/03/daml+oil'
p285
S'dig-daml-axioms.rdf'
p286
sS'http://mmisw.org/ont/argo/qualityFlag'
p287
S'qualityFlag.6'
p288
sS'http://omv.ontoware.org/2005/05/ontology'
p289
S'OMV_v2.4.1.owl'
p290
sS'http://mmisw.org/ont/isro/INSAT3DDPV'
p291
S'INSAT3DDPV.1'
p292
sS'http://mmisw.org/ont/ooi_epe/instruments'
p293
S'instruments'
p294
sS'http://www.w3.org/2011/content'
p295
S'content'
p296
sS'&mevd;'
p297
S'index.html.9'
p298
sS'http://www.co-ode.org/ontologies/amino-acid/2006/05/18/amino-acid.owl#'
p299
S'amino acid - inferred.owl'
p300
sS'http://www.modeldriven.org/rdf/context/context.rdf'
p301
S'context.rdf'
p302
sS'http://example.com/'
p303
S'uri-resolution.owl'
p304
sS'http://www.w3.org/2006/12/owl2-xml#'
p305
S'Protein_Ligand_Interaction_Ontology_PLIO_revised.owl'
p306
sS'&news;'
p307
S'news.owl'
p308
sS'http://datos.gob.es/def/sector-publico/organizacion'
p309
S'orges.owl'
p310
sS'http://ontology.ihmc.us/Notification/NotificationEntity.owl'
p311
S'NotificationEntity.owl'
p312
sS'&org;'
p313
S'matrOrganicCompound.owl'
p314
sS'http://www.ontologydesignpatterns.org/cp/owl/sequence.owl'
p315
S'sequence.owl'
p316
sS'http://iridl.ldeo.columbia.edu/ontologies/iricrosswalk.owl'
p317
S'iricrosswalk.owl.1'
p318
sS'http://purl.org/ontology/olo/core#'
p319
S'orderedlistontology.owl'
p320
sS'http://mmisw.org/ont/q2o/flag'
p321
S'flag'
p322
sS'http://mmisw.org/ont/mvco/properties'
p323
S'properties'
p324
sS'http://kt.ijs.si/panovp/OntoDT'
p325
S'OntoDT.owl'
p326
sS'http://www.owl-ontologies.com/MO.owl'
p327
S'MOedited.owl'
p328
sS'http://www.semanticweb.org/rjyy/ontologies/2015/5/ESSO'
p329
S'ESSO V1.03.owl'
p330
sS'http://sswapmeet.sswap.info/oboInOwl/oboInOwl.owl'
p331
S'oboInOwl.owl'
p332
sS'&obo;RoleO.owl'
p333
S'RoleO.owl'
p334
sS'http://www.kp-lab.org/ontologies/mapit#'
p335
S'MapItm36.rdf-xml-13-01-09.owl'
p336
sS'http://www.w3.org/2002/03owlt/I5.3/conclusions001'
p337
S'conclusions001.rdf.7'
p338
sS'http://mmisw.org/ont/ooici/ooiionroles'
p339
S'ooiionroles'
p340
sS'http://garage.sims.berkeley.edu/mmm-2/ontology/extension1'
p341
S'a7_group78.owl.xml'
p342
sS'http://www.semanticweb.org/owner/ontologies/2014/6/Drug.owl'
p343
S'AIDSClinic002 (1).owl'
p344
sS'http://www.ontologydesignpatterns.org/ont/web/irw.owl'
p345
S'irw.owl'
p346
sS'&obo;ogg.owl'
p347
S'ogg.owl'
p348
sS'http://www.loria.fr/pgxo/'
p349
S'pgxo.owl'
p350
sS'http://purl.org/net/OCRe/study_protocol.owl'
p351
S'study_protocol.owl'
p352
sS'http://mmisw.org/ont/mx/datalevel'
p353
S'datalevel'
p354
sS'http://purl.obolibrary.org/obo/bcgo_merged.owl'
p355
S'bcgo_merged_inferred.owl'
p356
sS'http://www.cuahsi.org/navigation'
p357
S'navigation.owl'
p358
sS'http://oaei.ontologymatching.org/2009/benchmarks/266/onto.rdf#'
p359
S'onto.rdf.10'
p360
sS'http://www.stanford.edu/~coulet/phare.owl'
p361
S'phare.owl'
p362
sS'&obo;ogg-mm.owl'
p363
S'ogg-mm.owl'
p364
sS'http://www.CareLex.org/2012/carelex.owl'
p365
S'carelex.owl'
p366
sS'http://www.semanticweb.org/chen/ontologies/2015/8/untitled-ontology-72'
p367
S'PatientSafetyOntology.owl'
p368
sS'http://www.ICPS/ontologies/IncidentCharacteristic'
p369
S'IncidentCharacteristic.owl'
p370
sS'http://www.foo.org/bar#'
p371
S'tools.owl'
p372
sS'http://www.w3.org/2002/03owlt/equivalentProperty/premises002'
p373
S'premises002.rdf.2'
p374
sS'http://www.dadfha.com/ont/hls'
p375
S'hls'
p376
sS'&dir;'
p377
S'spaceDirection.owl'
p378
sS'http://www.owl-ontologies.com/OntologyXCT.owl'
p379
S'XCTontologyvtemp2.owl'
p380
sS'&seq;sequence.owl'
p381
S'sequence.owl'
p382
sS'http://mmisw.org/ont/ioos/platform_map'
p383
S'platform_map'
p384
sS'http://www.owl-ontologies.com/Ontology1358660052.owl'
p385
S'PedTerm_Jan20-13.owl'
p386
sS'http://purl.obolibrary.org/obo/bila.owl'
p387
S'bila.owl'
p388
sS'http://scai.fraunhofer.de/PTS'
p389
S'PTS_Revised_Merged_Final.owl'
p390
sS'&plc;'
p391
S'place'
p392
sS'http://edamontology.org/'
p393
S'EDAM_1.16.owl'
p394
sS'&obo;ego.owl'
p395
S'ego.owl'
p396
sS'http://www.w3.org/2002/03owlt/I5.24/conclusions004'
p397
S'conclusions004.rdf.3'
p398
sS'http://sw.cyc.com/2006/07/27/cyc'
p399
S'cycCore.rdf'
p400
sS'http://kt.ijs.si/panovp/OntoDM-KDD.owl'
p401
S'OntoDM-KDD.owl'
p402
sS'http://192.168.134.2/ontologies/DebianDpkgDist.owl'
p403
S'DebianDpkgDist.owl'
p404
sS'http://purl.jp/bio/11/pdo/'
p405
S'PDO_ver0.7.owl'
p406
sS'http://ccdb.ucsd.edu/SAO/1.2'
p407
S'SAO.owl'
p408
sS'http://mmisw.org/ont/coa/thesaurus'
p409
S'thesaurus.2'
p410
sS'http://purl.phyloviz.net/ontology/typon'
p411
S'typon.xml'
p412
sS'http://dati.camera.it/ocd/'
p413
S'classi.rdf'
p414
sS'http://purl.obolibrary.org/obo/dron.owl/'
p415
S'dron-full.owl'
p416
sS'http://www.semanticweb.org/pallabi.d/ontologies/2014/2/untitled-ontology-11'
p417
S'Cell line ontology v2.0.owl'
p418
sS'http://mmisw.org/ont/noaa/juvenilerockfish'
p419
S'juvenilerockfish'
p420
sS'&snarm;'
p421
S'index.html.12'
p422
sS'http://mmisw.org/ont/CUAHSI/AtmosphericHydrologicCore'
p423
S'AtmosphericHydrologicCore'
p424
sS'http://purl.org/autism-ontology/1.0/autism-merged.owl'
p425
S'autism-merged.owl'
p426
sS'http://mmisw.org/ont/mmi/udunits2-common'
p427
S'udunits2-common'
p428
sS'http://www.neli.org.uk/skos/neli'
p429
S'neli.rdf'
p430
sS'http://paul.staroch.name/thesis/SmartHomeWeather.owl#'
p431
S'SmartHomeWeather.owl'
p432
sS'http://opendata.inra.fr/resources/Durum_Wheat#'
p433
S'DURUM_WHEAT.owl'
p434
sS'http://www.semanticweb.org/demetrios/ontologies/2014/5/untitled-ontology-3'
p435
S'BioPortal_Ontology18.owl'
p436
sS'http://purl.obolibrary.org/obo/cl.owl'
p437
S'cl.owl'
p438
sS'http://mmisw.org/ont/agu/indexterm'
p439
S'indexterm'
p440
sS'http://ccdb.ucsd.edu/NIF/'
p441
S'OBO_annotation_properties.owl.2'
p442
sS'&person;'
p443
S'person.owl'
p444
sS'http://mmisw.org/ont/ooici/informationResource'
p445
S'informationResource'
p446
sS'http://purl.obolibrary.org/obo/rxno.obo.owl'
p447
S'rxno.owl'
p448
sS'http://mmisw.org/ont/secoora/weather_climate'
p449
S'weather_climate'
p450
sS'http://trajano.us.es/~isabel/EHR/Support_RM.owl'
p451
S'Support_RM.owl'
p452
sS'http://lsdis.cs.uga.edu/projects/glycomics/propreo'
p453
S'ProPreO-060506.owl'
p454
sS'http://www.loa-cnr.it/ontologies/DOLCE-Lite.owl'
p455
S'DOLCE-RL.owl'
p456
sS'http://purl.obolibrary.org/obo/chmo.owl'
p457
S'chmo.owl'
p458
sS'http://aimlab.cs.uoregon.edu/smash/ontologies/smash-ontology.owl'
p459
S'smash-ontology.owl'
p460
sS'http://mmisw.org/ont/ioos/harmonicConstituents'
p461
S'harmonicConstituents'
p462
sS'http://mmisw.org/ont/mmi/udunits2-base'
p463
S'udunits2-base'
p464
sS'http://purl.obolibrary.org/obo/obib_merged.owl'
p465
S'obib_merged_inferred.owl'
p466
sS'http://mmisw.org/ont/comps/flag'
p467
S'flag.1'
p468
sS'http://www.meteck.org/files/ontologies/stuff.owl'
p469
S'stuff.owl'
p470
sS'http://mmisw.org/ont/ooici/resourceType'
p471
S'resourceType'
p472
sS'http://www.ontologydesignpatterns.org/ont/lmm/LMM_L2.owl'
p473
S'LMM_L2.owl'
p474
sS'http://www.w3.org/2004/02/skos/core'
p475
S'core.1'
p476
sS'http://vavlab.ee.boun.edu.tr/carera/onlira.owl'
p477
S'ONLIRA_v106.owl'
p478
sS'http://www.ICPS/ontologies/Activity.owl'
p479
S'Activity.owl'
p480
sS'http://www.cs.ukzn.ac.za/zubeida/ontologies/BFOROFunctionalParticipationMerged.owl'
p481
S'BFOROFunctionalParticipationMerged.owl'
p482
sS'http://mmisw.org/ont/mvco/observableProperty'
p483
S'observableProperty'
p484
sS'http://www.ontologydesignpatterns.org/cp/owl/basicplan.owl'
p485
S'basicplan.owl'
p486
sS'http://mmisw.org/ont/ioos/identifier_parameter_program'
p487
S'identifier_parameter_program'
p488
sS'http://www.cs.ukzn.ac.za/zubeida/ontologies/BFOROSpatialRelationsMerged.owl'
p489
S'BFOROSpatialRelationsMappings.owl'
p490
sS'http://surveillance.mcgill.ca/sso/syndromes.owl'
p491
S'syndromes.owl'
p492
sS'http://www.w3.org/2002/03owlt/description-logic/premises901'
p493
S'premises901.rdf.7'
p494
sS'http://bioonto.de/sbml.owl'
p495
S'biomodels-21.owl'
p496
sS'http://www.w3.org/2002/03owlt/description-logic/premises902'
p497
S'premises902.rdf.8'
p498
sS'http://www.w3.org/2002/03owlt/description-logic/premises904'
p499
S'premises904.rdf.8'
p500
sS'http://www.semanticweb.org/ontologies/2015/0/statisticalcluster.owl'
p501
S'statisticalcluster.owl'
p502
sS'http://www.semanticweb.org/ontologies/2008/1/Ontology1202401203291.owl'
p503
S'condition_5.owl'
p504
sS'http://www.ontologydesignpatterns.org/ont/dul/ontopic.owl'
p505
S'ontopic.owl'
p506
sS'http://www.semanticweb.org/ontologies/2012/8/Ontology1348158066194.owl'
p507
S'eligibility-feature-hierarchy.owl'
p508
sS'http://www.co-ode.org/ontologies/ont.owl'
p509
S'PhylOnt.owl'
p510
sS'http://mmisw.org/ont/oca/ocaican'
p511
S'ocaican'
p512
sS'http://mmisw.org/ont/drdc/_map'
p513
S'_map'
p514
sS'http://mmisw.org/ont/CUAHSI/LandCore'
p515
S'LandCore'
p516
sS'http://www.fo-ss.ch/simon/DiplomaThesis/InheritanceProfile/InheritanceProfile.owl'
p517
S'InheritanceProfile.owl'
p518
sS'http://purl.bioontology.org/ontology/SYN'
p519
S'SYN.owl'
p520
sS'http://mmisw.org/ont/mbari/parameter'
p521
S'parameter.7'
p522
sS'&plant;'
p523
S'biolPlant.owl'
p524
sS'http://www.semanticweb.org/ontologies/2014/11/legal-2.owl'
p525
S'legal-2.owl'
p526
sS'http://scai.fraunhofer.de/CSEO'
p527
S'Exo-CSEOv1.2_BFO_FINAL_merged_2.owl'
p528
sS'http://cbakerlab.unbsj.ca:8080/ontologies/BIM.owl'
p529
S'bim_beta.owl'
p530
sS'http://mmisw.org/ont/ndbc/qualityFlag_soft'
p531
S'qualityFlag_soft'
p532
sS'&obo;ido/brucellosis.owl'
p533
S'brucellosis_merged.owl'
p534
sS'http://www.cs.ukzn.ac.za/zubeida/ontologies/FunctionalParticipationGFOMappings.owl'
p535
S'FunctionalParticipationGFOMappings.owl'
p536
sS'http://www.semanticweb.org/hll/ontologies/2013/8/untitled-ontology-2'
p537
S'RackMultipart20131003-5009-zajae3.xml'
p538
sS'http://rds.posccaesar.org/2008/02/OWL/ISO-15926-2_2003'
p539
S'ISO-15926-2_2003.xml'
p540
sS'http://mmisw.org/ont/pmel/unit'
p541
S'unit'
p542
sS'&obo;ocvdae.owl'
p543
S'ocvdae-merged.owl'
p544
sS'http://bmkeg.isi.edu/ooevv/'
p545
S'ooevv_odp_0.0.4.owl'
p546
sS'http://mmisw.org/ont/ooiplatform1/OOI_Platform'
p547
S'OOI_Platform'
p548
sS'http://purl.bioontology.org/ontology/DIAB/'
p549
S'DIAB_v90rb.owl'
p550
sS'http://purl.bioontology.org/ontology/PMR.owl'
p551
S'PMR.rdf-xml.owl'
p552
sS'http://webprotege.stanford.edu/project/BTEinHSzHWlwyRnTyX0c8O'
p553
S'root-ontology.owx'
p554
sS'http://www.semanticweb.org/ontologies/2015/0/treatmentcluster.owl'
p555
S'treatmentcluster.owl'
p556
sS'http://mmisw.org/ont/nasa_pace/physical'
p557
S'physical'
p558
sS'http://protege.stanford.edu/plugins/owl/owl-library/travel.owl'
p559
S'travel.owl'
p560
sS'http://purl.obolibrary.org/obo/po.owl'
p561
S'po.owl'
p562
sS'http://mmisw.org/ont/trdi/platforms'
p563
S'platforms.1'
p564
sS'http://mmisw.org/ont/ioos/OA'
p565
S'OA'
p566
sS'http://ontology.ihmc.us/Group.owl'
p567
S'Group.owl'
p568
sS'http://mmisw.org/ont/mmi/devterm'
p569
S'devterm'
p570
sS'http://www.owl-ontologies.com/travel.owl'
p571
S'travel(2).owl'
p572
sS'http://www.w3.org/2002/03owlt/samePropertyAs/premises003'
p573
S'premises003.rdf.18'
p574
sS'http://purl.obolibrary.org/obo/dinto.owl'
p575
S'dinto_1.3.owl'
p576
sS'/&obo;zeco.owl'
p577
S'zeco.owl'
p578
sS'http://scai.fraunhofer.de/AlzheimerOntology'
p579
S'Alzheimer Ontology v15R-xml_merged.owl'
p580
sS'http://purl.obolibrary.org/obo/geno.owl'
p581
S'geno.owl'
p582
sS'http://mmisw.org/ont/ontoProdukt/op1'
p583
S'op1'
p584
sS'http://www.co-ode.org/ontologies/pizza/pizza.owl'
p585
S'pizza.owl'
p586
sS'http://www.w3.org/2002/03owlt/I5.24/premises001'
p587
S'premises001.rdf.4'
p588
sS'http://www.isibang.ac.in/mod/ns'
p589
S'mod-ontology-09092016.owl'
p590
sS'http://www.w3.org/2002/03owlt/I5.24/premises003'
p591
S'premises003.rdf.34'
p592
sS'&meexp;'
p593
S'index.html.7'
p594
sS'http://mmisw.org/ont/nasa_pace/observation_mapping'
p595
S'observation_mapping'
p596
sS'http://mmisw.org/ont/ooi_epe/instrument_mapping'
p597
S'instrument_mapping'
p598
sS'http://mmisw.org/ont/ecs/device'
p599
S'device.1'
p600
sS'http://mmisw.org/ont/ANZRC/ANZRC_Codes'
p601
S'ANZRC_Codes'
p602
sS'http://purl.org/net/orth'
p603
S'oo.owl'
p604
sS'http://purl.obolibrary.org/obo/fbsp.owl'
p605
S'fbsp.owl'
p606
sS'http://trac.talia.discovery-project.eu/wiki/HyperOntology'
p607
S'hyper_ontology.owl.2'
p608
sS'http://who.int/ictm/otherFactors'
p609
S'TM_OtherFactors.owl'
p610
sS'http://mmisw.org/ont/nasa/datalevel'
p611
S'datalevel.1'
p612
sS'http://mmisw.org/ont/mmi/Equipment'
p613
S'Equipment'
p614
sS'http://www.ICPS/ontologies/Person'
p615
S'Person.owl'
p616
sS'https://code.ecoinformatics.org/code/semtools/trunk/dev/oboe/oboe-sbc.owl'
p617
S'oboe-sbc.owl'
p618
sS'http://mmisw.org/ont/secoora/parameter'
p619
S'parameter.1'
p620
sS'http://mmisw.org/ont/nasa_pace/environmental_interactions'
p621
S'environmental_interactions'
p622
sS'http://purl.obolibrary.org/obo/2016-06-27/ohd-inferred.owl'
p623
S'ohd.owl'
p624
sS'http://mmisw.org/ont/secoora/water_property'
p625
S'water_property'
p626
sS'http://djpowell.net/schemas/atomrdf/0.3/'
p627
S'index.html.4'
p628
sS'http://mmisw.org/ont/mx/featuretype'
p629
S'featuretype'
p630
sS'http://ontology.cybershare.utep.edu/ELSEWeb/elseweb-edac.owl'
p631
S'elseweb-edac.owl'
p632
sS'http://www.ics.forth.gr/isl/MarineTLO/v4/marinetlo.owl'
p633
S'marinetlo.owl'
p634
sS'http://www.semanticweb.org/vanessa/ontologies/2012/7/untitled-ontology-33'
p635
S'RackMultipart20131105-23208-n8u32x.xml'
p636
sS'http://neuromorpho.org/ontologies/NMOSp.owl'
p637
S'NMOSp.owl'
p638
sS'file:/Users/twhetzel/Documents/Stanford/Outreach/BRO/BRO_v3.0_alpha3/BRO_v3.0_alpha3.owl'
p639
S'BRO.owl'
p640
sS'http://rhizomik.net/ontologies/copyrightonto.owl'
p641
S'copyrightonto.owl'
p642
sS'http://purl.obolibrary.org/obo/'
p643
S'OMIT.owl'
p644
sS'&gfo.owl;'
p645
S'gfo.owl'
p646
sS'http://mmisw.org/ont/odm2/SamplingFeatureType'
p647
S'SamplingFeatureType'
p648
sS'http://sysvasc.cs.man.ac.uk/formats/proteasixInOwl/proteasix'
p649
S'PxOmetazoa.owl.crdownload.xml'
p650
sS'http://www.ontologydesignpatterns.org/cp/owl/timeinterval.owl'
p651
S'timeinterval.owl'
p652
sS'http://staff.science.uva.nl/~lpost/SemanticModels/EpigeneticsFoundation.owl'
p653
S'EpigeneticsFoundation.owl'
p654
sS'http://mmisw.org/ont/SunithaAbburu/INSAT3DDPV'
p655
S'INSAT3DDPV'
p656
sS'http://mmisw.org/ont/mvco/qcCategory'
p657
S'qcCategory'
p658
sS'http://www.semanticweb.org/inra/ms2o'
p659
S'PO2_Core.owl'
p660
sS'http://chem.deri.ie/granatum'
p661
S'CancerChemopreventionOntology.owl'
p662
sS'http://multimedia.semanticweb.org/COMM/datatype.owl'
p663
S'datatype.owl'
p664
sS'http://www.semwebtech.org/languages/2006/rdfcl'
p665
S'rdfcl.rdf'
p666
sS'http://mmisw.org/ont/ooi_epe/parent_mapping'
p667
S'parent_mapping'
p668
sS'http://iridl.ldeo.columbia.edu/ontologies/functions.owl'
p669
S'functions.owl.2'
p670
sS'http://mmisw.org/ont/mvco/process'
p671
S'process'
p672
sS'http://mmisw.org/ont/ioos/datum'
p673
S'datum'
p674
sS'&contact;'
p675
S'contact.owl'
p676
sS'http://mmisw.org/ont/cchhg/cchhg_product_type'
p677
S'cchhg_product_type'
p678
sS'http://www.evolutionaryontology.org/cdao/1.0/cdao.owl'
p679
S'cdao.owl'
p680
sS'http://bioportal/bioontology.org/ontologies/HIVO0004'
p681
S'HIVOnt016.owl'
p682
sS'http://mmisw.org/ont/SunithaAbburu/INSAT3DM'
p683
S'INSAT3DM'
p684
sS'http://iridl.ldeo.columbia.edu/ontologies/irigaz_frwk.owl'
p685
S'irigaz_frwk.owl'
p686
sS'http://bblfish.net/work/atom-owl/2004-08-12/Atom.owl#'
p687
S'Atom.owl'
p688
sS'http://purl.oclc.org/BIOMO/ontology/biomo.owl'
p689
S'biomo.owl'
p690
sS'http://www.ebi.ac.uk/efo/efo.owl'
p691
S'efo.owl'
p692
sS'&ontology;NEMO.owl'
p693
S'RackMultipart20131021-23110-1vlki4d.xml'
p694
sS'http://mmisw.org/ont/mmi/udunits2-prefixes'
p695
S'udunits2-prefixes'
p696
sS'http://mmisw.org/ont/secoora/param2cat'
p697
S'param2cat'
p698
sS'http://www.limics.fr/ontologies/ontolurgences'
p699
S'OntolUrgences_v3.0.4.owl'
p700
sS'http://mmisw.org/ont/rdi/rdi'
p701
S'rdi'
p702
sS'http://www.ebi.ac.uk/cmpo/cmpo.owl'
p703
S'cmpo.owl'
p704
sS'http://mmisw.org/ont/ioc/ctdfield'
p705
S'ctdfield'
p706
sS'http://www.semanticweb.org/david/ontologies/2013/0/pathLex.owl'
p707
S'pathLex.owl'
p708
sS'http://mmisw.org/ont/ODMT/ODMTT'
p709
S'ODMTT'
p710
sS'http://mmisw.org/ont/mmi/MXP'
p711
S'MXP'
p712
sS'http://mmisw.org/ont/CUAHSI/SurfaceHydrologicCompound'
p713
S'SurfaceHydrologicCompound'
p714
sS'http://mmisw.org/ont/graybealski/mappingcategory'
p715
S'mappingcategory'
p716
sS'http://www.cs.ox.ac.uk/isg/ontologies/UID/00122.owl'
p717
S'00122.owl'
p718
sS'http://www.semanticweb.org/owl/owlapi/turtle'
p719
S'ngsonto2016_innuendo.owl'
p720
sS'http://rdf.adalab-project.org/ontology/adalab-meta/'
p721
S'AdaLab-meta.owl'
p722
sS'http://webprotege.stanford.edu/project/8pMSl9xBFPU3Gtu4U9kAEE'
p723
S'root-ontology.owl'
p724
sS'http://mmisw.org/ont/calcofi/nutrient'
p725
S'nutrient'
p726
sS'http://ontology.eil.utoronto.ca/GCI/Foundation/GCI-Foundation.owl'
p727
S'GCI-Foundation.owl'
p728
sS'http://www.semanticweb.org/lfierro/ontologies/2016/11/tagging_skos.owl'
p729
S'tagging_vocabulary.owl'
p730
sS'http://a.com/ontology'
p731
S'ProPreO-052206.owl'
p732
sS'http://www.demcare.eu/ontologies/demlab.owl'
p733
S'demlab.owl'
p734
sS'http://vip.creatis.insa-lyon.fr/ontovip/v1.0/ontovip.owl'
p735
S'ontovip.owl'
p736
sS'http://www.semanticweb.org/ontologies/2015/0/testsandtestingcluster.owl'
p737
S'testsandtestingcluster.owl'
p738
sS'http://mmisw.org/ont/woce/qualityFlag'
p739
S'qualityFlag.2'
p740
sS'http://www.co-ode.org/ontologies/untangling-hormones.owl'
p741
S'Normalisation-demo-hormones-01-01.owl'
p742
sS'http://www.w3.org/2002/03owlt/equivalentClass/nonconclusions005'
p743
S'nonconclusions005.rdf.1'
p744
sS'http://www.ICPS/ontologies/Place'
p745
S'Place.owl'
p746
sS'http://mmisw.org/ont/qartod/qualityFlag'
p747
S'qualityFlag.3'
p748
sS'http://rdf.geospecies.org/ont/gsontology'
p749
S'gsontology.owl'
p750
sS'http://geni-orca.renci.org/owl/ethernet.owl'
p751
S'ethernet.owl'
p752
sS'http://twiki.pasoa.ecs.soton.ac.uk/pub/PASOA/Ontologies/temporal.owl'
p753
S'temporal.owl.2'
p754
sS'http://www.cs.ukzn.ac.za/zubeida/ontologies/DOLCE-LiteGFOMerged.owl'
p755
S'DOLCE-LiteGFOMappings.owl'
p756
sS'http://ontology.cybershare.utep.edu/ELSEWeb/mappings/elseweb-mappings.owl'
p757
S'elseweb-mappings.owl'
p758
sS'http://nlp.shef.ac.uk/abraxas/ontologies/animals.owl'
p759
S'animals.owl'
p760
sS'http://www.w3.org/2001/sw/hcls/ns/transmed/tmo'
p761
S'tmo.owl'
p762
sS'&state;'
p763
S'chemState.owl'
p764
sS'http://mmisw.org/ont/calcofi/species'
p765
S'species'
p766
sS'http://mmisw.org/ont/calcofi/bottledata'
p767
S'bottledata'
p768
sS'http://www.daml.org/services/owl-s/1.1/generic/Expression.owl'
p769
S'Expression.owl'
p770
sS'http://mmisw.org/ont/ioos/parameter'
p771
S'parameter.2'
p772
sS'http://purl.obofoundry.org/obo/'
p773
S'OBI.owl.1'
p774
sS'http://www.ontologydesignpatterns.org/schemas/cpannotationschema.owl'
p775
S'cpannotationschema.owl'
p776
sS'&TESCHET.owl;'
p777
S'TESCHET.owl'
p778
sS'http://ccdb.ucsd.edu/NIF/BIRNLex-OBO-UBO.owl'
p779
S'BIRNLex-OBO-UBO.owl.1'
p780
sS'http://bioontology.org/ontologies/tma-minimal#'
p781
S'tma_minimal032510.owl'
p782
sS'http://mmisw.org/ont/griidc_test/octr'
p783
S'octr'
p784
sS'http://www.kp-lab.org/ontologies/technicalServices/personOrganization.owl'
p785
S'personOrganization.rdf-xml.owl'
p786
sS'http://mmisw.org/ont/mmi/resourcetype'
p787
S'resourcetype'
p788
sS'http://mmisw.org/ont/ooici/cyberinfrastructureConcept'
p789
S'cyberinfrastructureConcept'
p790
sS'&Policy;'
p791
S'Policy.owl.1'
p792
sS'http://mmisw.org/ont/process/mvco_processing'
p793
S'mvco_processing'
p794
sS'http://purl.obolibrary.org/obo/taxrank.owl'
p795
S'taxrank.owl'
p796
sS'http://www.loria.fr/~coulet/ontology/snpontology/version1.6/snpontology_full.owl/'
p797
S'snpontology_full.owl'
p798
sS'http://mmisw.org/ont/mvco/historyEventType'
p799
S'historyEventType'
p800
sS'http://www.cs.ukzn.ac.za/zubeida/ontologies/TemporalRelationsGFO-basicMerged.owl'
p801
S'TemporalRelationsGFO-basicMappings.owl'
p802
sS'http://mmisw.org/ont/ioos/map_core_variable'
p803
S'map_core_variable'
p804
sS'http://ontology.neuinfo.org/NIF/Backend/OBO_annotation_properties.owl'
p805
S'OBO_annotation_properties.owl.1'
p806
sS'&ancestro;ancestro.owl'
p807
S'ancestro_inferred.owl'
p808
sS'http://www.modeldriven.org/rdf/context/context.owl'
p809
S'context.owl.1'
p810
sS'http://www.w3.org/2007/uwa/context/common.owl'
p811
S'common.owl'
p812
sS'http://purl.obolibrary.org/obo/rex.owl'
p813
S'rex.owl'
p814
sS'http://purl.org/nbirn/birnlex/ontology/annotation/OBO_annotation_properties.owl'
p815
S'OBO_annotation_properties.owl.5'
p816
sS'http://mmisw.org/ont/mapcfsecoora/MCFS'
p817
S'MCFS'
p818
sS'http://www.gsic.uva.es/ontologies/ontoolcoleModel.owl'
p819
S'ontoolcoleModel.owl'
p820
sS'http://protege.stanford.edu/ontologies/metadata/provenance.owl'
p821
S'provenance.owl'
p822
sS'http://mmisw.org/ont/ioos/biological'
p823
S'biological'
p824
sS'http://purl.obolibrary.org/obo/obi.owl'
p825
S'obi.owl'
p826
sS'http://ontology.neuinfo.org/NIF/BiomaterialEntities/NIF-Subcellular.owl'
p827
S'NIF-Subcellular.owl'
p828
sS'http://purl.obolibrary.org/obo/obcs.owl'
p829
S'obcs_merged_inferred.owl'
p830
sS'http://purl.org/biotop/biotop.owl'
p831
S'biotop.owl'
p832
sS'&ontologies;PatientSafetyIncident'
p833
S'PatientSafetyIncident.owl'
p834
sS'http://mmisw.org/ont/mvco/qcTests'
p835
S'qcTests'
p836
sS'http://www.semanticweb.org/ontologies/2015/0/educationalcluster.owl'
p837
S'educationalcluster.owl'
p838
sS'http://purl.org/spar/datacite/'
p839
S'2014-05-21-datacite-0_6_4_1.owl'
p840
sS'&obo;agro-edit.owl'
p841
S'agro.owl'
p842
sS'http://www.w3.org/2002/07/owl'
p843
S'owl.rdf.3'
p844
sS'http://mmisw.org/ont/ooici/ceiConcept'
p845
S'ceiConcept'
p846
sS'&introspector_gcc.owl;'
p847
S'test_gcc3_ont.owl?file_id=10438'
p848
sS'http://www.tssg.org/public/ontologies/omg/odm/2006/odm_2006_04_03_kludge.owl'
p849
S'odm_2006_04_03_kludge.owl'
p850
sS'http://www.semanticweb.org/ontologies/2012/11/abnormalities.owl'
p851
S'V3.0FAOntology.rdf-xml.owl'
p852
sS'http://www.w3.org/2002/03owlt/equivalentProperty/conclusions002'
p853
S'conclusions002.rdf.29'
p854
sS'http://www.w3.org/2002/03owlt/equivalentProperty/conclusions003'
p855
S'conclusions003.rdf.2'
p856
sS'http://mmisw.org/ont/secoora/current'
p857
S'current.3'
p858
sS'http://www.semanticweb.org/ontologies/2008/1/Ontology1202405422533.owl'
p859
S'cto_obo.owl'
p860
sS'http://www.w3.org/2002/03owlt/equivalentProperty/conclusions004'
p861
S'conclusions004.rdf.2'
p862
sS'http://mmisw.org/ont/CUAHSI/SubstrateHydrologicCompound'
p863
S'SubstrateHydrologicCompound'
p864
sS'http://purl.obolibrary.org/obo/dpo.owl'
p865
S'dpo.owl'
p866
sS'http://www.w3.org/2007/uwa/ontologies/DeliveryContext.owl'
p867
S'deliveryContext.owl.1'
p868
sS'http://ontology.cybershare.utep.edu/ELSEWeb/elseweb-data.owl'
p869
S'elseweb-data.owl'
p870
sS'http://ontology.eil.utoronto.ca/organization.owl'
p871
S'organization.owl'
p872
sS'http://www.ontologydesignpatterns.org/cp/owl/situation.owl'
p873
S'situation.owl'
p874
sS'http://mmisw.org/ont/mmi/authority'
p875
S'authority'
p876
sS'http://mmisw.org/ont/secoora/atmospheric'
p877
S'atmospheric'
p878
sS'http://dataportal.ucar.edu/schemas/esg.owl'
p879
S'esg.owl'
p880
sS'file:/Users/fennieliang/Documents/Doc/Kcl/201504_experiment/Read_V22015.owl'
p881
S'Read_V22015.owl'
p882
sS'http://aims.fao.org/aos/geopolitical.owl'
p883
S'geopolitical.owl'
p884
sS'http://mmisw.org/ont/nasa_pace/ecology'
p885
S'ecology'
p886
sS'http://ontology.cybershare.utep.edu/ELSEWeb/elseweb-lifemapper-parameters.owl'
p887
S'elseweb-lifemapper-parameters.owl'
p888
sS'http://mmisw.org/ont/ogc/def'
p889
S'def'
p890
sS'http://www.semanticweb.org/ontologies/2009/9/12/Ontology1255323704656.owl'
p891
S'Breast cell line ontology.owl'
p892
sS'http://www.sw.deri.org/~zubeida/ROMULUS/ontologies/DOLCE-No-Quality-Qualia'
p893
S'DOLCE-No-Quality-Qualia.owl'
p894
sS'file:/C:/Lea/ontologies/environnement/leo.obo'
p895
S'eol_v4__collaboration.owl'
p896
sS'http://www.cs.ukzn.ac.za/ontologies/BFORODOLCE-LiteMerged.owl'
p897
S'BFORODOLCE-LiteMappings.owl'
p898
sS'http://iris.med.duth.gr/research/ecp/ontology/eCP.owl'
p899
S'eCP.owl'
p900
sS'http://mmisw.org/ont/ioos/map_ioos_cf'
p901
S'map_ioos_cf'
p902
sS'file:/C:/Lea/ontologies/versions%20ATOL/atol_v3.0.obo'
p903
S'atol_v6.owl'
p904
sS'http://www.w3.org/2002/03owlt/I4.6/premises004'
p905
S'premises004.rdf.2'
p906
sS'http://elite.polito.it/ontologies/dogont.owl'
p907
S'dogont.owl'
p908
sS'http://www.semanticweb.org/ontologies/2013/1/PCORI.owl'
p909
S'PCORI_finalv2.owl'
p910
sS'http://www.kp-lab.org/ontologies/SMAT#'
p911
S'SMATApplicationOntologyV1.0jValidated.owl'
p912
sS'http://neumore.cis.usouthal.edu/ontologies/NeuMORE-v0.1.owl'
p913
S'PVOnto-v0.1.owl'
p914
sS'&obo;vo.owl'
p915
S'vo.owl'
p916
sS'http://mmisw.org/ont/ioos/definition'
p917
S'definition'
p918
sS'http://www.owl-ontologies.com/Ontology1361987617.owl'
p919
S'bionutrition_cam9.owl'
p920
sS'http://www.semanticweb.org/ontologies/2008/1/Ontology1204037102846.owl'
p921
S'SitBAC1_3.owl'
p922
sS'http://www.owl-ontologies.com/Ontology1416674558.owl'
p923
S'iGTO.owl'
p924
sS'http://www.tssg.org/public/ontologies/omg/uml/2004/UML2-Super-MDL-041007.owl'
p925
S'UML2-Super-MDL-041007.owl'
p926
sS'http://www.semanticweb.org/ontologies/2015/0/apaneurocluster.owl'
p927
S'apaneurocluster.owl'
p928
sS'http://ontology.ihmc.us/Entity.owl'
p929
S'Entity.owl'
p930
sS'&ontologies;OCRe.owl'
p931
S'OCRe.owl'
p932
sS'http://www.semanticweb.org/ontologies/2011/1/Ontology1296772722296.owl'
p933
S'PDO_FullyAnnotated_Final_v1.0.owl'
p934
sS'http://protege.stanford.edu/ontologies/metadata/BioPortalMetadata.owl'
p935
S'BioPortalMetadata.owl'
p936
sS'http://ontology.cybershare.utep.edu/ELSEWeb/elseweb-lifemapper.owl'
p937
S'elseweb-lifemapper.owl'
p938
sS'&dtm;'
p939
S'daml-time'
p940
sS'http://menelastop.ics.upmc.fr/'
p941
S'Menelas-Top-20130715.owl'
p942
sS'http://www.bioontology.org/pma.owl'
p943
S'pma.owl'
p944
sS'http://mmisw.org/ont/odm2/MethodType'
p945
S'MethodType'
p946
sS'http://mmisw.org/ont/odm2test/relationshiptype'
p947
S'relationshiptype'
p948
sS'http://mmisw.org/ont/ioos/platform'
p949
S'platform'
p950
sS'http://www.mygrid.org.uk/ontology/JERMOntology'
p951
S'JERM_alpha1.6.owl'
p952
sS'http://ogms.googlecode.com/svn/trunk/src/ontology/ogms.owl'
p953
S'ogms.owl'
p954
sS'http://purl.obolibrary.org/obo/opl.owl'
p955
S'opl.owl'
p956
sS'http://www.wiser.pitt.edu/ontologies/SimulationScenarioDeviations.owl'
p957
S'SimulationScenarioDeviations.owl'
p958
sS'http://www.mistea.supagro.inra.fr/ontologies/2016/v4/ontofp'
p959
S'ofpe-4.1.owl'
p960
sS'http://biomanta.sourceforge.net/2007/07/psimi_instance_edit.owl'
p961
S'psimi_instance_edit.owl.1'
p962
sS'http://www.bio.cs.titech.ac.jp/~dio/dio_event.owl'
p963
S'1471-2105-9-S6-S11-S1.owl'
p964
sS'http://oaei.ontologymatching.org/2008/benchmarks/257/onto.rdf#'
p965
S'onto.rdf.12'
p966
sS'http://www.semanticweb.org/philshields/ontologies/2015/4/untitled-ontology-59'
p967
S'2015_06_16 Triage nurse.owl'
p968
sS'http://ontology.cybershare.utep.edu/ELSEWeb/elseweb-modelling.owl'
p969
S'elseweb-modelling.owl'
p970
sS'http://www.w3.org/2007/uwa/context/software.owl'
p971
S'software.owl'
p972
sS'&edamontology;BioMedicalTopics_placeholder.owl'
p973
S'BioMedicalTopics.owl'
p974
sS'http://mmisw.org/ont/secoora/water_quality'
p975
S'water_quality'
p976
sS'http://www.kp-lab.org/ontologies/CL#'
p977
S'CL.rdf-xml-3.owl'
p978
sS'http://mmisw.org/ont/lb/ti'
p979
S'ti'
p980
sS'http://mmisw.org/ont/ioos/map_societal_areas'
p981
S'map_societal_areas'
p982
sS'http://purl.org/obo/owl/'
p983
S'ro_bfo_bridge.owl.1'
p984
sS'http://www.semanticweb.org/abed/ontologies/2015/2/untitled-ontology-346'
p985
S'MyOntoServiceFull_FallDetection.owl'
p986
sS'http://mmisw.org/ont/ioos/ioos_core_cf_map'
p987
S'ioos_core_cf_map'
p988
sS'&all;'
p989
S'sweetAll.owl'
p990
sS'http://www.thezfiles.co.za/ontologies/BFORO.owl'
p991
S'BFORO.owl'
p992
sS'http://mmisw.org/ont/argo/instrument'
p993
S'instrument'
p994
sS'http://purl.obolibrary.org/obo/tto.owl'
p995
S'tto.owl'
p996
sS'http://purl.org/pav'
p997
S'pav.owl'
p998
sS'http://ontology.eil.utoronto.ca/icontact.owl'
p999
S'icontact.owl'
p1000
sS'http://www.cs.ukzn.ac.za/zubeida/ontologies/DOLCE-LiteGFO-basicMerged.owl'
p1001
S'DOLCE-LiteGFO-basicMappings.owl'
p1002
sS'http://inference-web.org/2.0/ds.owl'
p1003
S'ds.owl.1'
p1004
sS'http://mmisw.org/ont/comps/COMPSPC'
p1005
S'COMPSPC'
p1006
sS'http://mmisw.org/ont/calcofi/rptdata'
p1007
S'rptdata'
p1008
sS'http://mouse.brain-map.org/atlas/index.html'
p1009
S'ABA.owl'
p1010
sS'http://purl.obolibrary.org/obo/vario.owl'
p1011
S'vario.owl'
p1012
sS'http://ontology.neuinfo.org/NIF/BiomaterialEntities/NIF-Cell.owl'
p1013
S'NIF-Cell.owl'
p1014
sS'http://ontology.ihmc.us/Policy.owl'
p1015
S'Policy.owl'
p1016
sS'http://www.semanticweb.org/dimitrios/ontologies/2013/2/untitled-ontology-2'
p1017
S'cabro.owl'
p1018
sS'http://mmisw.org/ont/CUAHSI/WaterQuality'
p1019
S'WaterQuality'
p1020
sS'&project;'
p1021
S'project.owl'
p1022
sS'http://purl.org/nbirn/birnlex/ontology/OBO_annotation_properties.owl'
p1023
S'OBO_annotation_properties.owl.4'
p1024
sS'http://anobase.vectorbase.org/mirnao/mirnao.owl'
p1025
S'RackMultipart20131210-10031-3l5z92.xml'
p1026
sS'http://purl.obolibrary.org/obo/iao.owl'
p1027
S'iao-merged.owl'
p1028
sS'http://mmisw.org/ont/ioos/swe_element_type'
p1029
S'swe_element_type'
p1030
sS'http://mmisw.org/ont/ooi_epe/sites'
p1031
S'sites'
p1032
sS'http://www.semanticweb.org/jgraybeal/ontologies/2015/7/cedarvaluesets'
p1033
S'CEDAR_Value_Sets.owl'
p1034
sS'http://mmisw.org/ont/trdi/glossary'
p1035
S'glossary'
p1036
sS'http://www.architexturez.in/+/--c--/caad.3.0.rdf.owl'
p1037
S'caad.3.0.rdf.owl'
p1038
sS'http://mmisw.org/ont/calcofi/prododata'
p1039
S'prododata'
p1040
sS'http://mmisw.org/ont/BOEM/studyFootprinting'
p1041
S'studyFootprinting'
p1042
sS'http://mmisw.org/ont/mvco/mvco'
p1043
S'mvco'
p1044
sS'http://www.ifomis.org/bfo/1.1'
p1045
S'bfo-1.1-el.owl'
p1046
sS'http://www.w3.org/2002/03owlt/jjc/t055'
p1047
S't055.rdf'
p1048
sS'http://mmisw.org/ont/CUAHSI/LandCompound'
p1049
S'LandCompound'
p1050
sS'http://mmisw.org/ont/mvco/qcflag'
p1051
S'qcflag'
p1052
sS'http://www.ICPS/ontologies/AmelioratingActions.owl'
p1053
S'AmelioratingActions.owl'
p1054
sS'http://onstr.googlecode.com/svn/tags/currentRelease/2014-09-03/ONSTR.owl'
p1055
S'ONSTR.owl'
p1056
sS'&swoogle;'
p1057
S'swoogle.owl'
p1058
sS'http://localhost/Institute'
p1059
S'instOntology.owl'
p1060
sS'http://def.isotc211.org/iso19115/2006/CitationAndResponsiblePartyInformation'
p1061
S'19115_CI.xml'
p1062
sS'http://swat.cse.lehigh.edu/onto/PoliticianStateOntology_03.owl'
p1063
S'PoliticianStateOntology_03.owl'
p1064
sS'http://purl.obolibrary.org/obo/olatdv.owl'
p1065
S'olatdv.owl'
p1066
sS'http://ontology.neuinfo.org/NIF/Function/NIF-Function.owl'
p1067
S'NIF-Function.owl.1'
p1068
sS'http://www.bmi.utah.edu/ontologies/2015/hfo'
p1069
S'hfo.owl'
p1070
sS'&event;'
p1071
S'event.owl'
p1072
sS'http://www.cs.nmsu.edu/~epontell/Ontologies/phylogenetic_methods.owl'
p1073
S'phylogenetic_methods.owl'
p1074
sS'http://www.isi.edu/ikcap/Wingse/fileOntology.owl'
p1075
S'fileOntology.owl'
p1076
sS'http://scai.fraunhofer.de/MSOntology'
p1077
S'MSontologyfinal_BFOversion.owl'
p1078
sS'http://mmisw.org/ont/CUAHSI/SubstrateHydrologicCore'
p1079
S'SubstrateHydrologicCore'
p1080
sS'http://purl.obolibrary.org/obo/pw.owl'
p1081
S'pw.owl'
p1082
sS'http://mmisw.org/ont/wod/qualityFlag'
p1083
S'qualityFlag.1'
p1084
sS'&PICO2.owl;'
p1085
S'PICO2.owl'
p1086
sS'http://cui.unige.ch/citygml/2.0/'
p1087
S'citygml2.0.owl'
p1088
sS'&PHIL;'
p1089
S'philosurfical.owl'
p1090
sS'&obo;VICO_merged.owl'
p1091
S'vico_merged.owl'
p1092
sS'http://ccdb.ucsd.edu/NIF/BIRNLex_annotation_properties.owl'
p1093
S'BIRNLex_annotation_properties.owl.1'
p1094
sS'http://swat.cse.lehigh.edu/onto/univ-bench.owl'
p1095
S'univ-bench.owl'
p1096
sS'http://purl.org/stemnet/MHC'
p1097
S'MaHCO.owl'
p1098
sS'http://purl.obolibrary.org/obo/pato.owl'
p1099
S'pato.owl'
p1100
sS'&evt;'
p1101
S'event'
p1102
sS'&obo;oae.owl/'
p1103
S'oae.owl'
p1104
sS'&Backend;BIRNLex_annotation_properties.owl'
p1105
S'BIRNLex_annotation_properties.owl'
p1106
sS'http://autopoiesis.foi.hr/project.php?name=KM+-+Tim+30'
p1107
S'owlexport.php?proorg=KM+-+Tim+30'
p1108
sS'http://staff.science.uva.nl/~lpost/SemanticModels/TFBS.owl'
p1109
S'TFBS.owl'
p1110
sS'http://www.semanticweb.org/ontologies/2015/0/computercluster.owl'
p1111
S'computercluster.owl'
p1112
sS'http://www.cs.ukzn.ac.za/zubeida/ontologies/TemporalRelationsBFOMerged.owl'
p1113
S'TemporalRelationsBFOMerged.owl'
p1114
sS'&obo;in/ino.owl'
p1115
S'INO.owl'
p1116
sS'http://www.ICPS/ontologies/Clothing.owl'
p1117
S'Clothing.owl'
p1118
sS'http://mmisw.org/ont/odm2test/samplingfeaturetype'
p1119
S'samplingfeaturetype'
p1120
sS'http://ccdb.ucsd.edu/NIF/NIF-Dysfunction.owl'
p1121
S'NIF-Dysfunction.owl'
p1122
sS'&cpr;'
p1123
S'CPR.owl'
p1124
sS'http://www.mathiswebs.com/ontology/svg_ont.owl'
p1125
S'svg_ont.owl'
p1126
sS'http://mmisw.org/ont/compass/instruments_v3'
p1127
S'instruments_v3'
p1128
sS'http://mmisw.org/ont/mvco/historyEventList'
p1129
S'historyEventList'
p1130
sS'http://iridl.ldeo.columbia.edu/ontologies/iriterms.owl'
p1131
S'iriterms.owl'
p1132
sS'http://www.ebi.ac.uk/medo/'
p1133
S'experimental_design_ontology_1.0.owl'
p1134
sS'&mecomp;'
p1135
S'index.html.10'
p1136
sS'&obo;clo.owl'
p1137
S'clo_merged.owl'
p1138
sS'&gen;'
p1139
S'genont.owl.rdf'
p1140
sS'http://purl.obolibrary.org/obo/go.owl'
p1141
S'go.owl'
p1142
sS'http://purl.obolibrary.org/obo/rs.owl'
p1143
S'rs.owl'
p1144
sS'http://neurolog.unice.fr/ontoneurolog/v3.0/ontoneurolog-mental-state-assessment.owl'
p1145
S'ontoneurolog-mental-state-assessment.owl'
p1146
sS'http://www.metadat.com/xml-cart/BL2/schemas/payload/'
p1147
S'DocumentFolderSchemata_2.rdf'
p1148
sS'http://schema.rdfs.org/all'
p1149
S'schema.owl'
p1150
sS'http://www.owl-ontologies.com/GeographicalRegion.owl'
p1151
S'GeographicalRegion.owl'
p1152
sS'http://biomanta.sourceforge.net/2007/06/psimi_instance_edit.owl'
p1153
S'psimi_instance_edit.owl'
p1154
sS'http://livercancer.imbi.uni-heidelberg.de/ccont'
p1155
S'CellCultureOntology.owl'
p1156
sS'http://mmisw.org/ont/cwi/dm'
p1157
S'dm'
p1158
sS'http://purl.org/NET/c4dm/keys.owl'
p1159
S'keys.owl'
p1160
sS'http://www.owl-ontologies.com/Ontology1298855822.owl'
p1161
S'QIBO_OWL1.owl'
p1162
sS'http://swat.cse.lehigh.edu/resources/onto/nobel.owl'
p1163
S'nobel.owl.1'
p1164
sS'http://geni-orca.renci.org/owl/collections.owl'
p1165
S'collections.owl.1'
p1166
sS'http://mmisw.org/ont/noaa/cmecs'
p1167
S'cmecs'
p1168
sS'http://kmi.open.ac.uk/projects/smartproducts/ontologies/food.owl'
p1169
S'food.owl'
p1170
sS'http://www.workingontologist.org/Examples/Chapter10/questionnaire.owl'
p1171
S'questionnaire.owl.1'
p1172
sS'http://proteomeontology.org/cpo.owl'
p1173
S'CPTAC_alpha2.owl'
p1174
sS'http://www.ontologydesignpatterns.org/ont/lmm/LMM_L1.owl'
p1175
S'LMM_L1.owl'
p1176
sS'http://www.owl-ontologies.com/BiodiversityOntologyFull.owl'
p1177
S'Ontobio_01072013.owl'
p1178
sS'http://mre.zcu.cz/ontology/nihss.owl'
p1179
S'nihss.owl'
p1180
sS'http://www.tssg.org/public/ontologies/omg/qvt/2005/EMOF.owl'
p1181
S'EMOF.owl'
p1182
sS'http://www.co-ode.org/ontologies/mini-bio/basic-vertebrate-gross-anatomy.owl'
p1183
S'vertebrate-gross-anatomy.owl.1'
p1184
sS'http://www.fao.org/aims/aos/fi/vessels_GT_GRT_ISSCFV_v1_2.owl'
p1185
S'vessels_GT_GRT_ISSCFV_v1_2.owl'
p1186
sS'&animal;'
p1187
S'biolAnimal.owl'
p1188
sS'http://mmisw.org/ont/q2o/testQ2ODemo'
p1189
S'testQ2ODemo'
p1190
sS'http://mmisw.org/ont/mmi/systemtype'
p1191
S'systemtype'
p1192
sS'http://purl.obolibrary.org/obo/go/extensions/go-plus.owl'
p1193
S'go-plus.owl.crdownload.xml'
p1194
sS'http://ontology.eil.utoronto.ca/open311.owl'
p1195
S'open311.owl'
p1196
sS'http://purl.obolibrary.org/obo/oba.owl'
p1197
S'oba.owl'
p1198
sS'http://www.aiai.ed.ac.uk/resources/go/obo.owl#'
p1199
S'obo.owl.1'
p1200
sS'http://mmisw.org/ont/secoora/wave'
p1201
S'wave'
p1202
sS'http://mmisw.org/ont/mmi/cfonmap'
p1203
S'cfonmap'
p1204
sS'http://mimi.case.edu/ontologies/2009/1/UnitsOntology'
p1205
S'UnitsOntology-SDO.owl'
p1206
sS'http://www.cancerdata.org/roo/'
p1207
S'ROO.owl'
p1208
sS'http://mmisw.org/ont/CUAHSI/WaterQualityCore2'
p1209
S'WaterQualityCore2'
p1210
sS'http://lsdis.cs.uga.edu/projects/glycomics/2006/GlycO'
p1211
S'GlycO_0_9.owl'
p1212
sS'http://www.enanomapper.net/ontologies/enanomapper.owl'
p1213
S'enanomapper.owl'
p1214
sS'http://www.tssg.org/public/ontologies/omg/uml/2004/Kernel.owl'
p1215
S'Kernel.owl'
p1216
sS'http://purl.obolibrary.org/obo/omp.owl'
p1217
S'omp.owl'
p1218
sS'http://iridl.ldeo.columbia.edu/ontologies/iribib.owl'
p1219
S'iribib.owl'
p1220
sS'http://www.lia.deis.unibo.it/research/Proteus/ontologies/CoalitionPolicy.owl'
p1221
S'CoalitionPolicy.owl'
p1222
sS'http://www.w3.org/2003/06/sw-vocab-status/ns#'
p1223
S'ns.1'
p1224
sS'http://www.semanticweb.org/ontologies/2015/0/disorderscluster.owl'
p1225
S'disorderscluster.owl'
p1226
sS'http://oaei.ontologymatching.org/2007/benchmarks/266/onto.rdf#'
p1227
S'onto.rdf.7'
p1228
sS'&iwsearch;'
p1229
S'iwsearch.owl.2'
p1230
sS'http://ontology.ihmc.us/Action.owl'
p1231
S'Action.owl'
p1232
sS'http://www.owl-ontologies.com/2008/ZS.owl'
p1233
S'leo.owl'
p1234
sS'http://www.owl-ontologies.com/Ontology1172270693.owl'
p1235
S'FamilyHealthHistory.owl'
p1236
sS'http://mmisw.org/ont/odm2/SiteType'
p1237
S'SiteType'
p1238
sS'http://rdf.adalab-project.org/ontology/adalab/'
p1239
S'AdaLab.owl'
p1240
sS'http://mmisw.org/ont/csdms/assumption'
p1241
S'assumption'
p1242
sS'http://ontology.ihmc.us/Actor.owl'
p1243
S'Actor.owl'
p1244
sS'http://www.nbirn.net/birnlex/1.0/OBO_annotation_properties.owl'
p1245
S'OBO_annotation_properties.owl'
p1246
sS'http://mmisw.org/ont/ioos/waterLevel'
p1247
S'waterLevel'
p1248
sS'&mepack;'
p1249
S'index.html.13'
p1250
sS'http://purl.org/spar/scoro/'
p1251
S'2014-05-21-SCoRO-1_8_4_1.owl'
p1252
sS'http://mmisw.org/ont/ioos/CO-OPSqcFlags'
p1253
S'CO-OPSqcFlags'
p1254
sS'http://internano.org/taxonomy'
p1255
S'internano.owl'
p1256
sS'http://www.ICPS/ontologies/PatientOutcomes'
p1257
S'PatientOutcomes.owl'
p1258
sS'http://purl.org/iot/ontology/fiesta-iot'
p1259
S'fiesta-iot.owl'
p1260
sS'http://mmisw.org/ont/ndbc/waveQChard'
p1261
S'waveQChard'
p1262
sS'http://www.ICPS/ontologies/Furniture.owl'
p1263
S'Furniture.owl'
p1264
sS'http://purl.uni-rostock.de/comodi/comodi'
p1265
S'comodi.owl'
p1266
sS'http://ontology.neuinfo.org/NIF/1.0/BiomaterialEntities/cellular_component.owl'
p1267
S'cellular_component.owl.2'
p1268
sS'http://purl.obolibrary.org/obo/uberon.owl'
p1269
S'uberon.owl'
p1270
sS'http://mmisw.org/ont/noaa/gts'
p1271
S'gts'
p1272
sS'http://www.limics.org/hrdo/HRDO.owl'
p1273
S'hrdo.owl'
p1274
sS'http://www.cvrgrid.org/ontologies/Electrophysiology'
p1275
S'CVRG_EPOntology.owl'
p1276
sS'http://dataportal.ucar.edu/owl/vsto.owl'
p1277
S'vsto.owl.1'
p1278
sS'http://mmisw.org/ont/ioos/sector'
p1279
S'sector'
p1280
sS'http://www.tssg.org/public/ontologies/omg/qvt/2005/QVT.owl'
p1281
S'QVT.owl'
p1282
sS'http://www.cs.ukzn.ac.za/zubeida/ontologies/SpatialRelationsBFOMerged.owl'
p1283
S'SpatialRelationsBFOMerged.owl'
p1284
sS'http://mmisw.org/ont/ooi_epe/science_mapping'
p1285
S'science_mapping'
p1286
sS'http://iridl.ldeo.columbia.edu/ontologies/iridl.owl'
p1287
S'iridl.owl'
p1288
sS'http://www.architexturez.in/+/--c--/lexicon_core.rdf.owl'
p1289
S'lexicon_core.rdf.owl'
p1290
sS'http://ontology.neuinfo.org/NIF/Dysfunction/NIF-Dysfunction.owl'
p1291
S'NIF-Dysfunction.owl.1'
p1292
sS'&IDODEN;IDODEN'
p1293
S'idoden_beta0.15b.owl'
p1294
sS'http://purl.obolibrary.org/obo/PDRO.owl'
p1295
S'pdro.owl'
p1296
sS'&ontologies;CogPOver2010.owl'
p1297
S'CogPO12142010.owl'
p1298
sS'https://bitbucket.org/PlantExpAssay/ontology/raw/v0.1/PipelinePatterns.owl'
p1299
S'PipelinePatterns.owl'
p1300
sS'http://purl.bioontology.org/net/brunel/panda'
p1301
S'PANDA.owl'
p1302
sS'http://www.ICPS/ontologies/Medication.owl'
p1303
S'Medication.owl'
p1304
sS'http://mmisw.org/ont/mmi/general'
p1305
S'general.1'
p1306
sS'http://mmisw.org/ont/ird/qualityFlag'
p1307
S'qualityFlag'
p1308
sS'http://www.w3.org/2002/03owlt/sameClassAs/conclusions002'
p1309
S'conclusions002.rdf.28'
p1310
sS'http://mmisw.org/ont/nasa_pace/phytopia_mapping'
p1311
S'phytopia_mapping'
p1312
sS'&obo;omrse.owl'
p1313
S'omrse.owl'
p1314
sS'http://swat.cse.lehigh.edu/resources/onto/dblp.owl'
p1315
S'dblp.owl.2'
p1316
sS'http://oaei.ontologymatching.org/2008/benchmarks/266/onto.rdf#'
p1317
S'onto.rdf.8'
p1318
sS'http://mmisw.org/ont/nasa_pace/pigments'
p1319
S'pigments'
p1320
sS'http://www.isi.edu/ikcap/Wingse/workflowOntology.owl'
p1321
S'workflowOntology.owl'
p1322
sS'http://mmisw.org/ont/CUAHSI/AquaBioCore'
p1323
S'AquaBioCore'
p1324
sS'http://mmisw.org/ont/ecs/device_map'
p1325
S'device_map'
p1326
sS'http://www.owl-ontologies.com/Ontology1195292020.owl'
p1327
S'ODGI.owl'
p1328
sS'http://example.com/owl/families/import/familyImport17/'
p1329
S'familyImport18.xml'
p1330
sS'http://autopoiesis.foi.hr/project.php?name=KM+-+Tim+35'
p1331
S'owlexport.php?proorg=KM+-+Tim+35'
p1332
sS'http://mmisw.org/ont/isdm/datatype'
p1333
S'datatype'
p1334
sS'http://purl.obolibrary.org/obo/envo.owl'
p1335
S'envo.owl'
p1336
sS'http://purl.obolibrary.org/obo/obi/webService.owl'
p1337
S'webService.owl'
p1338
sS'&units;'
p1339
S'sciUnits.owl'
p1340
sS'http://lsdis.cs.uga.edu/semdis/entertainment'
p1341
S'ontology_12.owl'
p1342
sS'http://www.cs.ukzn.ac.za/zubeida/ontologies/BFOROTemporalRelationsMerged.owl'
p1343
S'BFOROTemporalRelationsMerged.owl'
p1344
sS'http://www.biopax.org/release/biopax-level1.owl'
p1345
S'bca00030.owl'
p1346
sS'http://mmisw.org/ont/nasa_pace/enivronmental_mapping'
p1347
S'enivronmental_mapping'
p1348
sS'http://purl.obolibrary.org/obo/wbls.owl'
p1349
S'wbls.owl'
p1350
sS'&wob;'
p1351
S'wob.owl.1'
p1352
sS'http://mmisw.org/ont/CUAHSI/OceanCore'
p1353
S'OceanCore'
p1354
sS'http://www.umweltbundesamt.at/fileadmin/site/daten/Ontologien/CEDEX/owl/cedexAuxilliary.owl'
p1355
S'cedexAuxilliary.owl.1'
p1356
sS'http://www.kp-lab.org/ontologies/ss#'
p1357
S'SSpApplication.rdf-xml.owl'
p1358
sS'http://mmisw.org/ont/trdi/software'
p1359
S'software'
p1360
sS'http://identifiers.org/mamo'
p1361
S'mamo-xml.owl'
p1362
sS'http://www.semanticweb.org/alan/ontologies/2013/8/untitled-ontology-9'
p1363
S'radonc_ontology.owl'
p1364
sS'https://carre.kmi.open.ac.uk/ontology/lifestyle.owl'
p1365
S'lifestyle.owl'
p1366
sS'http://www.w3.org/2008/content'
p1367
S'content.rdf'
p1368
sS'http://webprotege.stanford.edu/project/9h3YLKYo5AEx5tLXEXroVP'
p1369
S'CSOontology.owl'
p1370
sS'urn:x-hp:eg/'
p1371
S'owlDemoSchema.xml'
p1372
sS'http://neurolog.unice.fr/ontoneurolog/v3.0/ontoneurolog-dataset-processing.owl'
p1373
S'ontoneurolog-dataset-processing.owl'
p1374
sS'http://mmisw.org/ont/Technology/ComputerNetworks'
p1375
S'ComputerNetworks'
p1376
sS'http://purl.obolibrary.org/obo/ido.owl'
p1377
S'ido-merged.owl'
p1378
sS'http://www.globalnames.org/ontology/gni.owl'
p1379
S'gni.owl'
p1380
sS'http://www.co-ode.org/ontologies/galen'
p1381
S'full-galen.owl'
p1382
sS'http://purl.obolibrary.org/obo/sibo.owl'
p1383
S'sibo.owl'
p1384
sS'http://purl.obofoundry.org/obo/obi.owl'
p1385
S'OBI.owl.3'
p1386
sS'http://www.ccs.neu.edu/home/kenb/STO.owl'
p1387
S'STO.owl'
p1388
sS'http://mmisw.org/ont/CUAHSI/SurfHydrosyn'
p1389
S'SurfHydrosyn'
p1390
sS'http://www.lucs.lu.se/brainOntology'
p1391
S'BrainSchema.owl'
p1392
sS'http://mmisw.org/ont/q2o/test'
p1393
S'test'
p1394
sS'http://purl.obolibrary.org/obo/nbo.owl'
p1395
S'behavior.owl'
p1396
sS'http://ncicb.nci.nih.gov/xml/owl/EVS/ctcae.owl'
p1397
S'CTCAE_4.03_2010-06-14.owl'
p1398
sS'http://mmisw.org/ont/cf/areatype'
p1399
S'areatype'
p1400
sS'http://www.ontologydesignpatterns.org/cp/owl/informationrealization.owl'
p1401
S'informationrealization.owl'
p1402
sS'http://www.w3.org/2002/03owlt/I4.6/conclusions003'
p1403
S'conclusions003.rdf.1'
p1404
sS'http://www.semanticweb.org/ontologies/2009/9/Ontology1255357986125.owl'
p1405
S'BRCO_Edition_v3.0.owl'
p1406
sS'http://www.semanticweb.org/ontologies/2013/2/OPE.owl'
p1407
S'OPE.owl'
p1408
sS'http://purl.obolibrary.org/obo/to.owl'
p1409
S'to.owl'
p1410
sS'http://mmisw.org/ont/fnmoc/fnmoc'
p1411
S'fnmoc'
p1412
sS'http://mmisw.org/ont/r2r/multibeam'
p1413
S'multibeam'
p1414
sS'http://www.ICPS/ontologies/HospitalEquipment.owl'
p1415
S'HospitalEquipment.owl'
p1416
sS'http://msi-ontology.sourceforge.net/ontology/NMR.owl'
p1417
S'NMR.owl'
p1418
sS'&space;'
p1419
S'space.owl'
p1420
sS'&units.owl;'
p1421
S'units.owl'
p1422
sS'http://spinrdf.org/sp'
p1423
S'sp'
p1424
sS'http://www.cs.ukzn.ac.za/zubeida/ontologies/TemporalRelationsBFOMappings.owl'
p1425
S'TemporalRelationsBFOMappings.owl'
p1426
sS'http://www.semanticweb.org/shoshana/ontologies/2014/8/untitled-ontology-8'
p1427
S'esfo.new.owl'
p1428
sS'http://mmisw.org/ont/mmi/tool'
p1429
S'tool'
p1430
sS'http://www.mistea.supagro.inra.fr/ontologies/2016/v1/afeo'
p1431
S'afeo-4.3.owl'
p1432
sS'&math;'
p1433
S'math.owl'
p1434
sS'http://purl.org/cpr/0.5#'
p1435
S'problem-oriented-medical-record.owl'
p1436
sS'&obo;omit.owl'
p1437
S'omit.owl'
p1438
sS'http://www.daml.org/services/owl-s/1.1/generic/ObjectList.owl'
p1439
S'ObjectList.owl'
p1440
sS'http://ontology.neuinfo.org/NIF/BiomaterialEntities/cellular_component.owl'
p1441
S'cellular_component.owl.4'
p1442
sS'http://opendata.inra.fr/resources/hSC9z#'
p1443
S'TRANSMAT.owl'
p1444
sS'http://daml.umbc.edu/ontologies/webofbelief/imports/foaf-dl.owl'
p1445
S'foaf-dl.owl'
p1446
sS'http://mmisw.org/ont/csdms/quantity'
p1447
S'quantity'
p1448
sS'http://purl.org/net/OCRe/statistics.owl'
p1449
S'statistics.owl'
p1450
sS'http://www.cs.ukzn.ac.za/zubeida/ontologies/FunctionalParticipationGFO-basicMerged.owl'
p1451
S'FunctionalParticipationGFO-basicMerged.owl'
p1452
sS'http://mmisw.org/ont/mmi/platform'
p1453
S'platform.2'
p1454
sS'http://autopoiesis.foi.hr/project.php?name=Baze+Podataka+-+FOI'
p1455
S'owlexport.php?proorg=Baze+Podataka+-+FOI'
p1456
sS'http://www.lia.deis.unibo.it/research/Proteus/ontologies/InstantiateState.owl'
p1457
S'Coalition.owl'
p1458
sS'http://mmisw.org/ont/ioos/marine_biogeography'
p1459
S'marine_biogeography'
p1460
sS'http://mmisw.org/ont/nasa_pace/taxonomy'
p1461
S'taxonomy'
p1462
sS'http://www.nada.kth.se/~mehrana/Delegation.owl'
p1463
S'Delegation.owl'
p1464
sS'http://geni-orca.renci.org/owl/topology.owl'
p1465
S'topology.owl'
p1466
sS'http://posccaesar.org/rdl/'
p1467
S'RDL.owl.crdownload.xml'
p1468
sS'http://mmisw.org/ont/noaa/noaa-waves'
p1469
S'noaa-waves'
p1470
sS'http://epoch.stanford.edu/ClinicalTrialOntology.owl'
p1471
S'ClinicalTrialOntology.owl'
p1472
sS'http://www.biopax.org/release/biopax-level3.owl'
p1473
S'biopax-level3.owl'
p1474
sS'http://purl.org/sig/ont/fma/'
p1475
S'fma.owl'
p1476
sS'http://mmisw.org/ont/isdm/instruments'
p1477
S'instruments.1'
p1478
sS'http://mmisw.org/ont/CUAHSI/SurfaceHydrologicCore'
p1479
S'SurfaceHydrologicCore'
p1480
sS'http://purl.bioontology.org/ontology/phenX/'
p1481
S'phenXOnto_v1_2.owl'
p1482
sS'http://mmisw.org/ont/CUAHSI/SubstrateHydrologicSyn'
p1483
S'SubstrateHydrologicSyn'
p1484
sS'http://mmisw.org/ont/isro/INSAT3DM'
p1485
S'INSAT3DM.1'
p1486
sS'http://www.imgt.org/download/IMGT-ONTOLOGY/IMGT-ONTOLOGY-v1-0-2.owl'
p1487
S'IMGT-ONTOLOGY-v1-0-2.owl'
p1488
sS'http://purl.org/net/OCRe/generic.owl'
p1489
S'generic.owl'
p1490
sS'&obo;OGI.owl'
p1491
S'OGI.owl'
p1492
sS'http://www.estrellaproject.org/lkif-core/mereology.owl'
p1493
S'mereology.owl'
p1494
sS'http://purl.org/olia/ubyCat.owl'
p1495
S'ubyCat.owl'
p1496
sS'http://semantic-dicom.org/dcm'
p1497
S'dicom.owl'
p1498
sS'http://www.cs.ukzn.ac.za/zubeida/ontologies/BFOROGFOMerged.owl'
p1499
S'BFOROGFOMerged.owl'
p1500
sS'http://www.semanticweb.org/ontologies/epo.owl'
p1501
S'epo.owl'
p1502
sS'http://mmisw.org/ont/mbari/keyword'
p1503
S'keyword'
p1504
sS'http://www.rddl.org/'
p1505
S'rddl.owl'
p1506
sS'http://purl.obolibrary.org/obo/omiabis.owl'
p1507
S'omiabis.owl'
p1508
sS'http://mmisw.org/ont/nasa_pace/pigments2'
p1509
S'pigments2'
p1510
sS'http://delicias.dia.fi.upm.es/ontologies/ObjectWithStates.owl'
p1511
S'ObjectWithStates.owl'
p1512
sS'http://purl.org/incf/ontology/Computational_Neurosciences/cno_alpha.owl'
p1513
S'CNO_05.owl'
p1514
sS'file:/C:/autism_ontology_svn/trunk/ontologies/manual/ASDPhenotypeOntology_Public.owl'
p1515
S'ASDPhenotypeOntology_Public.owl'
p1516
sS'&dev;'
p1517
S'device'
p1518
sS'http://www.demcare.eu/ontologies/contextdescriptor.owl'
p1519
S'contextdescriptor.owl'
p1520
sS'http://purl.dataone.org/odo/ECSO_'
p1521
S'd1-ECSO.owl'
p1522
sS'http://www.cs.ukzn.ac.za/zubeida/ontologies/SpatialRelationsBFOMappings.owl'
p1523
S'SpatialRelationsBFOMappings.owl'
p1524
sS'http://swat.cse.lehigh.edu/resources/onto/politicianbill.owl'
p1525
S'politicianbill.owl'
p1526
sS'http://ontology.eil.utoronto.ca/ISO37120.owl'
p1527
S'ISO37120.owl'
p1528
sS'&owl2;agentrole.owl'
p1529
S'agentrole.owl'
p1530
sS'http://oaei.ontologymatching.org/2009/benchmarks/257/onto.rdf#'
p1531
S'onto.rdf.3'
p1532
sS'&mebase;'
p1533
S'index.html.5'
p1534
sS'&nres;'
p1535
S'matrNaturalResource.owl'
p1536
sS'http://www.w3.org/2002/03owlt/jjc/t025'
p1537
S't025.rdf'
p1538
sS'http://www.w3.org/2001/tag/2006/ext-vers/ext-vers-uml'
p1539
S'ext-vers-uml.1'
p1540
sS'http://mmisw.org/ont/ioos/map_category'
p1541
S'map_category'
p1542
sS'http://mmisw.org/ont/nasa_pace/pigment_mapping'
p1543
S'pigment_mapping'
p1544
sS'http://www.owl-ontologies.com/REPO.owl'
p1545
S'RepO.owl'
p1546
sS'http://cs.man.ac.uk/~sjupp/ontologies/cell_type.owl'
p1547
S'condition_2.owl.1'
p1548
sS'http://www.cs.ukzn.ac.za/zubeida/ontologies/SpatialRelationsGFOMapping.owl'
p1549
S'SpatialRelationsGFOMerged.owl'
p1550
sS'&petr;'
p1551
S'matrRock.owl'
p1552
sS'http://gov.genealogy.net/ontology.owl'
p1553
S'ontology.owl'
p1554
sS'http://oaei.ontologymatching.org/2006/benchmarks/266/onto.rdf#'
p1555
S'onto.rdf.2'
p1556
sS'http://chu-rouen.fr/cismef/BHN'
p1557
S'RackMultipart20131119-17178-uc75i6.xml'
p1558
sS'http://mmisw.org/ont/csdms/object'
p1559
S'object'
p1560
sS'http://mmisw.org/ont/CUAHSI/OceanSynthesis'
p1561
S'OceanSynthesis'
p1562
sS'http://www.dispedia.de/'
p1563
S'dispediaCoreComplete.xml'
p1564
sS'http://mmisw.org/ont/ndbc/qualityFlag_hard'
p1565
S'qualityFlag_hard'
p1566
sS'http://geni-orca.renci.org/owl/layer.owl'
p1567
S'layer.owl'
p1568
sS'http://mmisw.org/ont/secoora/category'
p1569
S'category.1'
p1570
sS'http://reactionontology.org/piero/'
p1571
S'piero.owl'
p1572
sS'http://www.uv.es/~agentes/SVECore'
p1573
S'SVECore.owl'
p1574
sS'http://swat.cse.lehigh.edu/resources/onto/nsfaward.owl'
p1575
S'nsfaward.owl'
p1576
sS'http://www.umweltbundesamt.at/fileadmin/site/daten/Ontologien/CEDEX/owl/cedexMeta.owl'
p1577
S'cedexMeta.owl'
p1578
sS'http://purl.org/net/SMARTprotocol'
p1579
S'SP_document_workflow_V3.0.owl'
p1580
sS'http://ontology.neuinfo.org/NIF/Backend/obo-foundry-core.owl'
p1581
S'obo-foundry-core.owl'
p1582
sS'http://iridl.ldeo.columbia.edu/ontologies/rdfcache.owl'
p1583
S'rdfcache.owl.1'
p1584
sS'http://www.csiro.au/Ontologies/2009/SensorOntology.owl'
p1585
S'SensorOntology20090320.owl.xml'
p1586
sS'http://rs.tdwg.org/ontology/voc/Specimen'
p1587
S'specimen.rdf'
p1588
sS'http://www.semanticweb.org/igomez/ontologies/2013/11/untitled-ontology-6'
p1589
S'OntoWAWO+.owl'
p1590
sS'http://swat.cse.lehigh.edu/resources/onto/university.owl'
p1591
S'university.owl'
p1592
sS'http://www.cs.ukzn.ac.za/zubeida/ontologies/SpatialRelationsGFO-basicMappings.owl'
p1593
S'SpatialRelationsGFO-basicMappings.owl'
p1594
sS'https://bitbucket.org/PlantExpAssay/ontology/raw/v0.1/PlantExperimentalAssayOntology.owl'
p1595
S'PlantExperimentalAssayOntology.owl'
p1596
sS'&PICO3.owl;'
p1597
S'PICO3.owl'
p1598
sS'http://www.atl.lmco.com/projects/ontology/ontologies/network/networkA.owl'
p1599
S'networkA.owl'
p1600
sS'http://www.ifomis.org/acgt/1.0'
p1601
S'document13.owl'
p1602
sS'http://www.ICPS/ontologies/Anatomy.owl'
p1603
S'Anatomy.owl'
p1604
sS'http://amigo.gforge.inria.fr/owl/Amigo.owl'
p1605
S'Amigo.owl'
p1606
sS'http://purl.obolibrary.org/obo/vto.owl'
p1607
S'vto.owl'
p1608
sS'http://mmisw.org/ont/ooi_epe/parent'
p1609
S'parent'
p1610
sS'&assert;'
p1611
S'assertion.owl'
p1612
sS'http://mmisw.org/ont/secoora/coordinate'
p1613
S'coordinate'
p1614
sS'http://www.lia.deis.unibo.it/research/MIDAS/Ontologies/InformationOntology.owl'
p1615
S'InformationOntology.owl'
p1616
sS'http://purl.obolibrary.org/obo/TEMP'
p1617
S'vt.owl'
p1618
sS'http://purl.org/spar/fabio/'
p1619
S'2016-04-19-fabio-1_9_2.owl'
p1620
sS'http://bibframe.org/vocab/'
p1621
S'vocab.rdf'
p1622
sS'http://www.ontologydesignpatterns.org/cp/owl/participation.owl'
p1623
S'participation.owl'
p1624
sS'https://www.codamono.com/biointerchange/gfvo'
p1625
S'gfvo_bioportal.xml'
p1626
sS'http://www.w3.org/2002/03owlt/Class/conclusions001'
p1627
S'conclusions001.rdf.1'
p1628
sS'http://sw.deri.org/~zubeida/ROMULUS/ontologies/BFOGFO-basicMerged.owl'
p1629
S'BFOGFO-basicMerged.owl'
p1630
sS'http://www.cvrgrid.org/files/ECGOntologyv1.owl'
p1631
S'ECGOntologyv1.owl'
p1632
sS'http://www.w3.org/2011/http'
p1633
S'http'
p1634
sS'http://purl.org/net/miCLIP'
p1635
S'aaaaa.owl'
p1636
sS'http://mmisw.org/ont/ooi_epe/science'
p1637
S'science'
p1638
sS'&phys;'
p1639
S'phys.owl'
p1640
sS'http://swpatho.ag-nbi.de/context/naics.owl'
p1641
S'naics.owl'
p1642
sS'http://mmisw.org/ont/cf/parameter'
p1643
S'parameter'
p1644
sS'http://ontology.ihmc.us/Place.owl'
p1645
S'Place.owl'
p1646
sS'http://purl.jp/bio/11/meo/'
p1647
S'meo_v07.owl'
p1648
sS'http://www.w3.org/2002/03owlt/jjc/t037'
p1649
S't037.rdf'
p1650
sS'http://purl.bioontology.org/ontology/BCTT#'
p1651
S'out15.owl'
p1652
sS'http://mmisw.org/ont/bodc/MapSeaVoxPlatforms2IOOSandRDIPlatforms'
p1653
S'MapSeaVoxPlatforms2IOOSandRDIPlatforms'
p1654
sS'http://mmisw.org/ont/CUAHSI/AtmosphericHydrologicCompound'
p1655
S'AtmosphericHydrologicCompound'
p1656
sS'http://purl.obolibrary.org/obo/zfs.owl'
p1657
S'zfs.owl'
p1658
sS'&link-obo;'
p1659
S'link-obo.owl'
p1660
sS'http://www.owl-ontologies.com/Ontology1181490123.owl'
p1661
S'Uncertainty.owl.2'
p1662
sS'http://www.polowinski.de/ontologies/Sumo-OWL-Fixed-Version-2003.owl'
p1663
S'Sumo-OWL-Fixed-Version-2003.owl'
p1664
sS'&inverseRoles;'
p1665
S'ISO-15926-2_2003_inverseRoles.xml'
p1666
sS'http://www.ontologydesignpatterns.org/ont/dul/DUL.owl'
p1667
S'DUL.owl'
p1668
sS'http://who.int/ictm/signsAndSymptoms'
p1669
S'TM_SignsAndSymptoms.owl'
p1670
sS'http://knoesis.wright.edu/ParasiteExperiment.owl'
p1671
S'ParasiteExperimentOntology_111910_External.owl'
p1672
sS'http://www.co-ode.org/ontologies/pizza/pizza_20041007.owl'
p1673
S'pizzas2_7.owl'
p1674
sS'http://who.int/ictm/meridians'
p1675
S'TM_Meridians.owl'
p1676
sS'http://www.w3.org/2007/03/xproc'
p1677
S'xproc.owl'
p1678
sS'http://mmisw.org/ont/calcofi/castdata'
p1679
S'castdata'
p1680
sS'http://www.perceive.net/schemas/20021119/relationship'
p1681
S'relationship.rdf'
p1682
sS'http://www.w3.org/2002/03owlt/equivalentClass/conclusions002'
p1683
S'conclusions002.rdf.49'
p1684
sS'http://www.w3.org/2002/03owlt/equivalentClass/conclusions003'
p1685
S'conclusions003.rdf'
p1686
sS'http://purl.jp/bio/11/csso/'
p1687
S'CSSO_ver0.6.owl'
p1688
sS'http://mmisw.org/ont/ioos/passive_acoustic_metadata'
p1689
S'passive_acoustic_metadata'
p1690
sS'http://cui.unige.ch/isi/onto/tok/TOK.owl'
p1691
S'tok.owl'
p1692
sS'http://www.ontodm.com/OntoDM-core/'
p1693
S'OntoDM.owl'
p1694
sS'http://www.lia.deis.unibo.it/research/MIDAS/Ontologies/MIDAS_Profile.owl'
p1695
S'MIDAS_Profile.owl'
p1696
sS'http://purl.jp/bio/11/msv/'
p1697
S'msv.owl'
p1698
sS'http://mmisw.org/ont/mmi/usglobec'
p1699
S'usglobec'
p1700
sS'http://www.orpha.net/ontology/orphanet.owl'
p1701
S'ordo_orphanet.owl'
p1702
sS'http://mmisw.org/ont/calcofi/chladata'
p1703
S'chladata'
p1704
sS'http://ontology.neuinfo.org/NIF/1.0/BiomaterialEntities/sequence.owl'
p1705
S'sequence.owl.4'
p1706
sS'http://www.ics.forth.gr/isl/VoIDWarehouse/VoID_Extension_Schema.owl'
p1707
S'VoID_Extension_Schema.owl'
p1708
sS'http://mmisw.org/ont/calcofi/bottleqc'
p1709
S'bottleqc'
p1710
sS'http://www.cea.fr/ontotoxnuc'
p1711
S'ontologie_toxnuc_20140817.owl'
p1712
sS'http://users.du.se/~h12danst/testOntology.owl'
p1713
S'testOntology.owl'
p1714
sS'http://dataportal.ucar.edu/schemas/vsto.owl'
p1715
S'vsto.owl'
p1716
sS'http://who.int/iceci.owl'
p1717
S'iceci.owl'
p1718
sS'http://www.w3.org/2000/10/rdf-tests/rdfcore/rdfs-domain-and-range/premises006.rdf'
p1719
S'premises006.rdf.1'
p1720
sS'http://www.owl-ontologies.com/NPOntology.owl'
p1721
S'NPOntology01.owl'
p1722
sS'http://childhealthservicemodels.eu/asthma'
p1723
S'asthma_v1.3.owl'
p1724
sS'http://www.w3.org/ns/wsdl-rdf'
p1725
S'wsdl-rdf.1'
p1726
sS'http://amigo.gforge.inria.fr/owl/ContextVocabulary.owl'
p1727
S'ContextVocabulary.owl'
p1728
sS'http://mmisw.org/ont/oca/map-oca'
p1729
S'map-oca'
p1730
sS'http://multimedia.semanticweb.org/COMM/dolce-very-lite.owl'
p1731
S'dolce-very-lite.owl'
p1732
sS'http://purl.obolibrary.org/obo/xco.owl'
p1733
S'xco.owl'
p1734
sS'&ontology;GRO'
p1735
S'GRO_v0.5.owl'
p1736
sS'http://twiki.pasoa.ecs.soton.ac.uk/pub/PASOA/Ontologies/process.owl'
p1737
S'pstruct025.owl'
p1738
sS'&ign;'
p1739
S'matrRockIgneous.owl'
p1740
sS'http://www.ICPS/ontologies/Detection.owl'
p1741
S'Detection.owl'
p1742
sS'http://lsi.ugr.es/joseluisgs/videojuegos.owl'
p1743
S'videojuegos.owl'
p1744
sS'http://purl.obolibrary.org/obo/eo.owl'
p1745
S'plant-environment-ontology.obo.owl'
p1746
sS'&min;'
p1747
S'matrMineral.owl'
p1748
sS'http://mmisw.org/ont/mvco/flag'
p1749
S'flag.2'
p1750
sS'http://mmisw.org/ont/ioos/active_acoustic_metadata'
p1751
S'active_acoustic_metadata'
p1752
sS'http://purl.bioontology.org/ontology/INM-NPI'
p1753
S'INM ontologie v2.owl'
p1754
sS'http://mmisw.org/ont/usglobec/instrument'
p1755
S'instrument.1'
p1756
sS'http://purl.org/net/OCRe/study_design.owl'
p1757
S'study_design.owl'
p1758
sS'http://www.tssg.org/public/ontologies/omg/odm/2006/RDFBase.owl'
p1759
S'RDFBase.owl'
p1760
sS'file:///C:/Workspaces/MyEclipse8.x/HugoToOwl/Hugo.owl'
p1761
S'Hugo_July12_2010.owl'
p1762
sS'&dreggie;'
p1763
S'dreggie-ont.owl'
p1764
sS'http://ccdb.ucsd.edu/NIF/NIF-Function.owl'
p1765
S'NIF-Function.owl'
p1766
sS'http://mmisw.org/ont/usglobec/platformCodes'
p1767
S'platformCodes'
p1768
sS'http://cbo.biocomplexity.indiana.edu/svn/cbo/trunk/CBO_1_0'
p1769
S'CBO.owl'
p1770
sS'http://mmisw.org/ont/mbari/bctd'
p1771
S'bctd'
p1772
sS'http://mmisw.org/ont/mmi/ooidatalevel'
p1773
S'ooidatalevel'
p1774
sS'http://www.w3.org/2002/03owlt/I5.21/conclusions002'
p1775
S'conclusions002.rdf.25'
p1776
sS'http://msi-ontology.sourceforge.net/ontology/RA_metadata.owl'
p1777
S'RA_metadata.owl'
p1778
sS'http://phenomebrowser.net/ontologies/mesh/mesh.owl'
p1779
S'mesh.owl'
p1780
sS'http://www.ontologydesignpatterns.org/ont/dul/IOLite.owl'
p1781
S'IOLite.owl'
p1782
sS'http://www.w3.org/2002/03owlt/I5.3/premises001'
p1783
S'premises001.rdf.8'
p1784
sS'http://mmisw.org/ont/nasa_pace/phytopia_species_mapping'
p1785
S'phytopia_species_mapping'
p1786
sS'http://doe-generated-ontology.com/OntoPneumo'
p1787
S'OntoPneumo_20110511.owl'
p1788
sS'http://www.co-ode.org/roberts/pto.owl'
p1789
S'periodic_full_06012009.owl'
p1790
sS'http://ontology.neuinfo.org/BIRNLex/birnlex.owl'
p1791
S'birnlex.owl'
p1792
sS'&service;'
p1793
S'Service.owl.3'
p1794
sS'&mixs;terms_od'
p1795
S'mixsterms_owl.rdf'
p1796
sS'http://mmisw.org/ont/ioos/core_variable'
p1797
S'core_variable'
p1798
sS'http://mmisw.org/ont/drdc/MIOOSSEC'
p1799
S'MIOOSSEC'
p1800
sS'http://sswapmeet.sswap.info/OBO/obo.owl'
p1801
S'obo.owl.2'
p1802
sS'http://mmisw.org/ont/odm2/ActionType'
p1803
S'ActionType'
p1804
sS'http://mmisw.org/ont/ioos/societal_areas'
p1805
S'societal_areas'
p1806
sS'http://purl.obolibrary.org/obo/duo.owl'
p1807
S'duo.owl'
p1808
sS'http://mmisw.org/ont/secoora/sensor'
p1809
S'sensor'
p1810
sS'http://www.owl-ontologies.com/Ontology1184060740.owl'
p1811
S'EXACT2.owl'
p1812
sS'&entityMembershipCandidates;'
p1813
S'ISO-15926-2_2003_entityMembershipCandidates.xml'
p1814
sS'http://tour-pedia.org/download/tp.owl'
p1815
S'tp.owl'
p1816
sS'http://sw.der.org/~zubeida/ROMULUS/ontologies/BFOGFOMerged.owl'
p1817
S'BFOGFOMerged.owl'
p1818
sS'http://www.semanticweb.org/ontologies/2008/10/language_disorder_autism.owl'
p1819
S'Ontology1228014870390.owl'
p1820
sS'http://mmisw.org/ont/mmi/devontssn'
p1821
S'devontssn'
p1822
sS'http://purl.obolibrary.org/obo/uo.owl'
p1823
S'uo.owl'
p1824
sS'http://mmisw.org/ont/q2o/reference'
p1825
S'reference'
p1826
sS'http://www.ICPS/ontologies/InferredAnatomy.owl'
p1827
S'InferredAnatomyv3.owl'
p1828
sS'&ontologies;BuildingStructure'
p1829
S'BuildingStructure.owl'
p1830
sS'http://bioontology.org/projects/ontologies/birnlex'
p1831
S'BIRNLex.owl'
p1832
sS'http://www.cs.ukzn.ac.za/zubeida/ontologies/BFOROGFO-basicMerged.owl'
p1833
S'BFOROGFO-basicMappings.owl'
p1834
sS'http://purl.obolibrary.org/obo/flopo.owl'
p1835
S'flopo-inferred.owl'
p1836
sS'http://doe-generated-ontology.com/OntoAD'
p1837
S'RackMultipart20131202-9185-1thvxyu.xml'
p1838
sS'http://mmisw.org/ont/cdip/term'
p1839
S'term'
p1840
sS'http://ontologies.dbmi.pitt.edu/edda/PublicationType.owl'
p1841
S'PublicationType.owl'
p1842
sS'http://mmisw.org/ont/ooi/ionrole'
p1843
S'ionrole'
p1844
sS'http://www.semanticweb.org/ontologies/2015/0/ocupationalemploymentcluster.owl'
p1845
S'ocupationalemploymentcluster.owl'
p1846
sS'http://mmisw.org/ont/mmi/vine'
p1847
S'vine'
p1848
sS'&chemp;'
p1849
S'propChemical.owl'
p1850
sS'http://ontology.ihmc.us/ActionStatus.owl'
p1851
S'ActionStatus.owl'
p1852
sS'http://purl.obolibrary.org/obo/vsao.owl'
p1853
S'vsao.owl'
p1854
sS'http://www.tssg.org/public/ontologies/omg/qvt/2005/EssentialOCL.owl'
p1855
S'EssentialOCL.owl'
p1856
sS'http://mmisw.org/ont/Technology/ComputerNetworks/'
p1857
S'CN2.owl'
p1858
sS'http://www.cs.ukzn.ac.za/ontologies/FFO.owl'
p1859
S'FFO.owl'
p1860
sS'http://www.owl-ontologies.com/unnamed.owl'
p1861
S'ImagePhenotype.owl'
p1862
sS'http://biomodels.net/SBO/'
p1863
S'sbo.owl'
p1864
sS'http://mmisw.org/ont/seadatanet/qualityFlag'
p1865
S'qualityFlag.4'
p1866
sS'http://mmisw.org/ont/oca/thesaurus'
p1867
S'thesaurus'
p1868
sS'http://uth.tmc.edu/ontology/ochv'
p1869
S'ochv.owl'
p1870
sS'http://protege.stanford.edu/plugins/owl/dc/protege-dc.owl'
p1871
S'protege-dc.owl'
p1872
sS'http://www.mygrid.org.uk/provenance'
p1873
S'provenance.owl.2'
p1874
sS'http://purl.bioontology.org/ontology/npo'
p1875
S'npo-2011-12-08_inferred.owl'
p1876
sS'http://softeng.polito.it/rs-context-ontology'
p1877
S'rsctx.rdf'
p1878
sS'http://mmisw.org/ont/cencoos/parameter'
p1879
S'parameter.8'
p1880
sS'&annotations;'
p1881
S'ISO-15926-2_2003_annotations.xml'
p1882
sS'http://marigold.informatics.washington.edu:25000/~boycer/owl/2007/DIKB_evidence_ontology.owl'
p1883
S'DIKB_evidence_ontology_v1.7.owl'
p1884
sS'http://mmisw.org/ont/ooi_epe/data_products'
p1885
S'data_products'
p1886
sS'http://purl.obolibrary.org/obo/wbphenotype.owl'
p1887
S'wbphenotype.owl'
p1888
sS'http://purl.obolibrary.org/obo/pdumdv.owl'
p1889
S'pdumdv.owl'
p1890
sS'http://autopoiesis.foi.hr/project.php?name=KM+-+Tim+05'
p1891
S'owlexport.php?proorg=KM+-+Tim+05'
p1892
sS'http://mmisw.org/ont/noaa/general'
p1893
S'general'
p1894
sS'http://mmisw.org/ont/argo/parameter'
p1895
S'parameter.5'
p1896
sS'http://purl.obolibrary.org/obo/TEMP.owl'
p1897
S'plana.owl'
p1898
sS'http://www.sw.deri.org/~zubeida/bfo-continuants.owl'
p1899
S'bfo-continuants.owl'
p1900
sS'&swrl;'
p1901
S'swrl.owl'
p1902
sS'http://mmisw.org/ont/isdm/qvalue'
p1903
S'qvalue'
p1904
sS'http://purl.obolibrary.org/obo/wbbt.owl'
p1905
S'wbbt.owl'
p1906
sS'http://www.onto-med.de/ontologies/gfo-basic.owl'
p1907
S'gfo-basic.owl'
p1908
sS'http://www.cs.stir.ac.uk/schemas/genpol.owl'
p1909
S'genpol.owl'
p1910
sS'http://www.semanticweb.org/philshields/ontologies/2015/4/Administrator.owl'
p1911
S'2015_06_15_Administrator.owl'
p1912
sS'http://mimi.case.edu/ontologies/2009/1/SDO-merged'
p1913
S'SDO-merged.owl'
p1914
sS'http://mmisw.org/ont/bodc/NVSDevicesToTRDIOntology'
p1915
S'NVSDevicesToTRDIOntology'
p1916
sS'&mecontrib;'
p1917
S'index.html.6'
p1918
sS'http://purl.obolibrary.org/obo/spd.owl'
p1919
S'spd.owl'
p1920
sS'http://www.cs.ukzn.ac.za/zubeida/ontologies/TemporalRelationsGFOMerged.owl'
p1921
S'TemporalRelationsGFOMerged.owl'
p1922
sS'&human;'
p1923
S'human.owl'
p1924
sS'http://www.polowinski.de/ontologies/Geography.owl'
p1925
S'Geography.owl'
p1926
sS'http://www.w3.org/2002/03owlt/jjc/t073'
p1927
S't073.rdf'
p1928
sS'http://mmisw.org/ont/ooici/architectureConcept'
p1929
S'architectureConcept'
p1930
sS'http://www.semwebtech.org/mars/2006/mars'
p1931
S'mars-domain-notions.rdf'
p1932
sS'http://www.semanticweb.org/ontologies/2010/10/BPO.owl'
p1933
S'BPO 11_12_10.owl'
p1934
sS'&DEFAULT;'
p1935
S'ProfileHierarchy.owl'
p1936
sS'http://mmisw.org/ont/GMU/Test'
p1937
S'Test'
p1938
sS'http://purl.obolibrary.org/obo/trans.owl'
p1939
S'trans.owl'
p1940
sS'http://www.semanticweb.org/ontologies/2009/3/EpilepsyOntology.owl'
p1941
S'EpilepsyOntology.owl'
p1942
sS'http:/purl.obolibrary.org/obo/ogsf.owl'
p1943
S'ogsf.owl'
p1944
sS'&photo;'
p1945
S'photo.owl'
p1946
sS'http://www.tssg.org/public/ontologies/omg/mof/2004/MOF.owl'
p1947
S'MOF.owl'
p1948
sS'http://www.owl-ontologies.com/harrypotter.owl'
p1949
S'harry_potter.rdf-xml.owl.1'
p1950
sS'&ontologies;OrganizationalOutcomes'
p1951
S'OrganizationalOutcomes.owl'
p1952
sS'http://purl.obolibrary.org/obo/uberon/ext.owl'
p1953
S'ext.owl'
p1954
sS'http://mmisw.org/ont/secoora/pathogen'
p1955
S'pathogen'
p1956
sS'http://mmisw.org/ont/ioos/organization'
p1957
S'organization'
p1958
sS'http://www.onto-med.de/ontologies/gfo-bio.owl'
p1959
S'gfo-bio.owl'
p1960
sS'http://mmisw.org/ont/ioos/map_ioos_ioos'
p1961
S'map_ioos_ioos'
p1962
sS'http://ontologies.dbmi.pitt.edu/edda/StudyDesigns.owl'
p1963
S'StudyDesigns.owl'
p1964
sS'http://www.lia.deis.unibo.it/research/SAMOA/ontologies/FreeTime.owl'
p1965
S'FreeTime.owl'
p1966
sS'http://purl.obolibrary.org/obo/upheno.owl'
p1967
S'upheno.owl'
p1968
sS'http://ontology.neuinfo.org/NIF/nif.owl'
p1969
S'nif.owl'
p1970
sS'http://autopoiesis.foi.hr/project.php?name=KM+-+Tim+17'
p1971
S'owlexport.php?proorg=KM+-+Tim+17'
p1972
sS'http://mmisw.org/ont/COMPS/properties'
p1973
S'properties.1'
p1974
sS'&dist;'
p1975
S'spaceDistribution.owl'
p1976
sS'http://ontology.neuinfo.org/NIF/Backend/BIRNLex-OBO-UBO.owl'
p1977
S'BIRNLex-OBO-UBO.owl.3'
p1978
sS'http://purl.obolibrary.org/obo/dideo.owl/'
p1979
S'dideo.owl'
p1980
sS'http://purl.obolibrary.org/obo/MF.owl'
p1981
S'MF.owl'
p1982
sS'http://www.w3.org/2000/10/rdf-tests/rdfcore/rdfs-domain-and-range/premises005.rdf'
p1983
S'premises005.rdf'
p1984
sS'http://purl.obolibrary.org/obo/hao.owl'
p1985
S'hao.owl'
p1986
sS'&entityMembership;'
p1987
S'ISO-15926-2_2003_entityMembership.xml'
p1988
sS'http://mmisw.org/ont/WHOI/whoiCruiseID'
p1989
S'whoiCruiseID'
p1990
sS'http://mmisw.org/ont/nasa_pace/ecological_mapping'
p1991
S'ecological_mapping'
p1992
sS'http://www.loc.gov/mods/rdf/v1'
p1993
S'MODS_RDF_Ontology.rdf'
p1994
sS'http://mmisw.org/ont/CUAHSI/AtmosphericHydrologicSynthesis'
p1995
S'AtmosphericHydrologicSynthesis'
p1996
sS'http://mmisw.org/ont/mbari/parameter_provisional'
p1997
S'parameter_provisional'
p1998
sS'http://purl.obolibrary.org/obo/ro.owl'
p1999
S'ro.owl'
p2000
sS'&swo;swo.owl'
p2001
S'swo.owl'
p2002
sS'http://carre.kmi.open.ac.uk/ontology/carre.owl'
p2003
S'carre.owl'
p2004
sS'&obo;MFOEM'
p2005
S'MFOEM.owl'
p2006
sS'http://www.polowinski.de/ontologies/History.owl'
p2007
S'History.owl'
p2008
sS'http://purl.obolibrary.org/obo/VSO'
p2009
S'vso.owl'
p2010
sS'http://www.ICPS/ontologies/PatientCharacteristics.owl'
p2011
S'PatientCharacteristics.owl'
p2012
sS'&PICO1.owl;'
p2013
S'PICO1.owl'
p2014
sS'http://swat.cse.lehigh.edu/resources/onto/citeseer.owl'
p2015
S'citeseer.owl'
p2016
sS'http://www.workingontologist.org/Examples/Chapter9/questionnaire.owl'
p2017
S'questionnaire.owl'
p2018
sS'http://mmisw.org/ont/ioos/platform_map_ioos_mmi'
p2019
S'platform_map_ioos_mmi'
p2020
sS'http://mmisw.org/ont/ooici/ooiReferenceConcept'
p2021
S'ooiReferenceConcept'
p2022
sS'http://mmisw.org/ont/mmi/device'
p2023
S'device'
p2024
sS'http://mmisw.org/ont/coa/icancoa'
p2025
S'icancoa'
p2026
sS'http://mmisw.org/ont/WoRMS/WoRMS'
p2027
S'WoRMS'
p2028
sS'http://www.w3.org/2002/03owlt/equivalentClass/premises003'
p2029
S'premises003.rdf.25'
p2030
sS'&conference;'
p2031
S'conference.owl'
p2032
sS'https://www.auto.tuwien.ac.at/downloads/thinkhome/ontology/WeatherOntology.owl'
p2033
S'WeatherOntology.owl'
p2034
sS'http://purl.obolibrary.org/obo/so.owl'
p2035
S'so.owl'
p2036
sS'&obo;iao/dev/iao-main.owl'
p2037
S'ddi.owl'
p2038
sS'https://raw.githubusercontent.com/PlantPhenoOntology/PPO/master/ontology/ppo-raw.owl'
p2039
S'ppo.owl'
p2040
sS'http://mmisw.org/ont/coa/coa'
p2041
S'coa'
p2042
sS'http://www.tssg.org/public/ontologies/omg/uml/2004/PrimitiveTypes.owl'
p2043
S'PrimitiveTypes.owl'
p2044
sS'http://mmisw.org/ont/univmemphis/sensor'
p2045
S'sensor.1'
p2046
sS'http://www.w3.org/2002/03owlt/description-logic/premises903'
p2047
S'premises903.rdf.12'
p2048
sS'http://mmisw.org/ont/CUAHSI/OceanCompound'
p2049
S'OceanCompound'
p2050
sS'http://www.owl-ontologies.com/RCTOntology.owl'
p2051
S'NoNRCTontology1.0.owl.xml'
p2052
sS'http://www.bpiresearch.com/BPMO/2004/03/03/cdl/Countries'
p2053
S'Countries.owl'
p2054
sS'http://www.ICPS/ontologies/DetectionMechanisms'
p2055
S'DetectionMechanisms.owl'
p2056
sS'http://mmisw.org/ont/mmi/udunits2-derived'
p2057
S'udunits2-derived'
p2058
sS'http://mmisw.org/ont/odm2/SamplingFeatureGeotype'
p2059
S'SamplingFeatureGeotype'
p2060
sS'http://www.mskcc.org/ontologies/2013/03/sae.owl'
p2061
S'sse-p.owl'
p2062
sS'http://mmisw.org/ont/calcofi/Prodo_Cast'
p2063
S'Prodo_Cast'
p2064
sS'http://www.owl-ontologies.com/Ontology1435740495.owl'
p2065
S'OntoFood.owl'
p2066
sS'http://mmisw.org/ont/CUAHSI/WaterQualityCompound'
p2067
S'WaterQualityCompound'
p2068
sS'http://www.semanticweb.org/ontologies/2014/11/legal.owl'
p2069
S'legal.owl'
p2070
sS'http://www.w3.org/2002/03owlt/equivalentClass/premises002'
p2071
S'premises002.rdf.3'
p2072
sS'http://opendata.inra.fr/ms2o/'
p2073
S'ms2o_core.owl'
p2074
sS'http://mmisw.org/ont/woce/qcFlag'
p2075
S'qcFlag'
p2076
sS'http://mmisw.org/ont/mbari/pctd'
p2077
S'pctd'
p2078
sS'http://mmisw.org/ont/gcoos/parameter'
p2079
S'parameter.3'
p2080
sS'http://purl.obolibrary.org/obo/tao.owl'
p2081
S'tao.owl'
p2082
sS'http://www.biopax.org/release/biopax-level2.owl'
p2083
S'biopax-level2.owl'
p2084
sS'http://www.w3.org/2002/03owlt/equivalentClass/conclusions004'
p2085
S'conclusions004.rdf.1'
p2086
sS'&process;'
p2087
S'Process.owl.5'
p2088
s.