(dp0
S''
p1
S'Book.owl'
p2
sS'http://www.w3.org/2006/time-entry'
p3
S'time-entry.owl'
p4
sS'http://neurolog.unice.fr/ontoneurolog/v3.0/ontoneurolog-mr-dataset-acquisition.owl'
p5
S'ontoneurolog-mr-dataset-acquisition.owl'
p6
sS'http://mmisw.org/ont/mmi/MXP'
p7
S'MXP'
p8
sS'http://www.kp-lab.org/system-model/TLO#'
p9
S'TLO.rdf-xml-2.owl'
p10
sS'http://purl.bioontology.org/ontology/MIM'
p11
S'mim.owl'
p12
sS'http://opendata.inra.fr/EOL/'
p13
S'eol.owl'
p14
sS'&mevd;'
p15
S'index.html.9'
p16
sS'http://mmisw.org/ont/nasa_pace/observations'
p17
S'observations'
p18
sS'http://purl.org/skeletome/bonedysplasia'
p19
S'bonedysplasia.owl'
p20
sS'http://users.ecs.soton.ac.uk/cd8e10/ontology/'
p21
S'airtravelbookingontology.owl'
p22
sS'https://carre.kmi.open.ac.uk/ontology/educational.owl'
p23
S'educational.owl'
p24
sS'http://www.semanticweb.org/ontologies/2012/5/Ontology1338526551855.owl'
p25
S'RPO_081112_owl.0'
p26
sS'&pub;'
p27
S'publication.owl'
p28
sS'http://www.wiser.pitt.edu/ontologies/SimulationScenarioDeviations.owl'
p29
S'SimulationScenarioDeviations.owl'
p30
sS'http://onto.eva.mpg.de/obo/fungal_anatomy.owl#'
p31
S'fungal_anatomy.owl.2'
p32
sS'&obo;ontoneo/ontoneo.owl'
p33
S'ontoneo.owl'
p34
sS'http://ontology.eil.utoronto.ca/GCI/ISO37120/Education.owl'
p35
S'Education.owl'
p36
sS'http://purl.oclc.org/NET/mvco.owl'
p37
S'mvco11.owl'
p38
sS'http://onto.eva.mpg.de/obo/mao.owl#'
p39
S'mao.owl'
p40
sS'http://vivoweb.org/ontology/core'
p41
S'vivo-core-public-1.5.owl'
p42
sS'&wn;'
p43
S'wordnet_2.rdf'
p44
sS'https://schema.metadatacenter.org/'
p45
S'CEDARPC.owl'
p46
sS'http://data-gov.tw.rpi.edu/2009/data-gov-twc.rdf'
p47
S'data-gov-twc.rdf.1'
p48
sS'https://protegewiki.stanford.edu/wiki/Special:ExportRDF/XML2OWL'
p49
S'XML2OWL'
p50
sS'http://www.modeldriven.org/rdf/context/context-logic.owl'
p51
S'context-logic.owl.1'
p52
sS'http://vocab.deri.ie/security'
p53
S'security.rdf'
p54
sS'http://www.ontologydesignpatterns.org/cp/owl/controlflow.owl'
p55
S'controlflow.owl'
p56
sS'http://amigo.gforge.inria.fr/owl/ContextLanguage.owl'
p57
S'ContextLanguage.owl'
p58
sS'http://www.semanticweb.org/chen/ontologies/2015/8/untitled-ontology-72'
p59
S'PatientSafetyOntology.owl'
p60
sS'&table;'
p61
S'PeriodicTable.owl.xml'
p62
sS'http://vocab.deri.ie/acronym'
p63
S'acronym.rdf'
p64
sS'&comp;'
p65
S'matrCompound.owl'
p66
sS'http://trac.talia.discovery-project.eu/wiki/HyperOntology'
p67
S'hyper_ontology.owl.2'
p68
sS'http://mmisw.org/ont/CUAHSI/AtmosphericHydrologicCompound'
p69
S'AtmosphericHydrologicCompound'
p70
sS'http://purl.bioontology.org/ontology/NPI'
p71
S'NPIs ontology v4.owl'
p72
sS'http://purl.obolibrary.org/obo/stato.owl'
p73
S'stato1.owl'
p74
sS'http://onto.eva.mpg.de/obo/image.owl#'
p75
S'image.owl'
p76
sS'http://ontologies.dbmi.pitt.edu/edda/PublicationType.owl'
p77
S'PublicationType.owl'
p78
sS'http://onto.eva.mpg.de/obo/psi-mi.owl#'
p79
S'psi-mi.owl.2'
p80
sS'http://en.openei.org/wiki/Special:ExportRDF/General_Merchandise_2009_TSD_Miami_Low_Plug_Load_50%25_Energy_Savings'
p81
S'General_Merchandise_2009_TSD_Miami_Low_Plug_Load_50%_Energy_Savings'
p82
sS'http://mmisw.org/ont/CUAHSI/AquaBioCore'
p83
S'AquaBioCore'
p84
sS'&snarm;'
p85
S'index.html.12'
p86
sS'&seq;sequence.owl'
p87
S'sequence.owl'
p88
sS'http://purl.obolibrary.org/obo/aero.owl'
p89
S'aero.owl'
p90
sS'http://mmisw.org/ont/ooi_epe/platform_mapping'
p91
S'platform_mapping'
p92
sS'http://regenbase.org/ontology'
p93
S'regenbase_vocabulary.owl'
p94
sS'&obo;ico_merged.owl'
p95
S'ico_merged.owl'
p96
sS'http://onto.eva.mpg.de/obo/developmentstage.owl#'
p97
S'developmentstage.owl.1'
p98
sS'http://purl.obolibrary.org/obo/opl.owl'
p99
S'opl.owl'
p100
sS'http://bioontology.org/projects/ontologies/birnlex'
p101
S'BIRNLex.owl'
p102
sS'http://mmisw.org/ont/drdc/parameter'
p103
S'parameter.6'
p104
sS'&pmlpbase;'
p105
S'pml-provenance.owl'
p106
sS'http://en.openei.org/wiki/Special:ExportRDF/General_Merchandise_2009_TSD_Miami_Low_Plug_Load_Baseline'
p107
S'General_Merchandise_2009_TSD_Miami_Low_Plug_Load_Baseline'
p108
sS'http://www.semanticweb.org/ontologies/2010/5/22/Ontology1277229984000.owl'
p109
S'HPI.owl'
p110
sS'http://ecoinformatics.org/oboe/oboe.1.0/oboe.owl'
p111
S'oboe.owl'
p112
sS'http://harmonisa.uni-klu.ac.at/ontology/skeleton.owl'
p113
S'skeleton.owl'
p114
sS'http://mmisw.org/ont/seacoos/qualityFlag_aq'
p115
S'qualityFlag_aq'
p116
sS'http://purl.org/net/OCRe/study_protocol.owl'
p117
S'study_protocol.owl'
p118
sS'http://ontology.neuinfo.org/NIF/Backend/obo-foundry-core-full-import.owl'
p119
S'obo-foundry-core-full-import.owl.2'
p120
sS'&obo;flu/dev/flu.owl'
p121
S'flu.owl'
p122
sS'http://mmisw.org/ont/mvco/MVCOtoCFswell'
p123
S'MVCOtoCFswell'
p124
sS'http://mmisw.org/ont/trdi/models'
p125
S'models'
p126
sS'http://www.semanticweb.org/jdr2160/ontologies/2015/5/venom_ontology'
p127
S'venom_ontology.xml'
p128
sS'&elem;'
p129
S'matrElement.owl'
p130
sS'http://unbsj.biordf.net/lipids/lipid-classification-service-ontology.owl'
p131
S'lipid-classification-service-ontology.owl'
p132
sS'http://mmisw.org/ont/mmi/sensor'
p133
S'sensor.2'
p134
sS'http://purl.org/saws/ontology'
p135
S'AncientGreekWisdomOnto.owl'
p136
sS'http://www.semanticweb.org/associatedmedicine/lavima/2011/10/Ontology1.owl'
p137
S'OntoMA.1.1.OWL'
p138
sS'http://swat.cse.lehigh.edu/resources/onto/aigp.owl'
p139
S'aigp.owl'
p140
sS'&gfo-bio;'
p141
S'gfo-bio.owl'
p142
sS'http://mmisw.org/ont/igoss/qualityFlag'
p143
S'qualityFlag.5'
p144
sS'http://mmisw.org/ont/calcofi/weatherData'
p145
S'weatherData'
p146
sS'http://mmisw.org/ont/secoora/optical'
p147
S'optical'
p148
sS'http://ontology.eil.utoronto.ca/GCI/Foundation/GCI-Foundation.owl'
p149
S'GCI-Foundation.owl'
p150
sS'http://onto.eva.mpg.de/obo/human-dev-anat-abstract.owl#'
p151
S'human-dev-anat-abstract.owl'
p152
sS'http://geni-orca.renci.org/owl/ip4.owl'
p153
S'ip4.owl'
p154
sS'&chem;'
p155
S'matr1.owl'
p156
sS'http://mimi.case.edu/ontologies/2009/1/UnitsOntology#'
p157
S'gmo_v0.16b.owl'
p158
sS'http://vocab.deri.ie/rulz'
p159
S'rulz.rdf'
p160
sS'http://example.org/data/y#'
p161
S'data-02.rdf'
p162
sS'http://vocab.deri.ie/odapp'
p163
S'odapp.rdf'
p164
sS'http://onto.eva.mpg.de/obo/zebrafish_anatomy.owl#'
p165
S'zebrafish_anatomy.owl'
p166
sS'http://mmisw.org/ont/csdms/operator'
p167
S'operator'
p168
sS'http://purl.org/nbirn/birnlex/ontology/BIRNLex-OBO-UBO.owl'
p169
S'BIRNLex-OBO-UBO.owl.2'
p170
sS'http://multimedia.semanticweb.org/COMM/dolce-very-lite.owl'
p171
S'dolce-very-lite.owl'
p172
sS'http://dig.csail.mit.edu/TAMI/2007/amord/air#'
p173
S'air.rdf'
p174
sS'&owl11;OWL11'
p175
S'owl_1_1.owl.10'
p176
sS'http://www.owl-ontologies.com/assert.owl'
p177
S'OntoKBCF1301new.owl'
p178
sS'http://www.isi.edu/ikcap/Wingse/fileOntology.owl'
p179
S'fileOntology.owl'
p180
sS'http://www.lia.deis.unibo.it/research/SAMOA/ontologies/SAMOA_Profile.owl'
p181
S'SAMOA_Profile.owl'
p182
sS'http://mmisw.org/ont/isdm/instituteCodes'
p183
S'instituteCodes'
p184
sS'http://mmisw.org/ont/seacoos/qualityFlag_tq'
p185
S'qualityFlag_tq'
p186
sS'http://purl.org/ontology/bibo/'
p187
S'bibo.owl'
p188
sS'http://purl.obolibrary.org/obo/ero.owl'
p189
S'ero.owl'
p190
sS'http://vocab.deri.ie/am'
p191
S'am.rdf'
p192
sS'http://who.int/bodysystem.owl'
p193
S'bodysystem.owl'
p194
sS'http://www.demcare.eu/ontologies/demlab.owl'
p195
S'demlab1.owl'
p196
sS'http://www.w3.org/2002/03owlt/jjc/t025'
p197
S't025.rdf'
p198
sS'http://chem2bio2rdf.org/chem2bio2rdf.owl'
p199
S'chem2bio2rdf.owl'
p200
sS'http://vocab.deri.ie/ac'
p201
S'ac.rdf'
p202
sS'http://vocab.deri.ie/yoda'
p203
S'yoda.rdf'
p204
sS'http://www.bioassayontology.org/bao/bao_vocabulary_result.owl'
p205
S'bao_vocabulary_result.owl'
p206
sS'http://mmisw.org/ont/ioos/platform_map'
p207
S'platform_map'
p208
sS'file:/D:/mpoveda/ICPS/Red%20ICPS/ICPS%20Network/ActionsToReduceRisk.owl'
p209
S'ActionsToReduceRisk.owl'
p210
sS'&obo;ohmi.owl'
p211
S'ohmi.owl'
p212
sS'&base;'
p213
S'football.owl'
p214
sS'https://joinup.ec.europa.eu/category/licence/isa-open-metadata-licence-v11#'
p215
S'2013-11-25.rdf'
p216
sS'http://who.int/ictm/constitution'
p217
S'TM_Constitution.owl'
p218
sS'http://www.onto-med.de/ontologies/gfo-bio.owl'
p219
S'gfo-bio.owl'
p220
sS'http://purl.obolibrary.org/obo/oostt.owl/'
p221
S'oostt.owl'
p222
sS'http://mmisw.org/ont/mx/datalevel'
p223
S'datalevel'
p224
sS'http://vocab.deri.ie/av'
p225
S'av.rdf'
p226
sS'http://mmisw.org/ont/mvco/platform'
p227
S'platform.1'
p228
sS'http://mged.sourceforge.net/ontologies/MGEDOntology.owl'
p229
S'MGEDOntology.owl'
p230
sS'http://www.w3.org/2001/sw/BestPractices/OEP/SimplePartWhole/part.owl'
p231
S'part.owl'
p232
sS'http://vocab.deri.ie/events'
p233
S'events.rdf'
p234
sS'http://www.thezfiles.co.za/ontologies/DOLCE-LiteBFOMerged.owl'
p235
S'DOLCE-LiteBFOMerged.owl'
p236
sS'http://www.ICPS/ontologies/Furniture.owl'
p237
S'Furniture.owl'
p238
sS'http://lsdis.cs.uga.edu/projects/meteor-s/wsdl-s/ontologies/rosetta.owl'
p239
S'rosetta.owl'
p240
sS'http://www.ICPS/ontologies/MitigatingFactors.owl'
p241
S'MitigatingFactors.owl'
p242
sS'http://www.w3.org/2007/uwa/context/web.owl#'
p243
S'deliveryContextAll.owl.3'
p244
sS'http://msi-ontology.sourceforge.net/ontology/RA_metadata.owl'
p245
S'RA_metadata.owl'
p246
sS'http://mmisw.org/ont/mmi/usjgofs_hydro'
p247
S'usjgofs_hydro'
p248
sS'http://autopoiesis.foi.hr/project.php?name=KM+-+Tim+05'
p249
S'owlexport.php?proorg=KM+-+Tim+05'
p250
sS'http://mmisw.org/ont/ioos/animal_acoustic_telemetry'
p251
S'animal_acoustic_telemetry'
p252
sS'http://www.tssg.org/public/ontologies/omg/odm/2006/RDFWeb.owl'
p253
S'RDFWeb.owl'
p254
sS'http://vocab.deri.ie/test'
p255
S'test.rdf'
p256
sS'http://www.ontologydesignpatterns.org/cp/owl/timeindexedsituation.owl'
p257
S'timeindexedsituation1.owl'
p258
sS'http://www.semanticweb.org/ontologies/2008/8/SPO_lightweight_merged.owl'
p259
S'Skin Physiology Ontology 2.0.owl'
p260
sS'http://mmisw.org/ont/argo/instrument'
p261
S'instrument'
p262
sS'http://vocab.deri.ie/orgs'
p263
S'orgs.rdf'
p264
sS'&obo;iao/dev/ontology-metadata.owl'
p265
S'ontology-metadata.owl'
p266
sS'http://www.ics.forth.gr/isl/VoIDWarehouse/VoID_Extension_Schema.owl'
p267
S'VoID_Extension_Schema.owl'
p268
sS'&privacy;'
p269
S'privacy.owl'
p270
sS'&exif;'
p271
S'ns'
p272
sS'http://www.ebi.ac.uk/efo/efo.owl'
p273
S'efo.owl'
p274
sS'&mnns;#'
p275
S'mn'
p276
sS'http://downlode.org/rdf/ordnance_survey/schema'
p277
S'1.1'
p278
sS'http://ontology.neuinfo.org/NIF/BiomaterialEntities/sequence.owl'
p279
S'sequence.owl.1'
p280
sS'http://mmisw.org/ont/mmi/MarineOrganism'
p281
S'MarineOrganism'
p282
sS'http://mmisw.org/ont/qartod/qualityFlag'
p283
S'qualityFlag.3'
p284
sS'http://www.fadyart.com/Finance.owl'
p285
S'Finance.owl'
p286
sS'http://mmisw.org/ont/mmi/om'
p287
S'om'
p288
sS'http://www.kp-lab.org/security-ontologies/RolesAndActions#'
p289
S'RolesAndActions.rdf-xml.owl'
p290
sS'http://rds.posccaesar.org/2008/02/OWL/ISO-15926-2_2003'
p291
S'ISO-15926-2_2003.xml'
p292
sS'http://www.cs.ukzn.ac.za/zubeida/ontologies/BFOROTemporalRelationsMerged.owl'
p293
S'BFOROTemporalRelationsMerged.owl'
p294
sS'&obo;ogg-mm.owl'
p295
S'ogg-mm.owl'
p296
sS'http://www.cidoc-crm.org/rdfs/1.0/crmgeo'
p297
S'CRMgeo_v1.0.owl'
p298
sS'http://onto.eva.mpg.de/fma/fma.owl#'
p299
S'fma_obo.owl'
p300
sS'http://www.w3.org/2002/07/owl#'
p301
S'2015_06_11_Transitional care.owl'
p302
sS'&openprovenance;opmo'
p303
S'opmo-20101012.owl'
p304
sS'http://informatics.mayo.edu/TEO.owl'
p305
S'TEO.owl'
p306
sS'http://mmisw.org/ont/r2r/multibeam'
p307
S'multibeam'
p308
sS'http://biomanta.sourceforge.net/2007/06/psimi_instance_edit.owl'
p309
S'psimi_instance_edit.owl'
p310
sS'http://vocab.deri.ie/bang'
p311
S'bang.rdf'
p312
sS'http://mmisw.org/ont/secoora/pathogen'
p313
S'pathogen'
p314
sS'http://purl.bioontology.org/ontology/SNMI/'
p315
S'SNMI.rdf'
p316
sS'http://mmisw.org/ont/mmi/mmiorr'
p317
S'mmiorr'
p318
sS'http://knowledgeweb.semanticweb.org/iriba/ontologies/ResultOntology#'
p319
S'ResultOntology.rdf'
p320
sS'&meannot;'
p321
S'index.html.14'
p322
sS'http://mmisw.org/ont/ican/thesaurus'
p323
S'thesaurus.1'
p324
sS'&obo;odnae.owl'
p325
S'odnae_merged.owl'
p326
sS'http://www.ICPS/ontologies/ContributingFactors-Hazards'
p327
S'ContributingFactors-Hazards.owl'
p328
sS'http://scai.fraunhofer.de/HuPSON'
p329
S'HuPSON_v092013_merged.owl'
p330
sS'http://www.uv.es/agentes/sve/DSOBar.owl'
p331
S'DSOBar.owl'
p332
sS'http://omv.ontoware.org/2005/05/ontology'
p333
S'OMV_v2.4.1.owl'
p334
sS'http://mmisw.org/ont/noaa/noaadatalevels'
p335
S'noaadatalevels'
p336
sS'http://vocab.deri.ie/raul'
p337
S'raul.rdf'
p338
sS'http://bmkeg.isi.edu/neuDIGs'
p339
S'neuDIGs.rdf'
p340
sS'http://onto.eva.mpg.de/obo/plant_trait.owl#'
p341
S'plant_trait.owl.1'
p342
sS'http://mmisw.org/ont/BOEM/SFH'
p343
S'SFH'
p344
sS'http://purl.obolibrary.org/obo/DDO.owl'
p345
S'DDO_v1.owl'
p346
sS'http://mmisw.org/ont/noaa/noaa-tide-current'
p347
S'noaa-tide-current'
p348
sS'http://mmisw.org/ont/mmi/tool'
p349
S'tool'
p350
sS'http://xmlns.com/foaf/0.1/'
p351
S'index.rdf'
p352
sS'http://mmisw.org/ont/argo/qualityFlag'
p353
S'qualityFlag.6'
p354
sS'http://onto.eva.mpg.de/obo/zea_mays_anatomy.owl#'
p355
S'zea_mays_anatomy.owl.1'
p356
sS'http://mmisw.org/ont/mbari/pctd'
p357
S'pctd'
p358
sS'http://xmlns.sehrgut.co.uk/xosig/0.1/'
p359
S'index.html.2'
p360
sS'http://mmisw.org/ont/isro/INSAT3DDPV'
p361
S'INSAT3DDPV.1'
p362
sS'http://def.seegrid.csiro.au/isotc211/iso19115/2003/metadata#'
p363
S'metadata.rdf'
p364
sS'http://mmisw.org/ont/ioos/category'
p365
S'category'
p366
sS'http://mmisw.org/ont/ooici/informationResource'
p367
S'informationResource'
p368
sS'http://mmisw.org/ont/ooi_epe/instruments'
p369
S'instruments'
p370
sS'http://www.w3.org/2011/content'
p371
S'content'
p372
sS'https://protegewiki.stanford.edu/wiki/Special:ExportRDF/PrF_UG_files_xml_support'
p373
S'PrF_UG_files_xml_support'
p374
sS'http://www.owl-ontologies.com/generations.owl'
p375
S'family_example.owl'
p376
sS'http://www.co-ode.org/ontologies/amino-acid/2006/05/18/amino-acid.owl#'
p377
S'amino acid - inferred.owl'
p378
sS'http://www.modeldriven.org/rdf/context/context.rdf'
p379
S'context.rdf'
p380
sS'http://en.openei.org/wiki/Special:ExportRDF/Grocery_2009_TSD_Miami_50%25_Energy_Savings'
p381
S'Grocery_2009_TSD_Miami_50%_Energy_Savings'
p382
sS'http://example.com/'
p383
S'uri-resolution.owl'
p384
sS'http://www.w3.org/2006/12/owl2-xml#'
p385
S'mo.owl'
p386
sS'&news;'
p387
S'news.owl'
p388
sS'http://vocab.deri.ie/cogs'
p389
S'cogs.rdf'
p390
sS'http://datos.gob.es/def/sector-publico/organizacion'
p391
S'orges.owl'
p392
sS'http://ontology.ihmc.us/Notification/NotificationEntity.owl'
p393
S'NotificationEntity.owl'
p394
sS'http://purl.jp/bio/11/pdo/'
p395
S'PDO_ver0.7.owl'
p396
sS'&org;'
p397
S'matrOrganicCompound.owl'
p398
sS'http://www.ontologydesignpatterns.org/cp/owl/sequence.owl'
p399
S'sequence.owl'
p400
sS'http://iridl.ldeo.columbia.edu/ontologies/iricrosswalk.owl'
p401
S'iricrosswalk.owl.1'
p402
sS'http://vocab.deri.ie/scovo-plus'
p403
S'scovo-plus.rdf'
p404
sS'http://ccdb.ucsd.edu/SAO/1.2'
p405
S'SAO.owl'
p406
sS'http://purl.oclc.org/NET/muo/ucum/'
p407
S'ucum-instances.owl'
p408
sS'http://erlangen-crm.org/160714/'
p409
S'ecrm_160714.owl'
p410
sS'http://mmisw.org/ont/q2o/flag'
p411
S'flag'
p412
sS'http://www.bioassayontology.org/bao'
p413
S'bao_gpcr_v1.1.owl'
p414
sS'http://mmisw.org/ont/odm2test/samplingfeaturetype'
p415
S'samplingfeaturetype'
p416
sS'http://www.owl-ontologies.com/MO.owl'
p417
S'MOedited.owl'
p418
sS'http://mmisw.org/ont/ioos/societal_areas'
p419
S'societal_areas'
p420
sS'http://sswapmeet.sswap.info/oboInOwl/oboInOwl.owl'
p421
S'oboInOwl.owl'
p422
sS'http://onto.eva.mpg.de/obo/fly_anatomy.owl#'
p423
S'fly_anatomy.owl.2'
p424
sS'http://mmisw.org/ont/CUAHSI/AquaBiologicalCompound'
p425
S'AquaBiologicalCompound'
p426
sS'http://www.kp-lab.org/ontologies/mapit#'
p427
S'MapItm36.rdf-xml-13-01-09.owl'
p428
sS'http://www.ICPS/ontologies/Place'
p429
S'Place.owl'
p430
sS'http://vocab.deri.ie/c4n'
p431
S'c4n.rdf'
p432
sS'http://onto.eva.mpg.de/obo/mesh.owl#'
p433
S'mesh.owl.2'
p434
sS'http://mmisw.org/ont/ird/qualityFlag'
p435
S'qualityFlag'
p436
sS'http://opendata.inra.fr/resources/BIORAF#'
p437
S'BIOREFINERY.owl'
p438
sS'http://mmisw.org/ont/ooici/ooiionroles'
p439
S'ooiionroles'
p440
sS'http://www.daml.org/services/owl-s/1.1/generic/ObjectList.owl'
p441
S'ObjectList.owl'
p442
sS'http://www.uv.es/~agentes/SVECore'
p443
S'SVECore.owl'
p444
sS'http://purl.org/stemnet/MHC'
p445
S'MaHCO.owl'
p446
sS'http://onto.eva.mpg.de/obo/so.owl#'
p447
S'so.owl.1'
p448
sS'http://www.semanticweb.org/ethnicityOntology'
p449
S'ethnicityOntologyv1.owl'
p450
sS'&obo;ogg.owl'
p451
S'ogg.owl'
p452
sS'http://www.loria.fr/pgxo/'
p453
S'pgxo.owl'
p454
sS'http://ontology.neuinfo.org/NIF/Backend/obo-foundry-core.owl'
p455
S'obo-foundry-core.owl'
p456
sS'http://vocab.deri.ie/travel'
p457
S'travel.rdf'
p458
sS'http://purl.obolibrary.org/obo/bcgo_merged.owl'
p459
S'bcgo_merged_inferred.owl'
p460
sS'http://purl.obofoundry.org/obo/'
p461
S'OBI.owl.1'
p462
sS'http://oaei.ontologymatching.org/2009/benchmarks/266/onto.rdf#'
p463
S'onto.rdf.10'
p464
sS'http://www.stanford.edu/~coulet/phare.owl'
p465
S'phare.owl'
p466
sS'&iwins;#'
p467
S'iwi'
p468
sS'http://www.ontologydesignpatterns.org/schemas/cpannotationschema.owl'
p469
S'cpannotationschema1.owl'
p470
sS'http://www.CareLex.org/2012/carelex.owl'
p471
S'carelex.owl'
p472
sS'http://swat.cse.lehigh.edu/resources/onto/politicianbill.owl'
p473
S'politicianbill.owl'
p474
sS'&obo;oae.owl/'
p475
S'oae.owl'
p476
sS'http://vocab.deri.ie/team'
p477
S'team.rdf'
p478
sS'http://nwalsh.com/rdf/exif-nikon5700#'
p479
S'exif-nikon5700'
p480
sS'http://dati.camera.it/ocd/'
p481
S'classi.rdf'
p482
sS'http://www.wiwiss.fu-berlin.de/suhl/bizer/D2RQ/0.1'
p483
S'd2rq.rdf'
p484
sS'http://www.ontologydesignpatterns.org/ont/web/irw.owl'
p485
S'irw.owl'
p486
sS'http://www.enanomapper.net/ontologies/enanomapper.owl'
p487
S'enanomapper1.owl'
p488
sS'&dir;'
p489
S'spaceDirection.owl'
p490
sS'http://www.owl-ontologies.com/OntologyXCT.owl'
p491
S'XCTontologyvtemp2.owl'
p492
sS'http://mmisw.org/ont/ooi-ci/cdm'
p493
S'cdm'
p494
sS'http://www.tssg.org/public/ontologies/omg/uml/2004/BasicActions.owl'
p495
S'BasicActions.owl'
p496
sS'http://www.owl-ontologies.com/Ontology1358660052.owl'
p497
S'PedTerm_Jan20-13.owl'
p498
sS'http://www.co-ode.org/roberts/pto.owl'
p499
S'periodic_full_06012009.owl'
p500
sS'http://edamontology.org/'
p501
S'EDAM_1.16.owl'
p502
sS'&obo;ego.owl'
p503
S'ego.owl'
p504
sS'http://sw.cyc.com/2006/07/27/cyc'
p505
S'cycCore.rdf'
p506
sS'http://purl.org/ontology/muni'
p507
S'Muni.owl'
p508
sS'http://kt.ijs.si/panovp/OntoDM-KDD.owl'
p509
S'OntoDM-KDD.owl'
p510
sS'http://www.owl-ontologies.com/Ontology1184060740.owl'
p511
S'EXACT2.owl'
p512
sS'http://mmisw.org/ont/ioos/waterLevel'
p513
S'waterLevel'
p514
sS'http://purl.org/ontology/olo/core#'
p515
S'orderedlistontology.owl'
p516
sS'http://www.bioassayontology.org/bao/bao_complete.owl'
p517
S'bao_complete.owl'
p518
sS'http://vocab.deri.ie/ppo'
p519
S'ppo.rdf'
p520
sS'http://mmisw.org/ont/noaa/juvenilerockfish'
p521
S'juvenilerockfish'
p522
sS'http://mmisw.org/ont/coa/thesaurus'
p523
S'thesaurus.2'
p524
sS'http://purl.phyloviz.net/ontology/typon'
p525
S'typon.xml'
p526
sS'http://vocab.deri.ie/lsdi'
p527
S'lsdi.rdf'
p528
sS'http://libver.math.auth.gr/resource/record1_1262#'
p529
S'agent3911.rdf'
p530
sS'http://purl.obolibrary.org/obo/dron.owl/'
p531
S'dron-full.owl'
p532
sS'http://neomark.owl'
p533
S'neomark_ontology.owl'
p534
sS'http://onto.eva.mpg.de/obo/pathology.owl#'
p535
S'pathology.owl'
p536
sS'http://mmisw.org/ont/CUAHSI/AtmosphericHydrologicCore'
p537
S'AtmosphericHydrologicCore'
p538
sS'http://purl.org/net/orth'
p539
S'oo.owl'
p540
sS'http://purl.org/autism-ontology/1.0/autism-merged.owl'
p541
S'autism-merged.owl'
p542
sS'http://purl.bioontology.org/ontology/MTHMST/'
p543
S'MSTDE-FRE.rdf'
p544
sS'http://www.w3.org/ns/wsdl-rdf'
p545
S'wsdl-rdf.1'
p546
sS'http://www.neli.org.uk/skos/neli'
p547
S'neli.rdf'
p548
sS'http://www.w3.org/2004/02/skos/core'
p549
S'core.1'
p550
sS'http://opendata.inra.fr/resources/Durum_Wheat#'
p551
S'DURUM_WHEAT.owl'
p552
sS'http://mmisw.org/ont/ooi_epe/instrument_mapping'
p553
S'instrument_mapping'
p554
sS'http://purl.obolibrary.org/obo/cl.owl'
p555
S'cl.owl'
p556
sS'http://mmisw.org/ont/agu/indexterm'
p557
S'indexterm'
p558
sS'http://ccdb.ucsd.edu/NIF/'
p559
S'OBO_annotation_properties.owl.2'
p560
sS'&person;'
p561
S'person.owl'
p562
sS'http://www.roboearth.org/kb/roboearth.owl'
p563
S'roboearth.owl'
p564
sS'http://purl.obolibrary.org/obo/rxno.obo.owl'
p565
S'rxno.owl'
p566
sS'http://mmisw.org/ont/secoora/weather_climate'
p567
S'weather_climate'
p568
sS'http://trajano.us.es/~isabel/EHR/Support_RM.owl'
p569
S'Support_RM.owl'
p570
sS'urn:x-hp:eg/'
p571
S'owlDemoSchema.xml'
p572
sS'http://www.loa-cnr.it/ontologies/DOLCE-Lite.owl'
p573
S'DOLCE-RL.owl'
p574
sS'http://geni-orca.renci.org/owl/topology.owl'
p575
S'topology.owl'
p576
sS'http://aimlab.cs.uoregon.edu/smash/ontologies/smash-ontology.owl'
p577
S'smash-ontology.owl'
p578
sS'http://purl.obolibrary.org/obo/bfo.owl'
p579
S'bfo.owl'
p580
sS'http://mmisw.org/ont/ioos/harmonicConstituents'
p581
S'harmonicConstituents'
p582
sS'http://mmisw.org/ont/mmi/udunits2-base'
p583
S'udunits2-base'
p584
sS'&carads;'
p585
S'carads.owl'
p586
sS'http://cbo.biocomplexity.indiana.edu/svn/cbo/trunk/CBO_1_0'
p587
S'CBO.owl'
p588
sS'http://purl.org/spar/cito/'
p589
S'2014-05-22-cito-2_6_3.owl'
p590
sS'http://purl.obolibrary.org/obo/obib_merged.owl'
p591
S'obib_merged_inferred.owl'
p592
sS'http://mmisw.org/ont/comps/flag'
p593
S'flag.1'
p594
sS'http://qudt.org/1.1/vocab/dimension'
p595
S'dimen.rdf'
p596
sS'http://mmisw.org/ont/ooici/resourceType'
p597
S'resourceType'
p598
sS'http://www.ontologydesignpatterns.org/ont/lmm/LMM_L2.owl'
p599
S'LMM_L2.owl'
p600
sS'http://paul.staroch.name/thesis/SmartHomeWeather.owl#'
p601
S'SmartHomeWeather.owl'
p602
sS'http://nwalsh.com/rdf/cvs#'
p603
S'cvs.2'
p604
sS'http://vocab.deri.ie/cer'
p605
S'cer.rdf'
p606
sS'http://purl.org/iot/ontology/fiesta-iot'
p607
S'fiesta-iot.owl'
p608
sS'http://www.nada.kth.se/~mehrana/Delegation.owl'
p609
S'Delegation.owl'
p610
sS'&policy;'
p611
S'ReiPolicy.owl'
p612
sS'http://www.cs.ukzn.ac.za/zubeida/ontologies/BFOROFunctionalParticipationMerged.owl'
p613
S'BFOROFunctionalParticipationMerged.owl'
p614
sS'http://mmisw.org/ont/mvco/observableProperty'
p615
S'observableProperty'
p616
sS'&TESCHET.owl;'
p617
S'TESCHET.owl'
p618
sS'http://mmisw.org/ont/ioos/identifier_parameter_program'
p619
S'identifier_parameter_program'
p620
sS'http://www.cs.ukzn.ac.za/zubeida/ontologies/BFOROSpatialRelationsMerged.owl'
p621
S'BFOROSpatialRelationsMappings.owl'
p622
sS'http://surveillance.mcgill.ca/sso/syndromes.owl'
p623
S'syndromes.owl'
p624
sS'http://www.w3.org/2002/03owlt/description-logic/premises901'
p625
S'premises901.rdf.7'
p626
sS'http://www.w3.org/2002/03owlt/description-logic/premises903'
p627
S'premises903.rdf.12'
p628
sS'http://www.w3.org/2002/03owlt/description-logic/premises902'
p629
S'premises902.rdf.8'
p630
sS'http://nwalsh.com/rdf/exif-intrinsic#'
p631
S'exif-intrinsic.1'
p632
sS'http://www.w3.org/2002/03owlt/description-logic/premises904'
p633
S'premises904.rdf.8'
p634
sS'http://def.isotc211.org/iso19115/-1/2014/CitationAndResponsiblePartyInformation/code/CI_RoleCode/editor#'
p635
S'roleCodes.xml'
p636
sS'http://www.semanticweb.org/ontologies/2015/0/statisticalcluster.owl'
p637
S'statisticalcluster.owl'
p638
sS'http://www.semanticweb.org/ontologies/2008/1/Ontology1202401203291.owl'
p639
S'condition_5.owl'
p640
sS'http://vavlab.ee.boun.edu.tr/carera/onlira.owl'
p641
S'ONLIRA_v106.owl'
p642
sS'http://www.ontologydesignpatterns.org/ont/dul/ontopic.owl'
p643
S'ontopic.owl'
p644
sS'http://www.semanticweb.org/ontologies/2012/8/Ontology1348158066194.owl'
p645
S'eligibility-feature-hierarchy.owl'
p646
sS'http://www.co-ode.org/ontologies/ont.owl'
p647
S'PhylOnt.owl'
p648
sS'http://mmisw.org/ont/mbari/parameter_provisional'
p649
S'parameter_provisional'
p650
sS'http://mmisw.org/ont/q2o/reference'
p651
S'reference'
p652
sS'http://onto.eva.mpg.de/obo/chebi.owl#'
p653
S'chebi.owl.1'
p654
sS'http://mmisw.org/ont/oca/ocaican'
p655
S'ocaican'
p656
sS'http://mmisw.org/ont/drdc/_map'
p657
S'_map'
p658
sS'http://ontology.neuinfo.org/NIF/BiomaterialEntities/NIF-Cell.owl'
p659
S'NIF-Cell.owl'
p660
sS'https://protegewiki.stanford.edu/wiki/Special:ExportRDF/Stanford%3ASettingsXmlExample'
p661
S'Stanford:SettingsXmlExample'
p662
sS'http://www.fo-ss.ch/simon/DiplomaThesis/InheritanceProfile/InheritanceProfile.owl'
p663
S'InheritanceProfile.owl'
p664
sS'http://purl.bioontology.org/ontology/SYN'
p665
S'SYN.owl'
p666
sS'http://mmisw.org/ont/mbari/parameter'
p667
S'parameter.7'
p668
sS'http://purl.org/nbirn/birnlex/ontology/OBO_annotation_properties.owl'
p669
S'OBO_annotation_properties.owl.4'
p670
sS'http://biohackathon.org/resource/faldo'
p671
S'faldo.rdf'
p672
sS'http://www.tssg.org/public/ontologies/omg/qvt/2005/EssentialOCL.owl'
p673
S'EssentialOCL.owl'
p674
sS'https://w3id.org/scholarlydata/ontology/conference-ontology.owl'
p675
S'conference-ontology.owl'
p676
sS'http://cbakerlab.unbsj.ca:8080/ontologies/BIM.owl'
p677
S'bim_beta.owl'
p678
sS'http://onto.eva.mpg.de/obo/rex.owl#'
p679
S'rex.owl.4'
p680
sS'&obo;ido/brucellosis.owl'
p681
S'brucellosis_merged.owl'
p682
sS'http://www.cs.ukzn.ac.za/zubeida/ontologies/FunctionalParticipationGFOMappings.owl'
p683
S'FunctionalParticipationGFOMappings.owl'
p684
sS'http://vocab.deri.ie/sdg'
p685
S'sdg.rdf'
p686
sS'http://www.semanticweb.org/hll/ontologies/2013/8/untitled-ontology-2'
p687
S'RackMultipart20131003-5009-zajae3.xml'
p688
sS'http://www.cs.ukzn.ac.za/zubeida/ontologies/TemporalRelationsGFO-basicMerged.owl'
p689
S'TemporalRelationsGFO-basicMappings.owl'
p690
sS'http://www.metadat.com/xml-cart/BL2/schemas/payload/'
p691
S'DocumentFolderSchemata_2.rdf'
p692
sS'&obo;ocvdae.owl'
p693
S'ocvdae-merged.owl'
p694
sS'http://bmkeg.isi.edu/ooevv/'
p695
S'ooevv_odp_0.0.4.owl'
p696
sS'http://mmisw.org/ont/ooiplatform1/OOI_Platform'
p697
S'OOI_Platform'
p698
sS'http://purl.bioontology.org/ontology/DIAB/'
p699
S'DIAB_v90rb.owl'
p700
sS'http://www.w3.org/2008/content'
p701
S'content.rdf'
p702
sS'http://purl.org/sig/ont/fma/'
p703
S'fma.owl'
p704
sS'http://webprotege.stanford.edu/project/BTEinHSzHWlwyRnTyX0c8O'
p705
S'root-ontology.owx'
p706
sS'http://www.semanticweb.org/ontologies/2015/0/treatmentcluster.owl'
p707
S'treatmentcluster.owl'
p708
sS'http://www.lia.deis.unibo.it/research/Proteus/ontologies/CoalitionPolicy.owl'
p709
S'CoalitionPolicy.owl'
p710
sS'http://www.csiro.au/Ontologies/2009/SensorOntology.owl'
p711
S'SensorOntology20090320.owl.xml'
p712
sS'http://iri.columbia.edu/~benno/Notes/DataLibrary/RDFDAP/opendaprdf.xml'
p713
S'opendaprdf.xml'
p714
sS'http://purl.obolibrary.org/obo/chmo.owl'
p715
S'chmo.owl'
p716
sS'http://mmisw.org/ont/q2o/parameter'
p717
S'parameter.4'
p718
sS'http://mmisw.org/ont/ioos/OA'
p719
S'OA'
p720
sS'http://ontology.ihmc.us/Group.owl'
p721
S'Group.owl'
p722
sS'http://mmisw.org/ont/mmi/devterm'
p723
S'devterm'
p724
sS'http://www.owl-ontologies.com/travel.owl'
p725
S'travel(2).owl'
p726
sS'http://www.semanticweb.org/ontologies/2011/1/14/EMO.owl'
p727
S'emo.owl'
p728
sS'http://purl.obolibrary.org/obo/dinto.owl'
p729
S'dinto_1.3.owl'
p730
sS'/&obo;zeco.owl'
p731
S'zeco.owl'
p732
sS'http://scai.fraunhofer.de/CSEO'
p733
S'Exo-CSEOv1.2_BFO_FINAL_merged_2.owl'
p734
sS'http://scai.fraunhofer.de/AlzheimerOntology'
p735
S'Alzheimer Ontology v15R-xml_merged.owl'
p736
sS'http://qudt.org/1.1/vocab/dimensionalunit'
p737
S'dimensional.rdf'
p738
sS'http://mmisw.org/ont/ontoProdukt/op1'
p739
S'op1'
p740
sS'http://www.co-ode.org/ontologies/pizza/pizza.owl'
p741
S'pizza.owl'
p742
sS'http://mmisw.org/ont/cdip/term'
p743
S'term'
p744
sS'http://vocab.deri.ie/diff'
p745
S'diff.rdf'
p746
sS'http://www.isibang.ac.in/mod/ns'
p747
S'mod-ontology-09092016.owl'
p748
sS'http://www.semanticweb.org/jgraybeal/ontologies/2015/7/cedarvaluesets'
p749
S'CEDAR_Value_Sets.owl'
p750
sS'&meexp;'
p751
S'index.html.7'
p752
sS'http://mmisw.org/ont/nasa_pace/observation_mapping'
p753
S'observation_mapping'
p754
sS'http://onto.eva.mpg.de/obo/po_anatomy.owl#'
p755
S'po_anatomy.owl'
p756
sS'http://purl.obolibrary.org/obo/dpo.owl'
p757
S'dpo.owl'
p758
sS'http://mmisw.org/ont/ecs/device'
p759
S'device.1'
p760
sS'http://mmisw.org/ont/ANZRC/ANZRC_Codes'
p761
S'ANZRC_Codes'
p762
sS'http://en.openei.org/wiki/Special:ExportRDF/General_Merchandise_2009_TSD_Chicago_Low_Plug_Load_50%25_Energy_Savings'
p763
S'General_Merchandise_2009_TSD_Chicago_Low_Plug_Load_50%_Energy_Savings'
p764
sS'http://purl.obolibrary.org/obo/fbsp.owl'
p765
S'fbsp.owl'
p766
sS'http://mmisw.org/ont/ooi/ionrole'
p767
S'ionrole'
p768
sS'http://who.int/ictm/otherFactors'
p769
S'TM_OtherFactors.owl'
p770
sS'http://www.aiai.ed.ac.uk/resources/go/obo.owl#'
p771
S'obo.owl.1'
p772
sS'http://mmisw.org/ont/mmi/Equipment'
p773
S'Equipment'
p774
sS'http://vocab.deri.ie/sustainabilityTaxonomy'
p775
S'sustainabilityTaxonomy.rdf'
p776
sS'http://purl.obolibrary.org/obo/rex.owl'
p777
S'rex.owl'
p778
sS'http://vocab.deri.ie/grefine'
p779
S'grefine.rdf'
p780
sS'http://mmisw.org/ont/secoora/parameter'
p781
S'parameter.1'
p782
sS'http://mmisw.org/ont/nasa_pace/environmental_interactions'
p783
S'environmental_interactions'
p784
sS'http://purl.obolibrary.org/obo/2016-06-27/ohd-inferred.owl'
p785
S'ohd.owl'
p786
sS'http://ontology.eil.utoronto.ca/open311.owl'
p787
S'open3111.owl'
p788
sS'http://djpowell.net/schemas/atomrdf/0.3/'
p789
S'index.html.4'
p790
sS'http://mmisw.org/ont/mx/featuretype'
p791
S'featuretype'
p792
sS'http://ontology.cybershare.utep.edu/ELSEWeb/elseweb-edac.owl'
p793
S'elseweb-edac1.owl'
p794
sS'http://purl.bioontology.org/ontology/BCCHRCATALOG'
p795
S'bcchrcatalog.rdf'
p796
sS'http://www.ics.forth.gr/isl/MarineTLO/v4/marinetlo.owl'
p797
S'marinetlo1.owl'
p798
sS'&obo;OGI.owl'
p799
S'OGI.owl'
p800
sS'http://en.openei.org/wiki/Special:ExportRDF/Grocery_2009_TSD_Chicago_Baseline'
p801
S'Grocery_2009_TSD_Chicago_Baseline'
p802
sS'http://www.semanticweb.org/vanessa/ontologies/2012/7/untitled-ontology-33'
p803
S'RackMultipart20131105-23208-n8u32x.xml'
p804
sS'http://neuromorpho.org/ontologies/NMOSp.owl'
p805
S'NMOSp.owl'
p806
sS'&ontologies;CogPOver2010.owl'
p807
S'CogPO12142010.owl'
p808
sS'file:/Users/twhetzel/Documents/Stanford/Outreach/BRO/BRO_v3.0_alpha3/BRO_v3.0_alpha3.owl'
p809
S'BRO.owl'
p810
sS'http://www.disgenet.org/ds/DisGeNET/files/GeneDiseaseAssociation.owl'
p811
S'GeneDiseaseAssociation.owl'
p812
sS'http://rhizomik.net/ontologies/copyrightonto.owl'
p813
S'copyrightonto1.owl'
p814
sS'http://marigold.informatics.washington.edu:25000/~boycer/owl/2007/DIKB_evidence_ontology.owl'
p815
S'DIKB_evidence_ontology_v1.7.owl'
p816
sS'http://purl.obolibrary.org/obo/'
p817
S'OMIT.owl'
p818
sS'&gfo.owl;'
p819
S'gfo.owl'
p820
sS'http://mmisw.org/ont/mmi/udunits2-prefixes'
p821
S'udunits2-prefixes'
p822
sS'http://sysvasc.cs.man.ac.uk/formats/proteasixInOwl/proteasix'
p823
S'PxOmetazoa.owl.crdownload.xml'
p824
sS'http://www.ontologydesignpatterns.org/cp/owl/timeinterval.owl'
p825
S'timeinterval1.owl'
p826
sS'http://www.ICPS/ontologies/Activity.owl'
p827
S'Activity.owl'
p828
sS'http://staff.science.uva.nl/~lpost/SemanticModels/EpigeneticsFoundation.owl'
p829
S'EpigeneticsFoundation.owl'
p830
sS'FN#'
p831
S'3.0.1'
p832
sS'http://mmisw.org/ont/SunithaAbburu/INSAT3DDPV'
p833
S'INSAT3DDPV'
p834
sS'http://www.aiai.ed.ac.uk/~jessicac/project/akt/akt-map-onto.xml'
p835
S'akt-map-onto.xml.1'
p836
sS'http://www.semanticweb.org/inra/ms2o'
p837
S'PO2_Core.owl'
p838
sS'http://chem.deri.ie/granatum'
p839
S'CancerChemopreventionOntology.owl'
p840
sS'http://semantic-dicom.org/dcm'
p841
S'dicom.owl'
p842
sS'http://multimedia.semanticweb.org/COMM/datatype.owl'
p843
S'datatype.owl'
p844
sS'http://www.semwebtech.org/languages/2006/rdfcl'
p845
S'rdfcl.rdf'
p846
sS'http://onto.eva.mpg.de/obo/psi-mod.owl#'
p847
S'psi-mod.owl'
p848
sS'http://ccdb.ucsd.edu/NIF/NIF-Function.owl'
p849
S'NIF-Function.owl'
p850
sS'http://iridl.ldeo.columbia.edu/ontologies/functions.owl'
p851
S'functions.owl.2'
p852
sS'http://data.europa.eu/euodp/ontologies/ec-odp'
p853
S'ec-odp.owl'
p854
sS'http://mmisw.org/ont/mvco/process'
p855
S'process'
p856
sS'http://jastor.adtech.ibm.com/testonts/Ski'
p857
S'ski.owl'
p858
sS'http://mmisw.org/ont/ioos/datum'
p859
S'datum'
p860
sS'&contact;'
p861
S'contact.owl'
p862
sS'http://mmisw.org/ont/cchhg/cchhg_product_type'
p863
S'cchhg_product_type'
p864
sS'http://www.evolutionaryontology.org/cdao/1.0/cdao.owl'
p865
S'cdao1.owl'
p866
sS'http://bioportal/bioontology.org/ontologies/HIVO0004'
p867
S'HIVOnt016.owl'
p868
sS'http://mmisw.org/ont/SunithaAbburu/INSAT3DM'
p869
S'INSAT3DM'
p870
sS'http://iridl.ldeo.columbia.edu/ontologies/irigaz_frwk.owl'
p871
S'irigaz_frwk.owl'
p872
sS'http://bblfish.net/work/atom-owl/2004-08-12/Atom.owl#'
p873
S'Atom.owl'
p874
sS'http://qudt.org/1.1/schema/qudt'
p875
S'qu.rdf'
p876
sS'http://www.meteck.org/files/ontologies/stuff.owl'
p877
S'stuff.owl'
p878
sS'&obo;omrse.owl'
p879
S'omrse.owl'
p880
sS'http://purl.org/gen/0.1#'
p881
S'gen01.rdf'
p882
sS'http://vocab.deri.ie/scovolink'
p883
S'scovolink.rdf'
p884
sS'http://protozoadb.biowebdb.org/22/ogroup'
p885
S'ogroup-v1.0.owl'
p886
sS'&dist;'
p887
S'spaceDistribution.owl'
p888
sS'http://mmisw.org/ont/secoora/param2cat'
p889
S'param2cat'
p890
sS'http://www.limics.fr/ontologies/ontolurgences'
p891
S'OntolUrgences_v3.0.4.owl'
p892
sS'http://www.w3.org/ns/prov'
p893
S'prov-o.owl'
p894
sS'http://scai.fraunhofer.de/PTS'
p895
S'PTS_Revised_Merged_Final.owl'
p896
sS'&conference;'
p897
S'conference.owl'
p898
sS'http://mmisw.org/ont/ioc/ctdfield'
p899
S'ctdfield'
p900
sS'http://vocab.deri.ie/ppmo'
p901
S'ppmo.rdf'
p902
sS'http://purl.bioontology.org/ontology/ICD10CM/'
p903
S'ICD10CM.rdf'
p904
sS'http://www.semanticweb.org/david/ontologies/2013/0/pathLex.owl'
p905
S'pathLex.owl'
p906
sS'http://mmisw.org/ont/ODMT/ODMTT'
p907
S'ODMTT'
p908
sS'http://www.w3.org/2009/SSN-XG/Ontologies/SensorBasis.owl'
p909
S'SensorBasis.owl'
p910
sS'http://www.ICPS/ontologies/PatientOutcomes'
p911
S'PatientOutcomes.owl'
p912
sS'&owl2;agentrole.owl'
p913
S'agentrole.owl'
p914
sS'http://mmisw.org/ont/graybealski/mappingcategory'
p915
S'mappingcategory'
p916
sS'http://vocab.deri.ie/xfn'
p917
S'xfn.rdf'
p918
sS'http://onto.eva.mpg.de/obo/dictyostelium_anatomy.owl#'
p919
S'dictyostelium_anatomy.owl'
p920
sS'http://mmisw.org/ont/ooi_epe/parent_mapping'
p921
S'parent_mapping'
p922
sS'&dev;'
p923
S'device'
p924
sS'http://webprotege.stanford.edu/project/8pMSl9xBFPU3Gtu4U9kAEE'
p925
S'root-ontology.owl'
p926
sS'http://mmisw.org/ont/calcofi/nutrient'
p927
S'nutrient'
p928
sS'http://purl.org/nbirn/birnlex/ontology/obo-foundry/core/obo-foundry-core.owl'
p929
S'obo-foundry-core.owl.1'
p930
sS'http://onto.eva.mpg.de/obo/human_disease.owl#'
p931
S'human_disease.owl.1'
p932
sS'http://www.w3.org/2002/03owlt/jjc/t019'
p933
S't019.rdf'
p934
sS'http://vocab.deri.ie/void'
p935
S'void.rdf'
p936
sS'http://vocab.deri.ie/cap'
p937
S'cap.rdf'
p938
sS'http://www.semanticweb.org/ontologies/2015/0/testsandtestingcluster.owl'
p939
S'testsandtestingcluster.owl'
p940
sS'http://mmisw.org/ont/woce/qualityFlag'
p941
S'qualityFlag.2'
p942
sS'http://qudt.org/vocab/quantity'
p943
S'quan.rdf'
p944
sS'http://www.co-ode.org/ontologies/untangling-hormones.owl'
p945
S'Normalisation-demo-hormones-01-01.owl'
p946
sS'http://mmisw.org/ont/CUAHSI/SubstrateHydrologicSyn'
p947
S'SubstrateHydrologicSyn'
p948
sS'http://mmisw.org/ont/mvco/properties'
p949
S'properties'
p950
sS'http://example.org/survey-sample/person03#'
p951
S'survey-sample.rdf'
p952
sS'http://vocab.deri.ie/pdo'
p953
S'pdo.rdf'
p954
sS'http://rdf.geospecies.org/ont/gsontology'
p955
S'gsontology.owl'
p956
sS'http://geni-orca.renci.org/owl/ethernet.owl'
p957
S'ethernet.owl'
p958
sS'http://twiki.pasoa.ecs.soton.ac.uk/pub/PASOA/Ontologies/temporal.owl'
p959
S'temporal.owl.2'
p960
sS'http://www.cs.ukzn.ac.za/zubeida/ontologies/DOLCE-LiteGFOMerged.owl'
p961
S'DOLCE-LiteGFOMappings.owl'
p962
sS'http://ontology.cybershare.utep.edu/ELSEWeb/mappings/elseweb-mappings.owl'
p963
S'elseweb-mappings.owl'
p964
sS'http://nlp.shef.ac.uk/abraxas/ontologies/animals.owl'
p965
S'animals.owl'
p966
sS'http://www.w3.org/2001/sw/hcls/ns/transmed/tmo'
p967
S'tmo.owl'
p968
sS'&state;'
p969
S'chemState.owl'
p970
sS'http://purl.jp/bio/11/csso/'
p971
S'CSSO_ver0.6.owl'
p972
sS'http://mmisw.org/ont/calcofi/species'
p973
S'species'
p974
sS'http://ontology.ihmc.us/temporalAggregates.owl'
p975
S'temporalAggregates.owl'
p976
sS'http://www.daml.org/services/owl-s/1.1/generic/Expression.owl'
p977
S'Expression.owl'
p978
sS'http://mmisw.org/ont/ioos/parameter'
p979
S'parameter.2'
p980
sS'http://mmisw.org/ont/mmi/general'
p981
S'general.1'
p982
sS'http://www.cuahsi.org/navigation'
p983
S'navigation.owl'
p984
sS'http://mmisw.org/ont/mmi/udunits2-accepted'
p985
S'udunits2-accepted'
p986
sS'https://bitbucket.org/PlantExpAssay/ontology/raw/v0.1/PipelinePatterns.owl'
p987
S'PipelinePatterns.owl'
p988
sS'http://vocab.deri.ie/br'
p989
S'br.rdf'
p990
sS'http://onto.eva.mpg.de/obo/environment_ontology.owl#'
p991
S'environment_ontology.owl'
p992
sS'http://ccdb.ucsd.edu/NIF/BIRNLex-OBO-UBO.owl'
p993
S'BIRNLex-OBO-UBO.owl.1'
p994
sS'http://bioontology.org/ontologies/tma-minimal#'
p995
S'tma_minimal032510.owl'
p996
sS'http://mmisw.org/ont/griidc_test/octr'
p997
S'octr'
p998
sS'http://www.kp-lab.org/ontologies/technicalServices/personOrganization.owl'
p999
S'personOrganization.rdf-xml.owl'
p1000
sS'http://mmisw.org/ont/mmi/resourcetype'
p1001
S'resourcetype'
p1002
sS'http://mmisw.org/ont/ooici/cyberinfrastructureConcept'
p1003
S'cyberinfrastructureConcept'
p1004
sS'http://mmisw.org/ont/CUAHSI/SubstrateHydrologicCompound'
p1005
S'SubstrateHydrologicCompound'
p1006
sS'&Policy;'
p1007
S'Policy.owl.1'
p1008
sS'http://mmisw.org/ont/process/mvco_processing'
p1009
S'mvco_processing'
p1010
sS'http://vocab.deri.ie/rentprop'
p1011
S'rentprop.rdf'
p1012
sS'file:///home/priya/Desktop/isibangalore/new_ontologies/swoogle1/ttl/assembler.ttl#'
p1013
S'assembler.rdf'
p1014
sS'http://purl.obolibrary.org/obo/taxrank.owl'
p1015
S'taxrank1.owl'
p1016
sS'http://www.loria.fr/~coulet/ontology/snpontology/version1.6/snpontology_full.owl/'
p1017
S'snpontology_full.owl'
p1018
sS'http://mmisw.org/ont/mvco/historyEventType'
p1019
S'historyEventType'
p1020
sS'http://qudt.org/1.1/vocab/quantity'
p1021
S'quanti.rdf'
p1022
sS'http://mmisw.org/ont/nasa_pace/pigments'
p1023
S'pigments'
p1024
sS'http://mmisw.org/ont/ioos/map_core_variable'
p1025
S'map_core_variable'
p1026
sS'http://ontology.neuinfo.org/NIF/Backend/OBO_annotation_properties.owl'
p1027
S'OBO_annotation_properties.owl.1'
p1028
sS'&ancestro;ancestro.owl'
p1029
S'ancestro_inferred.owl'
p1030
sS'http://mmisw.org/ont/isdm/instruments'
p1031
S'instruments.1'
p1032
sS'http://onto.eva.mpg.de/obo/EMAP.owl#'
p1033
S'EMAP.owl.1'
p1034
sS'http://vocab.deri.ie/csp'
p1035
S'csp.rdf'
p1036
sS'http://www.w3.org/2007/uwa/context/common.owl'
p1037
S'common.owl'
p1038
sS'http://onto.eva.mpg.de/obo/pathway.owl#'
p1039
S'pathway.owl.1'
p1040
sS'http://vocab.deri.ie/emissions'
p1041
S'emissions.rdf'
p1042
sS'&introspector_gcc.owl;'
p1043
S'test_gcc3_ont.owl?file_id=10438'
p1044
sS'http://purl.org/nbirn/birnlex/ontology/annotation/OBO_annotation_properties.owl'
p1045
S'OBO_annotation_properties.owl.5'
p1046
sS'http://mmisw.org/ont/mapcfsecoora/MCFS'
p1047
S'MCFS'
p1048
sS'http://kmi.open.ac.uk/projects/smartproducts/ontologies/food.owl'
p1049
S'food.owl'
p1050
sS'http://www.gsic.uva.es/ontologies/ontoolcoleModel.owl'
p1051
S'ontoolcoleModel.owl'
p1052
sS'http://protege.stanford.edu/ontologies/metadata/provenance.owl'
p1053
S'provenance.owl'
p1054
sS'http://onto.eva.mpg.de/obo/gene_ontology.owl#'
p1055
S'gene_ontology.owl'
p1056
sS'http://vocab.deri.ie/xps'
p1057
S'xps.rdf'
p1058
sS'http://purl.obolibrary.org/obo/obi.owl'
p1059
S'obi11.owl'
p1060
sS'http://ontology.neuinfo.org/NIF/BiomaterialEntities/NIF-Subcellular.owl'
p1061
S'NIF-Subcellular.owl'
p1062
sS'http://www.cognitiveatlas.org/ontology/cogat.owl'
p1063
S'cogat.owl'
p1064
sS'http://purl.obolibrary.org/obo/obcs.owl'
p1065
S'obcs_merged_inferred.owl'
p1066
sS'http://purl.org/biotop/biotop.owl'
p1067
S'biotop1.owl'
p1068
sS'&ontologies;PatientSafetyIncident'
p1069
S'PatientSafetyIncident.owl'
p1070
sS'http://mmisw.org/ont/mvco/qcTests'
p1071
S'qcTests'
p1072
sS'http://www.tssg.org/public/ontologies/omg/odm/2006/odm_2006_04_03_kludge.owl'
p1073
S'odm_2006_04_03_kludge.owl'
p1074
sS'http://purl.obolibrary.org/obo/x-bfo.owl'
p1075
S'monarch.owl'
p1076
sS'http://www.semanticweb.org/ontologies/2015/0/educationalcluster.owl'
p1077
S'educationalcluster.owl'
p1078
sS'http://vocab.deri.ie/dady'
p1079
S'dady.rdf'
p1080
sS'http://www.ifomis.org/acgt/1.0'
p1081
S'document13.owl'
p1082
sS'&obo;agro-edit.owl'
p1083
S'agro.owl'
p1084
sS'http://www.w3.org/2002/07/owl'
p1085
S'Fire0.9.1.rdf'
p1086
sS'http://mmisw.org/ont/ooici/ceiConcept'
p1087
S'ceiConcept'
p1088
sS'http://mmisw.org/ont/coa/coa'
p1089
S'coa'
p1090
sS'http://vivoweb.org/ontology/core#'
p1091
S'vivo-isf-public-1.6.owl'
p1092
sS'http://kmi.open.ac.uk/semanticweb/ontologies/owl/aktive-portal-ontology-latest.owl#'
p1093
S'aktive-portal-ontology-latest.owl'
p1094
sS'http://purl.obolibrary.org/obo/cio.owl'
p1095
S'cio.owl'
p1096
sS'http://mmisw.org/ont/fao/habitatclassification'
p1097
S'habitatclassification'
p1098
sS'http://mmisw.org/ont/secoora/current'
p1099
S'current.3'
p1100
sS'http://www.qurator.org'
p1101
S'DQOntology.owl'
p1102
sS'http://vocab.deri.ie/gem-layout'
p1103
S'gem-layout.rdf'
p1104
sS'http://www.semanticweb.org/ontologies/2008/1/Ontology1202405422533.owl'
p1105
S'cto_obo.owl'
p1106
sS'http://twiki.pasoa.ecs.soton.ac.uk/pub/PASOA/Ontologies/process.owl'
p1107
S'pstruct025.owl'
p1108
sS'http://www.example.org/food.owl'
p1109
S'food1.owl'
p1110
sS'http://onto.eva.mpg.de/obo/fix.owl#'
p1111
S'fix.owl.3'
p1112
sS'http://www.cea.fr/ontotoxnuc'
p1113
S'ontologie_toxnuc_20140817.owl'
p1114
sS'http://purl.obolibrary.org/obo/ido.owl'
p1115
S'ido-merged.owl'
p1116
sS'http://ontology.eil.utoronto.ca/organization.owl'
p1117
S'organization.owl'
p1118
sS'http://mmisw.org/ont/CUAHSI/LandSynthesis'
p1119
S'LandSynthesis'
p1120
sS'http://www.ontologydesignpatterns.org/cp/owl/situation.owl'
p1121
S'situation1.owl'
p1122
sS'http://mmisw.org/ont/odm2/SamplingFeatureType'
p1123
S'SamplingFeatureType'
p1124
sS'http://mmisw.org/ont/mmi/authority'
p1125
S'authority'
p1126
sS'http://mmisw.org/ont/secoora/atmospheric'
p1127
S'atmospheric'
p1128
sS'&swoogle;'
p1129
S'swoogle.owl'
p1130
sS'http://mouse.brain-map.org/atlas/index.html'
p1131
S'ABA.owl'
p1132
sS'file:/Users/fennieliang/Documents/Doc/Kcl/201504_experiment/Read_V22015.owl'
p1133
S'Read_V22015.owl'
p1134
sS'http://www.loa-cnr.it/ontologies/DUL.owl'
p1135
S'DUL_3.22_NOTConsidered.owl'
p1136
sS'http://aims.fao.org/aos/geopolitical.owl'
p1137
S'geopolitical.owl'
p1138
sS'http://mmisw.org/ont/nasa_pace/ecology'
p1139
S'ecology'
p1140
sS'http://ontology.cybershare.utep.edu/ELSEWeb/elseweb-lifemapper-parameters.owl'
p1141
S'elseweb-lifemapper-parameters.owl'
p1142
sS'http://mmisw.org/ont/ogc/def'
p1143
S'def'
p1144
sS'http://mmisw.org/ont/BOEM/SFM'
p1145
S'SFM'
p1146
sS'http://onto.eva.mpg.de/obo/experimentaltechnique.owl#'
p1147
S'experimentaltechnique.owl'
p1148
sS'http://www.sw.deri.org/~zubeida/ROMULUS/ontologies/DOLCE-No-Quality-Qualia'
p1149
S'DOLCE-No-Quality-Qualia.owl'
p1150
sS'file:/C:/Lea/ontologies/environnement/leo.obo'
p1151
S'eol_v4__collaboration.owl'
p1152
sS'http://vocab.deri.ie/dcat'
p1153
S'dcat.rdf'
p1154
sS'http://www.cs.ukzn.ac.za/ontologies/BFORODOLCE-LiteMerged.owl'
p1155
S'BFORODOLCE-LiteMappings.owl'
p1156
sS'http://iris.med.duth.gr/research/ecp/ontology/eCP.owl'
p1157
S'eCP.owl'
p1158
sS'http://mmisw.org/ont/ioos/map_ioos_cf'
p1159
S'map_ioos_cf'
p1160
sS'http://en.openei.org/wiki/Special:ExportRDF/General_Merchandise_2009_TSD_Miami_High_Plug_Load_Baseline'
p1161
S'General_Merchandise_2009_TSD_Miami_High_Plug_Load_Baseline'
p1162
sS'http://purl.bioontology.org/ontology/RXNORM/'
p1163
S'RXNORM.rdf'
p1164
sS'http://www.loc.gov/mods/rdf/v1'
p1165
S'MODS_RDF_Ontology.rdf'
p1166
sS'http://mmisw.org/ont/Technology/ComputerNetworks/'
p1167
S'CN2.owl'
p1168
sS'http://elite.polito.it/ontologies/dogont.owl'
p1169
S'dogont1.owl'
p1170
sS'http://www.semanticweb.org/ontologies/2013/1/PCORI.owl'
p1171
S'PCORI_finalv2.owl'
p1172
sS'http://www.kp-lab.org/ontologies/SMAT#'
p1173
S'SMATApplicationOntologyV1.0jValidated.owl'
p1174
sS'http://ontology.neuinfo.org/NIF/1.0/BiomaterialEntities/sequence.owl'
p1175
S'sequence.owl.4'
p1176
sS'&obo;vo.owl'
p1177
S'vo.owl'
p1178
sS'http://mmisw.org/ont/ioos/definition'
p1179
S'definition'
p1180
sS'http://www.owl-ontologies.com/Ontology1361987617.owl'
p1181
S'bionutrition_cam9.owl'
p1182
sS'http://bblfish.net/work/atom-owl/2006-06-06/'
p1183
S'AtomOwl.rdf'
p1184
sS'http://mmisw.org/ont/secoora/water_quality'
p1185
S'water_quality'
p1186
sS'http://www.semanticweb.org/ontologies/2008/1/Ontology1204037102846.owl'
p1187
S'SitBAC1_3.owl'
p1188
sS'http://www.owl-ontologies.com/Ontology1416674558.owl'
p1189
S'iGTO.owl'
p1190
sS'https://protegewiki.stanford.edu/wiki/Special:ExportRDF/Pr4_UG_rv_On_RDF_XML_rend'
p1191
S'Pr4_UG_rv_On_RDF_XML_rend'
p1192
sS'http://mmisw.org/ont/mmi/usglobec'
p1193
S'usglobec'
p1194
sS'http://purl.jp/bio/01/mccv#'
p1195
S'mccv_v0.96.owl'
p1196
sS'http://vocab.deri.ie/w3p'
p1197
S'w3p.rdf'
p1198
sS'http://purl.bioontology.org/ontology/UATC/'
p1199
S'ATC.rdf'
p1200
sS'http://ontology.ihmc.us/Entity.owl'
p1201
S'Entity.owl'
p1202
sS'http://lsdis.cs.uga.edu/projects/glycomics/propreo'
p1203
S'ProPreO-060506.owl'
p1204
sS'http://onto.eva.mpg.de/obo/tissuepreparation.owl#'
p1205
S'tissuepreparation.owl.1'
p1206
sS'http://www.ccs.neu.edu/home/kenb/STO.owl'
p1207
S'STO.owl'
p1208
sS'http://protege.stanford.edu/ontologies/metadata/BioPortalMetadata.owl'
p1209
S'BioPortalMetadata.owl'
p1210
sS'http://ontology.cybershare.utep.edu/ELSEWeb/elseweb-lifemapper.owl'
p1211
S'elseweb-lifemapper.owl'
p1212
sS'&dtm;'
p1213
S'daml-time'
p1214
sS'http://menelastop.ics.upmc.fr/'
p1215
S'Menelas-Top-20130715.owl'
p1216
sS'http://www.bioontology.org/pma.owl'
p1217
S'pma.owl'
p1218
sS'http://daml.umbc.edu/ontologies/webofbelief/imports/foaf-dl.owl'
p1219
S'foaf-dl.owl'
p1220
sS'http://mmisw.org/ont/woce/qcFlag'
p1221
S'qcFlag'
p1222
sS'http://mmisw.org/ont/ioos/platform'
p1223
S'platform'
p1224
sS'http://purl.org/cwmo/'
p1225
S'CWMO-042.owl'
p1226
sS'http://ogms.googlecode.com/svn/trunk/src/ontology/ogms.owl'
p1227
S'ogms1.owl'
p1228
sS'http://www.estrellaproject.org/lkif-core/mereology.owl'
p1229
S'mereology.owl'
p1230
sS'http://mmisw.org/ont/isdm/qvalue'
p1231
S'qvalue'
p1232
sS'http://mmisw.org/ont/CUAHSI/LandCore'
p1233
S'LandCore'
p1234
sS'http://www.umweltbundesamt.at/fileadmin/site/daten/Ontologien/CEDEX/owl/cedexAuxilliary.owl'
p1235
S'cedexAuxilliary.owl.1'
p1236
sS'http://www.mistea.supagro.inra.fr/ontologies/2016/v4/ontofp'
p1237
S'ofpe-4.1.owl'
p1238
sS'http://biomanta.sourceforge.net/2007/07/psimi_instance_edit.owl'
p1239
S'psimi_instance_edit.owl.1'
p1240
sS'http://oaei.ontologymatching.org/2008/benchmarks/257/onto.rdf#'
p1241
S'onto.rdf.12'
p1242
sS'http://geni-orca.renci.org/owl/layer.owl'
p1243
S'layer.owl'
p1244
sS'http://www.semanticweb.org/owl/owlapi/turtle'
p1245
S'ngsonto2016_innuendo.owl'
p1246
sS'http://www.semanticweb.org/ontologies/2009/9/Ontology1255357986125.owl'
p1247
S'BRCO_Edition_v3.0.owl'
p1248
sS'http://www.w3.org/2007/uwa/context/software.owl'
p1249
S'software.owl'
p1250
sS'&edamontology;BioMedicalTopics_placeholder.owl'
p1251
S'BioMedicalTopics.owl'
p1252
sS'http://vip.creatis.insa-lyon.fr/ontovip/v1.0/ontovip.owl'
p1253
S'ontovip.owl'
p1254
sS'http://www.kp-lab.org/ontologies/CL#'
p1255
S'CL.rdf-xml-3.owl'
p1256
sS'http://vocab.org/whisky/terms'
p1257
S'terms.rdf'
p1258
sS'http://mmisw.org/ont/lb/ti'
p1259
S'ti'
p1260
sS'http://onto.eva.mpg.de/obo/cereals_development.owl#'
p1261
S'cereals_development.owl'
p1262
sS'http://mmisw.org/ont/ioos/map_societal_areas'
p1263
S'map_societal_areas'
p1264
sS'http://purl.org/obo/owl/'
p1265
S'ro_bfo_bridge.owl.1'
p1266
sS'http://www.semanticweb.org/abed/ontologies/2015/2/untitled-ontology-346'
p1267
S'MyOntoServiceFull_FallDetection.owl'
p1268
sS'http://mmisw.org/ont/ioos/ioos_core_cf_map'
p1269
S'ioos_core_cf_map'
p1270
sS'&all;'
p1271
S'sweetAll.owl'
p1272
sS'http://www.thezfiles.co.za/ontologies/BFORO.owl'
p1273
S'BFORO.owl'
p1274
sS'&dreggie;'
p1275
S'dreggie-ont.owl'
p1276
sS'http://purl.obolibrary.org/obo/tto.owl'
p1277
S'tto.owl'
p1278
sS'http://purl.org/pav'
p1279
S'pav.owl'
p1280
sS'http://vocab.deri.ie/wsapo'
p1281
S'wsapo.rdf'
p1282
sS'http://ontology.neuinfo.org/BIRNLex/birnlex.owl'
p1283
S'birnlex.owl'
p1284
sS'http://inference-web.org/2.0/ds.owl'
p1285
S'ds1.owl'
p1286
sS'http://mmisw.org/ont/comps/COMPSPC'
p1287
S'COMPSPC'
p1288
sS'http://mmisw.org/ont/calcofi/rptdata'
p1289
S'rptdata'
p1290
sS'http://mmisw.org/ont/secoora/wave'
p1291
S'wave'
p1292
sS'http://purl.obolibrary.org/obo/vario.owl'
p1293
S'vario.owl'
p1294
sS'http://www.dispedia.de/'
p1295
S'dispediaCoreComplete.xml'
p1296
sS'http://vocab.deri.ie/gem-base'
p1297
S'gem-base.rdf'
p1298
sS'http://ontology.ihmc.us/ActionStatus.owl'
p1299
S'ActionStatus.owl'
p1300
sS'http://www.semanticweb.org/dimitrios/ontologies/2013/2/untitled-ontology-2'
p1301
S'cabro.owl'
p1302
sS'http://mmisw.org/ont/CUAHSI/WaterQuality'
p1303
S'WaterQuality'
p1304
sS'&project;'
p1305
S'project.owl'
p1306
sS'&plant;'
p1307
S'biolPlant.owl'
p1308
sS'http://anobase.vectorbase.org/mirnao/mirnao.owl'
p1309
S'RackMultipart20131210-10031-3l5z92.xml'
p1310
sS'http://geni-orca.renci.org/owl/collections.owl'
p1311
S'collections.owl.1'
p1312
sS'http://mmisw.org/ont/ioos/swe_element_type'
p1313
S'swe_element_type'
p1314
sS'http://purl.bioontology.org/ontology/AIR/'
p1315
S'AI-RHEUM.rdf'
p1316
sS'http://www.sw.deri.org/~zubeida/bfo-continuants.owl'
p1317
S'bfo-continuants.owl'
p1318
sS'http://mmisw.org/ont/ooi_epe/sites'
p1319
S'sites'
p1320
sS'http://mmisw.org/ont/ioos/marine_biogeography'
p1321
S'marine_biogeography'
p1322
sS'http://mimi.case.edu/ontologies/2009/1/UnitsOntology'
p1323
S'UnitsOntology-SDO.owl'
p1324
sS'http://www.owl-ontologies.com/harrypotter.owl'
p1325
S'harry_potter.rdf-xml.owl.1'
p1326
sS'http://www.owl-ontologies.com/REPO.owl'
p1327
S'RepO.owl'
p1328
sS'http://kt.ijs.si/panovp/OntoDT'
p1329
S'OntoDT.owl'
p1330
sS'http://www.architexturez.in/+/--c--/caad.3.0.rdf.owl'
p1331
S'caad.3.0.rdf.owl'
p1332
sS'http://mmisw.org/ont/calcofi/prododata'
p1333
S'prododata'
p1334
sS'http://www.semanticweb.org/ontologies/2014/11/legal-2.owl'
p1335
S'legal-2.owl'
p1336
sS'http://mmisw.org/ont/mvco/mvco'
p1337
S'mvco'
p1338
sS'http://www.ifomis.org/bfo/1.1'
p1339
S'bfo-1.1-el.owl'
p1340
sS'http://www.w3.org/2002/03owlt/jjc/t055'
p1341
S't055.rdf'
p1342
sS'http://mmisw.org/ont/ndbc/qualityFlag_hard'
p1343
S'qualityFlag_hard'
p1344
sS'http://mmisw.org/ont/CUAHSI/LandCompound'
p1345
S'LandCompound'
p1346
sS'http://mmisw.org/ont/mvco/qcflag'
p1347
S'qcflag'
p1348
sS'http://www.ICPS/ontologies/AmelioratingActions.owl'
p1349
S'AmelioratingActions.owl'
p1350
sS'http://onstr.googlecode.com/svn/tags/currentRelease/2014-09-03/ONSTR.owl'
p1351
S'ONSTR.owl'
p1352
sS'http://dataportal.ucar.edu/schemas/esg.owl'
p1353
S'esg.owl'
p1354
sS'&constraint;'
p1355
S'ReiConstraint.owl'
p1356
sS'http://mmisw.org/ont/CUAHSI/AtmosphericHydrologicSynthesis'
p1357
S'AtmosphericHydrologicSynthesis'
p1358
sS'http://def.isotc211.org/iso19115/2006/CitationAndResponsiblePartyInformation'
p1359
S'19115_CI.xml'
p1360
sS'http://swat.cse.lehigh.edu/onto/PoliticianStateOntology_03.owl'
p1361
S'PoliticianStateOntology_03.owl'
p1362
sS'http://vocab.deri.ie/corelf'
p1363
S'corelf.rdf'
p1364
sS'http://ontology.cybershare.utep.edu/ELSEWeb/elseweb-modelling.owl'
p1365
S'elseweb-modelling.owl'
p1366
sS'http://purl.obolibrary.org/obo/olatdv.owl'
p1367
S'olatdv.owl'
p1368
sS'http://ontology.neuinfo.org/NIF/Function/NIF-Function.owl'
p1369
S'NIF-Function.owl.1'
p1370
sS'http://www.bmi.utah.edu/ontologies/2015/hfo'
p1371
S'hfo.owl'
p1372
sS'http://www.cs.nmsu.edu/~epontell/Ontologies/phylogenetic_methods.owl'
p1373
S'phylogenetic_methods.owl'
p1374
sS'http://libver.math.auth.gr/resource/record1_10#'
p1375
S'record1_10.rdf'
p1376
sS'&meac;'
p1377
S'index.html.8'
p1378
sS'http://mmisw.org/ont/calcofi/bottledata'
p1379
S'bottledata'
p1380
sS'http://mmisw.org/ont/ndbc/qualityFlag_soft'
p1381
S'qualityFlag_soft'
p1382
sS'http://purl.obolibrary.org/obo/nbo.owl'
p1383
S'behavior.owl'
p1384
sS'http://scai.fraunhofer.de/MSOntology'
p1385
S'MSontologyfinal_BFOversion.owl'
p1386
sS'http://mmisw.org/ont/CUAHSI/SubstrateHydrologicCore'
p1387
S'SubstrateHydrologicCore'
p1388
sS'http://purl.obolibrary.org/obo/pw.owl'
p1389
S'pw.owl'
p1390
sS'http://mmisw.org/ont/wod/qualityFlag'
p1391
S'qualityFlag.1'
p1392
sS'&PICO2.owl;'
p1393
S'PICO2.owl'
p1394
sS'http://mmisw.org/ont/coa/icancoa'
p1395
S'icancoa'
p1396
sS'http://www.semanticweb.org/pallabi.d/ontologies/2014/2/untitled-ontology-11'
p1397
S'Cell line ontology v2.0.owl'
p1398
sS'&PHIL;'
p1399
S'philosurfical.owl'
p1400
sS'http://mmisw.org/ont/CUAHSI/OceanCore'
p1401
S'OceanCore'
p1402
sS'&obo;VICO_merged.owl'
p1403
S'vico_merged.owl'
p1404
sS'http://ccdb.ucsd.edu/NIF/BIRNLex_annotation_properties.owl'
p1405
S'BIRNLex_annotation_properties.owl.5'
p1406
sS'http://swat.cse.lehigh.edu/onto/univ-bench.owl'
p1407
S'univ-bench.owl'
p1408
sS'http://purl.obolibrary.org/obo/vto.owl'
p1409
S'vto.owl'
p1410
sS'http://purl.obolibrary.org/obo/pato.owl'
p1411
S'pato.owl'
p1412
sS'&evt;'
p1413
S'event'
p1414
sS'http://autopoiesis.foi.hr/project.php?name=KM+-+Tim+35'
p1415
S'owlexport.php?proorg=KM+-+Tim+35'
p1416
sS'&Backend;BIRNLex_annotation_properties.owl'
p1417
S'BIRNLex_annotation_properties.owl'
p1418
sS'http://autopoiesis.foi.hr/project.php?name=KM+-+Tim+30'
p1419
S'owlexport.php?proorg=KM+-+Tim+30'
p1420
sS'http://staff.science.uva.nl/~lpost/SemanticModels/TFBS.owl'
p1421
S'TFBS.owl'
p1422
sS'http://purl.bioontology.org/ontology/ICPC/'
p1423
S'ICPC.rdf'
p1424
sS'http://www.cs.ukzn.ac.za/zubeida/ontologies/TemporalRelationsBFOMerged.owl'
p1425
S'TemporalRelationsBFOMerged.owl'
p1426
sS'http://mmisw.org/ont/ioos/active_acoustic_metadata'
p1427
S'active_acoustic_metadata'
p1428
sS'http://www.semanticweb.org/ontologies/2009/9/12/Ontology1255323704656.owl'
p1429
S'Breast cell line ontology.owl'
p1430
sS'&obo;in/ino.owl'
p1431
S'INO.owl'
p1432
sS'http://www.ICPS/ontologies/Clothing.owl'
p1433
S'Clothing.owl'
p1434
sS'https://protegewiki.stanford.edu/wiki/Special:ExportRDF/OBO_Tools'
p1435
S'OBO_Tools'
p1436
sS'http://ccdb.ucsd.edu/NIF/NIF-Dysfunction.owl'
p1437
S'NIF-Dysfunction.owl'
p1438
sS'&cpr;'
p1439
S'CPR.owl'
p1440
sS'http://www.mathiswebs.com/ontology/svg_ont.owl'
p1441
S'svg_ont.owl'
p1442
sS'http://mmisw.org/ont/compass/instruments_v3'
p1443
S'instruments_v3'
p1444
sS'http://mmisw.org/ont/mvco/historyEventList'
p1445
S'historyEventList'
p1446
sS'http://iridl.ldeo.columbia.edu/ontologies/iriterms.owl'
p1447
S'iriterms.owl'
p1448
sS'http://purl.oclc.org/BIOMO/ontology/biomo.owl'
p1449
S'biomo.owl'
p1450
sS'http://onto.eva.mpg.de/obo/BrendaTissue.owl#'
p1451
S'BrendaTissue.owl'
p1452
sS'&mecomp;'
p1453
S'index.html.10'
p1454
sS'http://www.polymtl.ca/xml/polyCore.rdf#'
p1455
S'polyCore.rdf'
p1456
sS'&gen;'
p1457
S'genont.owl.rdf'
p1458
sS'http://bioonto.de/sbml.owl'
p1459
S'biomodels-21.owl'
p1460
sS'http://purl.obolibrary.org/obo/go.owl'
p1461
S'go.owl'
p1462
sS'http://purl.obolibrary.org/obo/rs.owl'
p1463
S'rs.owl'
p1464
sS'http://neurolog.unice.fr/ontoneurolog/v3.0/ontoneurolog-mental-state-assessment.owl'
p1465
S'ontoneurolog-mental-state-assessment.owl'
p1466
sS'http://mmisw.org/ont/pmel/unit'
p1467
S'unit'
p1468
sS'http://schema.rdfs.org/all'
p1469
S'schema.owl'
p1470
sS'http://www.owl-ontologies.com/GeographicalRegion.owl'
p1471
S'GeographicalRegion.owl'
p1472
sS'http://vocab.deri.ie/cmm'
p1473
S'cmm.rdf'
p1474
sS'http://livercancer.imbi.uni-heidelberg.de/ccont'
p1475
S'CellCultureOntology.owl'
p1476
sS'http://vocab.deri.ie/cpo'
p1477
S'cpo.rdf'
p1478
sS'http://purl.org/NET/c4dm/keys.owl'
p1479
S'keys.owl'
p1480
sS'https://protegewiki.stanford.edu/wiki/Special:ExportRDF/Pr4_UG_rv_On_OWL_XML_rend'
p1481
S'Pr4_UG_rv_On_OWL_XML_rend'
p1482
sS'http://swat.cse.lehigh.edu/resources/onto/nobel.owl'
p1483
S'nobel.owl.1'
p1484
sS'http://data.hnm.hu/id/colls/lib/bib/Instance/MNMKVT19563#'
p1485
S'MNMKVT19563(1).rdf'
p1486
sS'http://mmisw.org/ont/noaa/cmecs'
p1487
S'cmecs'
p1488
sS'http://www.ebi.ac.uk/cmpo/cmpo.owl'
p1489
S'cmpo.owl'
p1490
sS'http://onto.eva.mpg.de/obo/molecule_role.owl#'
p1491
S'molecule_role.owl'
p1492
sS'http://www.owl-ontologies.com/2008/ZS.owl'
p1493
S'leo.owl'
p1494
sS'http://purl.obolibrary.org/obo/spd.owl'
p1495
S'spd.owl'
p1496
sS'http://www.workingontologist.org/Examples/Chapter10/questionnaire.owl'
p1497
S'questionnaire.owl.1'
p1498
sS'http://vocab.deri.ie/rooms'
p1499
S'rooms.rdf'
p1500
sS'http://purl.obolibrary.org/obo/flopo.owl'
p1501
S'flopo-inferred.owl'
p1502
sS'http://proteomeontology.org/cpo.owl'
p1503
S'CPTAC_alpha2.owl'
p1504
sS'http://vocab.deri.ie/pen'
p1505
S'pen.rdf'
p1506
sS'http://www.ontologydesignpatterns.org/ont/lmm/LMM_L1.owl'
p1507
S'LMM_L11.owl'
p1508
sS'http://www.owl-ontologies.com/BiodiversityOntologyFull.owl'
p1509
S'Ontobio_01072013.owl'
p1510
sS'http://mre.zcu.cz/ontology/nihss.owl'
p1511
S'nihss.owl'
p1512
sS'http://vocab.deri.ie/LinkSpec'
p1513
S'LinkSpec.rdf'
p1514
sS'http://www.tssg.org/public/ontologies/omg/qvt/2005/EMOF.owl'
p1515
S'EMOF.owl'
p1516
sS'http://www.co-ode.org/ontologies/mini-bio/basic-vertebrate-gross-anatomy.owl'
p1517
S'vertebrate-gross-anatomy.owl.1'
p1518
sS'http://vocab.deri.ie/cordis'
p1519
S'cordis.rdf'
p1520
sS'&animal;'
p1521
S'biolAnimal.owl'
p1522
sS'http://purl.bioontology.org/ontology/PMR.owl'
p1523
S'PMR.rdf-xml.owl'
p1524
sS'http://mmisw.org/ont/q2o/testQ2ODemo'
p1525
S'testQ2ODemo'
p1526
sS'http://mmisw.org/ont/mmi/systemtype'
p1527
S'systemtype'
p1528
sS'http://purl.obolibrary.org/obo/go/extensions/go-plus.owl'
p1529
S'go-plus.owl.crdownload.xml'
p1530
sS'#'
p1531
S'elvisimp.rdf'
p1532
sS'http://ontology.eil.utoronto.ca/ISO37120.owl'
p1533
S'ISO371201.owl'
p1534
sS'http://mmisw.org/ont/mmi/cfonmap'
p1535
S'cfonmap'
p1536
sS'http://www.semanticweb.org/lfierro/ontologies/2016/11/tagging_skos.owl'
p1537
S'tagging_vocabulary.owl'
p1538
sS'http://www.cancerdata.org/roo/'
p1539
S'ROO.owl'
p1540
sS'http://mmisw.org/ont/CUAHSI/WaterQualityCore2'
p1541
S'WaterQualityCore2'
p1542
sS'http://data.opendiscoveryspace.eu/lom_ontology_ods.owl#'
p1543
S'lom_ontology_ods1.owl'
p1544
sS'http://lsdis.cs.uga.edu/projects/glycomics/2006/GlycO'
p1545
S'GlycO_0_9.owl'
p1546
sS'http://en.openei.org/wiki/Special:ExportRDF/General_Merchandise_2009_TSD_Chicago_Low_Plug_Load_Baseline'
p1547
S'General_Merchandise_2009_TSD_Chicago_Low_Plug_Load_Baseline'
p1548
sS'http://www.tssg.org/public/ontologies/omg/uml/2004/Kernel.owl'
p1549
S'Kernel.owl'
p1550
sS'http://purl.obolibrary.org/obo/omp.owl'
p1551
S'omp.owl'
p1552
sS'http://iridl.ldeo.columbia.edu/ontologies/iribib.owl'
p1553
S'iribib.owl'
p1554
sS'http://mmisw.org/ont/ooici/architectureConcept'
p1555
S'architectureConcept'
p1556
sS'http://mmisw.org/ont/nasa_pace/physical'
p1557
S'physical'
p1558
sS'http://www.w3.org/2003/06/sw-vocab-status/ns#'
p1559
S'ns.1'
p1560
sS'http://www.semanticweb.org/ontologies/2015/0/disorderscluster.owl'
p1561
S'disorderscluster.owl'
p1562
sS'http://oaei.ontologymatching.org/2007/benchmarks/266/onto.rdf#'
p1563
S'onto.rdf.7'
p1564
sS'&iwsearch;'
p1565
S'iwsearch.owl.2'
p1566
sS'http://purl.obolibrary.org/obo/bila.owl'
p1567
S'bila.owl'
p1568
sS'http://ontology.ihmc.us/Action.owl'
p1569
S'Action.owl'
p1570
sS'http://purl.org/net/nknouf/ns/bibtex'
p1571
S'bibtex.owl'
p1572
sS'http://vocab.deri.ie/smail'
p1573
S'smail.rdf'
p1574
sS'http://www.owl-ontologies.com/Ontology1172270693.owl'
p1575
S'FamilyHealthHistory.owl'
p1576
sS'http://nwalsh.com/rdf/contacts'
p1577
S'contacts'
p1578
sS'http://mmisw.org/ont/odm2/SiteType'
p1579
S'SiteType'
p1580
sS'http://mmisw.org/ont/odm2test/relationshiptype'
p1581
S'relationshiptype'
p1582
sS'http://rdf.adalab-project.org/ontology/adalab/'
p1583
S'AdaLab.owl'
p1584
sS'http://mmisw.org/ont/csdms/assumption'
p1585
S'assumption'
p1586
sS'http://vocabularies.wikipathways.org/wp-old'
p1587
S'wp-old.rdf'
p1588
sS'http://ontology.ihmc.us/Actor.owl'
p1589
S'Actor.owl'
p1590
sS'http://www.nbirn.net/birnlex/1.0/OBO_annotation_properties.owl'
p1591
S'OBO_annotation_properties.owl'
p1592
sS'http://neumore.cis.usouthal.edu/ontologies/NeuMORE-v0.1.owl'
p1593
S'PVOnto-v0.1.owl'
p1594
sS'&petr;'
p1595
S'matrRock.owl'
p1596
sS'http://www.cin.ufpe.br/~ntdo/OWLFiles/ntdo.owl'
p1597
S'ntdo.owl'
p1598
sS'http://www.cs.ukzn.ac.za/zubeida/ontologies/FunctionalParticipationBFOMerged.owl'
p1599
S'FunctionalParticipationBFOMappings.owl'
p1600
sS'&mepack;'
p1601
S'index.html.13'
p1602
sS'http://purl.obolibrary.org/obo/poro.owl'
p1603
S'poro1.owl'
p1604
sS'http://purl.org/spar/scoro/'
p1605
S'2014-05-21-SCoRO-1_8_4_1.owl'
p1606
sS'http://mmisw.org/ont/ioos/CO-OPSqcFlags'
p1607
S'CO-OPSqcFlags'
p1608
sS'http://internano.org/taxonomy'
p1609
S'internano.owl'
p1610
sS'http://www.co-ode.org/ontologies/ont.owl#'
p1611
S'PHAGE-schema_1.0.owl'
p1612
sS'http://webprotege.stanford.edu/project/9h3YLKYo5AEx5tLXEXroVP'
p1613
S'CSOontology.owl'
p1614
sS'http://onto.eva.mpg.de/obo/po_temporal.owl#'
p1615
S'po_temporal.owl'
p1616
sS'http://vocab.deri.ie/fingal'
p1617
S'fingal.rdf'
p1618
sS'http://mmisw.org/ont/ndbc/waveQChard'
p1619
S'waveQChard'
p1620
sS'http://www.lexinfo.net/ontology/2.0/lexinfo'
p1621
S'lexinfo.owl'
p1622
sS'http://purl.uni-rostock.de/comodi/comodi'
p1623
S'comodi.owl'
p1624
sS'http://smw.referata.com/wiki/Special:ExportRDF/Tm-xml-wiki.org'
p1625
S'Tm-xml-wiki.org'
p1626
sS'http://www.w3.org/1999/06/25/WD-css3-namespace-19990625#'
p1627
S'css3deps.rdf'
p1628
sS'http://purl.obolibrary.org/obo/uberon.owl'
p1629
S'uberon.owl'
p1630
sS'http://mmisw.org/ont/noaa/gts'
p1631
S'gts'
p1632
sS'http://www.limics.org/hrdo/HRDO.owl'
p1633
S'hrdo.owl'
p1634
sS'http://www.cvrgrid.org/ontologies/Electrophysiology'
p1635
S'CVRG_EPOntology.owl'
p1636
sS'http://dataportal.ucar.edu/owl/vsto.owl'
p1637
S'vsto.owl.1'
p1638
sS'http://mmisw.org/ont/ioos/sector'
p1639
S'sector'
p1640
sS'http://www.tssg.org/public/ontologies/omg/qvt/2005/QVT.owl'
p1641
S'QVT.owl'
p1642
sS'http://www.cs.ukzn.ac.za/zubeida/ontologies/SpatialRelationsBFOMerged.owl'
p1643
S'SpatialRelationsBFOMerged.owl'
p1644
sS'http://www.rddl.org/'
p1645
S'rddl.owl'
p1646
sS'http://iridl.ldeo.columbia.edu/ontologies/iridl.owl'
p1647
S'iridl.owl'
p1648
sS'http://www.architexturez.in/+/--c--/lexicon_core.rdf.owl'
p1649
S'lexicon_core.rdf.owl'
p1650
sS'http://ontology.neuinfo.org/NIF/Dysfunction/NIF-Dysfunction.owl'
p1651
S'NIF-Dysfunction.owl'
p1652
sS'&IDODEN;IDODEN'
p1653
S'idoden_beta0.15b.owl'
p1654
sS'http://mmisw.org/ont/cf/areatype'
p1655
S'areatype'
p1656
sS'http://vocab.deri.ie/bp'
p1657
S'bp.rdf'
p1658
sS'http://lod.taxonconcept.org/ontology/txn.owl'
p1659
S'txn.owl'
p1660
sS'http://mmisw.org/ont/odm2/OrganizationType'
p1661
S'OrganizationType'
p1662
sS'&assert;'
p1663
S'assertion.owl'
p1664
sS'http://purl.bioontology.org/net/brunel/panda'
p1665
S'PANDA.owl'
p1666
sS'http://www.ICPS/ontologies/Medication.owl'
p1667
S'Medication.owl'
p1668
sS'http://onto.eva.mpg.de/obo/mouse_pathology.owl#'
p1669
S'mouse_pathology.owl.2'
p1670
sS'http://www.polowinski.de/ontologies/Geography.owl'
p1671
S'Geography.owl'
p1672
sS'http://mmisw.org/ont/ioos/core_variable'
p1673
S'core_variable'
p1674
sS'http://www.tssg.org/public/ontologies/omg/uml/2004/UML2-Super-MDL-041007.owl'
p1675
S'UML2-Super-MDL-041007.owl'
p1676
sS'http://mmisw.org/ont/nasa_pace/phytopia_mapping'
p1677
S'phytopia_mapping'
p1678
sS'http://www.wsmo.org/ns/wsmo-lite#'
p1679
S'index.xml'
p1680
sS'http://swat.cse.lehigh.edu/resources/onto/dblp.owl'
p1681
S'dblp.owl.2'
p1682
sS'http://oaei.ontologymatching.org/2008/benchmarks/266/onto.rdf#'
p1683
S'onto.rdf.8'
p1684
sS'http://onto.eva.mpg.de/obo/cell.owl#'
p1685
S'cell.owl'
p1686
sS'http://vocab.deri.ie/rdb2rdftc'
p1687
S'rdb2rdftc.rdf'
p1688
sS'http://www.isi.edu/ikcap/Wingse/workflowOntology.owl'
p1689
S'workflowOntology.owl'
p1690
sS'http://purl.obolibrary.org/obo/MF.owl'
p1691
S'MF.owl'
p1692
sS'http://vocab.deri.ie/rdforms'
p1693
S'rdforms.rdf'
p1694
sS'http://mmisw.org/ont/ecs/device_map'
p1695
S'device_map'
p1696
sS'http://www.owl-ontologies.com/Ontology1195292020.owl'
p1697
S'ODGI.owl'
p1698
sS'http://example.com/owl/families/import/familyImport17/'
p1699
S'familyImport18.xml'
p1700
sS'http://onto.eva.mpg.de/obo/celltype.owl#'
p1701
S'celltype.owl'
p1702
sS'http://purl.obolibrary.org/obo/envo.owl'
p1703
S'envo.owl'
p1704
sS'http://vocab.deri.ie/entity-action'
p1705
S'entity-action.rdf'
p1706
sS'http://www.semwebtech.org/mars/2006/mars'
p1707
S'mars-domain-notions.rdf'
p1708
sS'&ontologies;OCRe.owl'
p1709
S'OCRe.owl'
p1710
sS'&units;'
p1711
S'sciUnits.owl'
p1712
sS'http://mmisw.org/ont/cencoos/parameter'
p1713
S'parameter.8'
p1714
sS'&ontology;dco'
p1715
S'dco.owl'
p1716
sS'http://lsdis.cs.uga.edu/semdis/entertainment'
p1717
S'ontology_12.owl'
p1718
sS'http://mmisw.org/ont/CUAHSI/SurfaceHydrologicCore'
p1719
S'SurfaceHydrologicCore'
p1720
sS'http://www.biopax.org/release/biopax-level1.owl'
p1721
S'bca00030.owl'
p1722
sS'http://purl.obolibrary.org/obo/obi.owl/'
p1723
S'obi112.owl'
p1724
sS'https://www.codamono.com/biointerchange/gfvo'
p1725
S'gfvo_bioportal.xml'
p1726
sS'http://ecoinformatics.org/oboe/oboe.1.0/oboe-core.owl'
p1727
S'oboe-core.owl'
p1728
sS'&wob;'
p1729
S'wob.owl.1'
p1730
sS'http://purl.obolibrary.org/obo/geno.owl'
p1731
S'geno.owl'
p1732
sS'http://en.openei.org/wiki/Special:ExportRDF/General_Merchandise_2009_TSD_Chicago_High_Plug_Load_50%25_Energy_Savings'
p1733
S'General_Merchandise_2009_TSD_Chicago_High_Plug_Load_50%_Energy_Savings'
p1734
sS'http://www.kp-lab.org/ontologies/ss#'
p1735
S'SSpApplication.rdf-xml.owl'
p1736
sS'http://mmisw.org/ont/trdi/software'
p1737
S'software'
p1738
sS'http://purl.bioontology.org/ontology/BCTT#'
p1739
S'out15.owl'
p1740
sS'http://www.semanticweb.org/alan/ontologies/2013/8/untitled-ontology-9'
p1741
S'radonc_ontology.owl'
p1742
sS'http://purl.obolibrary.org/obo/duo.owl'
p1743
S'duo.owl'
p1744
sS'http://mmisw.org/ont/calcofi/CalCOFI_stationid'
p1745
S'CalCOFI_stationid'
p1746
sS'http://neurolog.unice.fr/ontoneurolog/v3.0/ontoneurolog-dataset-processing.owl'
p1747
S'ontoneurolog-dataset-processing.owl'
p1748
sS'http://swat.cse.lehigh.edu/resources/onto/citeseer.owl'
p1749
S'citeseer.owl'
p1750
sS'http://ontology.cybershare.utep.edu/ELSEWeb/elseweb-data.owl'
p1751
S'elseweb-data.owl'
p1752
sS'http://mmisw.org/ont/WoRMS/WoRMS'
p1753
S'WoRMS'
p1754
sS'http://www.globalnames.org/ontology/gni.owl'
p1755
S'gni.owl'
p1756
sS'http://glycomics.ccrc.uga.edu/ontologies/GlycO#'
p1757
S'GlycO.owl'
p1758
sS'http://www.co-ode.org/ontologies/galen'
p1759
S'full-galen.owl'
p1760
sS'http://purl.obolibrary.org/obo/sibo.owl'
p1761
S'sibo.owl'
p1762
sS'http://purl.obofoundry.org/obo/obi.owl'
p1763
S'OBI.owl.3'
p1764
sS'http://www.semanticweb.org/ontologies/2011/1/Ontology1296772722296.owl'
p1765
S'PDO_FullyAnnotated_Final_v1.0.owl'
p1766
sS'http://mmisw.org/ont/CUAHSI/SurfHydrosyn'
p1767
S'SurfHydrosyn'
p1768
sS'http://www.lucs.lu.se/brainOntology'
p1769
S'BrainSchema.owl'
p1770
sS'https://protegewiki.stanford.edu/wiki/Special:ExportRDF/OBO_Tools_1.1.1'
p1771
S'OBO_Tools_1.1.1'
p1772
sS'http://mmisw.org/ont/q2o/test'
p1773
S'test'
p1774
sS'&service;'
p1775
S'Service.owl.3'
p1776
sS'http://ncicb.nci.nih.gov/xml/owl/EVS/ctcae.owl'
p1777
S'CTCAE_4.03_2010-06-14.owl'
p1778
sS'http://mmisw.org/ont/seadatanet/qualityFlag'
p1779
S'qualityFlag.4'
p1780
sS'http://www.ontologydesignpatterns.org/cp/owl/informationrealization.owl'
p1781
S'informationrealization1.owl'
p1782
sS'http://opendata.inra.fr/resources/hSC9z#'
p1783
S'TRANSMAT.owl'
p1784
sS'http://www.lia.deis.unibo.it/research/MIDAS/Ontologies/MIDAS_Profile.owl'
p1785
S'MIDAS_Profile.owl'
p1786
sS'http://www.semanticweb.org/ontologies/2013/2/OPE.owl'
p1787
S'OPE.owl'
p1788
sS'http://vital-iot.eu/ontology/ns/'
p1789
S'vitalProjectOnto.owl'
p1790
sS'http://purl.bioontology.org/ontology/HCPCS/'
p1791
S'HCPCS.rdf'
p1792
sS'http://purl.obolibrary.org/obo/to.owl'
p1793
S'to1.owl'
p1794
sS'http://mmisw.org/ont/fnmoc/fnmoc'
p1795
S'fnmoc'
p1796
sS'http://ksg.meraka.co.za/adolena.owl'
p1797
S'adolena_OBDA.owl'
p1798
sS'http://www.ICPS/ontologies/HospitalEquipment.owl'
p1799
S'HospitalEquipment.owl'
p1800
sS'http://msi-ontology.sourceforge.net/ontology/NMR.owl'
p1801
S'NMR.owl'
p1802
sS'&space;'
p1803
S'space.owl'
p1804
sS'&units.owl;'
p1805
S'units.owl'
p1806
sS'http://ontology.neuinfo.org/NIF/1.0/BiomaterialEntities/cellular_component.owl'
p1807
S'cellular_component.owl.2'
p1808
sS'http://loki.cae.drexel.edu/~wbs/ontology/2004/09/ogc-gml'
p1809
S'ogc-gml.txt'
p1810
sS'http://www.cs.ukzn.ac.za/zubeida/ontologies/TemporalRelationsBFOMappings.owl'
p1811
S'TemporalRelationsBFOMappings.owl'
p1812
sS'http://purl.bioontology.org/ontology/CSP/'
p1813
S'CRISP.rdf'
p1814
sS'http://onto.eva.mpg.de/obo/medaka_ontology.owl#'
p1815
S'medaka_ontology.owl.1'
p1816
sS'https://protegewiki.stanford.edu/wiki/Special:ExportRDF/XML_Tab_1.0'
p1817
S'XML_Tab_1.0.1'
p1818
sS'http://www.semanticweb.org/shoshana/ontologies/2014/8/untitled-ontology-8'
p1819
S'esfo.new.owl'
p1820
sS'http://purl.obolibrary.org/obo/obi/webService.owl'
p1821
S'webService.owl'
p1822
sS'http://www.mistea.supagro.inra.fr/ontologies/2016/v1/afeo'
p1823
S'afeo-4.3.owl'
p1824
sS'&math;'
p1825
S'math.owl'
p1826
sS'http://www.semanticweb.org/ontologies/2015/0/computercluster.owl'
p1827
S'computercluster.owl'
p1828
sS'http://mmisw.org/ont/ooi_epe/science'
p1829
S'science'
p1830
sS'http://purl.org/cpr/0.5#'
p1831
S'problem-oriented-medical-record.owl'
p1832
sS'&obo;omit.owl'
p1833
S'omit.owl'
p1834
sS'http://garage.sims.berkeley.edu/mmm-2/ontology/extension1'
p1835
S'a7_group78.owl.xml'
p1836
sS'http://purl.org/net/miCLIP'
p1837
S'aaaaa.owl'
p1838
sS'http://ontology.neuinfo.org/NIF/BiomaterialEntities/cellular_component.owl'
p1839
S'cellular_component.owl.4'
p1840
sS'http://mmisw.org/ont/odm2/MethodType'
p1841
S'MethodType'
p1842
sS'http://vocab.deri.ie/lexinfo'
p1843
S'lexinfo.rdf'
p1844
sS'&obo;ovae.owl'
p1845
S'ovae_merged.owl'
p1846
sS'http://en.openei.org/wiki/Special:ExportRDF/General_Merchandise_2009_TSD_Miami_High_Plug_Load_50%25_Energy_Savings'
p1847
S'General_Merchandise_2009_TSD_Miami_High_Plug_Load_50%_Energy_Savings'
p1848
sS'http://ontologies.dbmi.pitt.edu/edda/StudyDesigns.owl'
p1849
S'StudyDesigns.owl'
p1850
sS'http://purl.org/net/OCRe/statistics.owl'
p1851
S'statistics.owl'
p1852
sS'http://www.cs.ukzn.ac.za/zubeida/ontologies/FunctionalParticipationGFO-basicMerged.owl'
p1853
S'FunctionalParticipationGFO-basicMerged.owl'
p1854
sS'http://mmisw.org/ont/mmi/platform'
p1855
S'platform.2'
p1856
sS'http://autopoiesis.foi.hr/project.php?name=Baze+Podataka+-+FOI'
p1857
S'owlexport.php?proorg=Baze+Podataka+-+FOI'
p1858
sS'http://www.lia.deis.unibo.it/research/Proteus/ontologies/InstantiateState.owl'
p1859
S'Coalition.owl'
p1860
sS'http://www.fao.org/aims/aos/fi/vessels_GT_GRT_ISSCFV_v1_2.owl'
p1861
S'vessels_GT_GRT_ISSCFV_v1_2.owl'
p1862
sS'http://mmisw.org/ont/nasa_pace/taxonomy'
p1863
S'taxonomy'
p1864
sS'&assoc;association'
p1865
S'association.owl'
p1866
sS'http://softeng.polito.it/rs-context-ontology'
p1867
S'rsctx.rdf'
p1868
sS'http://posccaesar.org/rdl/'
p1869
S'RDL.owl.crdownload.xml'
p1870
sS'http://en.openei.org/wiki/Special:ExportRDF/Grocery_2009_TSD_Miami_Baseline'
p1871
S'Grocery_2009_TSD_Miami_Baseline'
p1872
sS'http://mmisw.org/ont/noaa/noaa-waves'
p1873
S'noaa-waves'
p1874
sS'http://vocab.deri.ie/ex'
p1875
S'ex.rdf'
p1876
sS'http://epoch.stanford.edu/ClinicalTrialOntology.owl'
p1877
S'ClinicalTrialOntology.owl'
p1878
sS'http://www.biopax.org/release/biopax-level3.owl'
p1879
S'biopax-level3.owl'
p1880
sS'http://en.openei.org/wiki/Special:ExportRDF/Grocery_2009_TSD_Chicago_50%25_Energy_Savings'
p1881
S'Grocery_2009_TSD_Chicago_50%_Energy_Savings'
p1882
sS'http://www.mygrid.org.uk/ontology/JERMOntology'
p1883
S'JERM_alpha1.6.owl'
p1884
sS'http://purl.bioontology.org/ontology/phenX/'
p1885
S'phenXOnto_v1_2.owl'
p1886
sS'http://rs.tdwg.org/ontology/voc/Specimen'
p1887
S'specimen.rdf'
p1888
sS'&mecontrib;'
p1889
S'index.html.6'
p1890
sS'http://mmisw.org/ont/isro/INSAT3DM'
p1891
S'INSAT3DM.1'
p1892
sS'http://www.imgt.org/download/IMGT-ONTOLOGY/IMGT-ONTOLOGY-v1-0-2.owl'
p1893
S'IMGT-ONTOLOGY-v1-0-2.owl'
p1894
sS'http://purl.org/net/OCRe/generic.owl'
p1895
S'generic.owl'
p1896
sS'http://id.loc.gov/vocabulary/iso639-2#'
p1897
S'iso639-2.skos.rdf'
p1898
sS'http://www.workingontologist.org/Examples/Chapter9/questionnaire.owl'
p1899
S'questionnaire.owl'
p1900
sS'http://purl.org/olia/ubyCat.owl'
p1901
S'ubyCat1.owl'
p1902
sS'&obo;in/hino.owl'
p1903
S'hino.owl'
p1904
sS'http://purl.obolibrary.org/obo/wbbt.owl'
p1905
S'wbbt.owl'
p1906
sS'http://www.cs.ukzn.ac.za/zubeida/ontologies/BFOROGFOMerged.owl'
p1907
S'BFOROGFOMerged.owl'
p1908
sS'http://www.semanticweb.org/ontologies/epo.owl'
p1909
S'epo.owl'
p1910
sS'http://www.foo.org/bar#'
p1911
S'tools.owl'
p1912
sS'http://mmisw.org/ont/ooi_epe/science_mapping'
p1913
S'science_mapping'
p1914
sS'http://purl.obolibrary.org/obo/omiabis.owl'
p1915
S'omiabis.owl'
p1916
sS'http://mmisw.org/ont/nasa_pace/pigments2'
p1917
S'pigments2'
p1918
sS'http://delicias.dia.fi.upm.es/ontologies/ObjectWithStates.owl'
p1919
S'ObjectWithStates.owl'
p1920
sS'http://purl.org/incf/ontology/Computational_Neurosciences/cno_alpha.owl'
p1921
S'CNO_05.owl'
p1922
sS'file:/C:/autism_ontology_svn/trunk/ontologies/manual/ASDPhenotypeOntology_Public.owl'
p1923
S'ASDPhenotypeOntology_Public.owl'
p1924
sS'http://labs.mondeca.com/vocab/endpointStatus'
p1925
S'endpointStatus.rdf'
p1926
sS'http://www.demcare.eu/ontologies/contextdescriptor.owl'
p1927
S'contextdescriptor1.owl'
p1928
sS'http://doe-generated-ontology.com/OntoAD'
p1929
S'RackMultipart20131202-9185-1thvxyu.xml'
p1930
sS'http://purl.dataone.org/odo/ECSO_'
p1931
S'd1-ECSO.owl'
p1932
sS'http://www.cs.ukzn.ac.za/zubeida/ontologies/SpatialRelationsBFOMappings.owl'
p1933
S'SpatialRelationsBFOMappings.owl'
p1934
sS'http://www.ICPS/ontologies/Person'
p1935
S'Person.owl'
p1936
sS'http://oaei.ontologymatching.org/2009/benchmarks/257/onto.rdf#'
p1937
S'onto.rdf.3'
p1938
sS'&mebase;'
p1939
S'index.html.5'
p1940
sS'&nres;'
p1941
S'matrNaturalResource.owl'
p1942
sS'&link-obo;'
p1943
S'link-obo.owl'
p1944
sS'http://mmisw.org/ont/mbari/keyword'
p1945
S'keyword'
p1946
sS'http://purl.org/dc/elements/1.1/#'
p1947
S'dc.rdf'
p1948
sS'http://www.w3.org/2001/tag/2006/ext-vers/ext-vers-uml'
p1949
S'ext-vers-uml.1'
p1950
sS'http://mmisw.org/ont/ioos/map_category'
p1951
S'map_category'
p1952
sS'http://mmisw.org/ont/nasa_pace/pigment_mapping'
p1953
S'pigment_mapping'
p1954
sS'http://vocab.deri.ie/printTracking'
p1955
S'printTracking.rdf'
p1956
sS'hl7-sample.rdf#'
p1957
S'hl7-sample-plus-owl.rdf'
p1958
sS'http://cs.man.ac.uk/~sjupp/ontologies/cell_type.owl'
p1959
S'condition_2.owl.1'
p1960
sS'http://d-nb.info/standards/elementset/agrelon#'
p1961
S'agrelon.rdf'
p1962
sS'http://mmisw.org/ont/ioos/tagging_exchange_standards_v1'
p1963
S'tagging_exchange_standards_v1'
p1964
sS'http://gov.genealogy.net/ontology.owl'
p1965
S'ontology1.owl'
p1966
sS'http://oaei.ontologymatching.org/2006/benchmarks/266/onto.rdf#'
p1967
S'onto.rdf.2'
p1968
sS'file:/C:/Lea/ontologies/versions%20ATOL/atol_v3.0.obo'
p1969
S'atol_v6.owl'
p1970
sS'http://chu-rouen.fr/cismef/BHN'
p1971
S'RackMultipart20131119-17178-uc75i6.xml'
p1972
sS'http://mmisw.org/ont/csdms/object'
p1973
S'object'
p1974
sS'http://mmisw.org/ont/CUAHSI/OceanSynthesis'
p1975
S'OceanSynthesis'
p1976
sS'http://www.owl-ontologies.com/Ontology1298855822.owl'
p1977
S'QIBO_OWL1.owl'
p1978
sS'http://vocab.deri.ie/co'
p1979
S'co.rdf'
p1980
sS'http://www.linkedmodel.org/schema/vaem'
p1981
S'va.rdf'
p1982
sS'http://gaia.fdi.ucm.es/ontologies/restaurant.owl'
p1983
S'restaurant.owl'
p1984
sS'http://purl.obolibrary.org/obo/PDRO.owl'
p1985
S'pdro.owl'
p1986
sS'http://www.semanticweb.org/philshields/ontologies/2015/4/untitled-ontology-59'
p1987
S'2015_06_16 Triage nurse.owl'
p1988
sS'http://mmisw.org/ont/secoora/category'
p1989
S'category.1'
p1990
sS'http://reactionontology.org/piero/'
p1991
S'piero.owl'
p1992
sS'http://www.ICPS/ontologies/Outcomes.owl'
p1993
S'Outcomes.owl'
p1994
sS'http://www.w3.org/2000/01/rdf-schema#'
p1995
S'combined-ns-translation.rdf.fr.1'
p1996
sS'https://code.ecoinformatics.org/code/semtools/trunk/dev/oboe/oboe-sbc.owl'
p1997
S'oboe-sbc.owl'
p1998
sS'http://swat.cse.lehigh.edu/resources/onto/nsfaward.owl'
p1999
S'nsfaward.owl'
p2000
sS'http://www.umweltbundesamt.at/fileadmin/site/daten/Ontologien/CEDEX/owl/cedexMeta.owl'
p2001
S'cedexMeta.owl'
p2002
sS'http://vocab.deri.ie/chartr'
p2003
S'chartr.rdf'
p2004
sS'http://purl.org/net/SMARTprotocol'
p2005
S'SP_document_workflow_V3.0.owl'
p2006
sS'http://iridl.ldeo.columbia.edu/ontologies/rdfcache.owl'
p2007
S'rdfcache.owl.1'
p2008
sS'http://www.semanticweb.org/cert-itc/ontologies/itio'
p2009
S'expressionMechanism.owl'
p2010
sS'http://purl.bioontology.org/ontology/HL7/'
p2011
S'HL7.rdf'
p2012
sS'http://www.semanticweb.org/igomez/ontologies/2013/11/untitled-ontology-6'
p2013
S'OntoWAWO+.owl'
p2014
sS'http://swat.cse.lehigh.edu/resources/onto/university.owl'
p2015
S'university.owl'
p2016
sS'&wikibase;'
p2017
S'wikibaseOnto.owl'
p2018
sS'http://www.cs.ukzn.ac.za/zubeida/ontologies/SpatialRelationsGFO-basicMappings.owl'
p2019
S'SpatialRelationsGFO-basicMappings.owl'
p2020
sS'https://bitbucket.org/PlantExpAssay/ontology/raw/v0.1/PlantExperimentalAssayOntology.owl'
p2021
S'PlantExperimentalAssayOntology.owl'
p2022
sS'&PICO3.owl;'
p2023
S'PICO3.owl'
p2024
sS'http://www.atl.lmco.com/projects/ontology/ontologies/network/networkA.owl'
p2025
S'networkA.owl'
p2026
sS'http://vocab.deri.ie/slua'
p2027
S'slua.rdf'
p2028
sS'http://purl.bioontology.org/ontology/ICD10PCS/'
p2029
S'ICD10PCS.rdf'
p2030
sS'http://onto.eva.mpg.de/obo/adult_mouse_anatomy.owl#'
p2031
S'adult_mouse_anatomy.owl'
p2032
sS'http://www.ICPS/ontologies/Anatomy.owl'
p2033
S'Anatomy.owl'
p2034
sS'http://amigo.gforge.inria.fr/owl/Amigo.owl'
p2035
S'Amigo.owl'
p2036
sS'http://www.ontologydesignpatterns.org/ont/dul/DUL.owl'
p2037
S'DUL11.owl'
p2038
sS'http://mmisw.org/ont/ooi_epe/parent'
p2039
S'parent'
p2040
sS'http://www.polowinski.de/ontologies/History.owl'
p2041
S'History.owl'
p2042
sS'http://mmisw.org/ont/secoora/coordinate'
p2043
S'coordinate'
p2044
sS'http://www.lia.deis.unibo.it/research/MIDAS/Ontologies/InformationOntology.owl'
p2045
S'InformationOntology.owl'
p2046
sS'https://carre.kmi.open.ac.uk/ontology/lifestyle.owl'
p2047
S'lifestyle.owl'
p2048
sS'http://purl.org/spar/fabio/'
p2049
S'2016-04-19-fabio-1_9_2.owl'
p2050
sS'https://protegewiki.stanford.edu/wiki/Special:ExportRDF/Pr4_UG_rp_View_OBO_Tools'
p2051
S'Pr4_UG_rp_View_OBO_Tools'
p2052
sS'http://www.ontologydesignpatterns.org/cp/owl/participation.owl'
p2053
S'participation.owl'
p2054
sS'http://nwalsh.com/rdf/exif-nikon950#'
p2055
S'exif-nikon950.1'
p2056
sS'http://vocab.deri.ie/commute'
p2057
S'commute.rdf'
p2058
sS'http://www.perceive.net/schemas/20021119/relationship'
p2059
S'relationship.rdf'
p2060
sS'http://sw.deri.org/~zubeida/ROMULUS/ontologies/BFOGFO-basicMerged.owl'
p2061
S'BFOGFO-basicMerged.owl'
p2062
sS'http://www.cvrgrid.org/files/ECGOntologyv1.owl'
p2063
S'ECGOntologyv1.owl'
p2064
sS'http://www.w3.org/2011/http'
p2065
S'http'
p2066
sS'&iwipns;#'
p2067
S'iwip'
p2068
sS'&analysis;'
p2069
S'ReiAnalysis.owl'
p2070
sS'&phys;'
p2071
S'phys.owl'
p2072
sS'http://swpatho.ag-nbi.de/context/naics.owl'
p2073
S'naics.owl'
p2074
sS'http://purl.obolibrary.org/obo/ro.owl'
p2075
S'ro.owl'
p2076
sS'http://vocab.deri.ie/scovo'
p2077
S'scovo.rdf'
p2078
sS'http://ontology.ihmc.us/Place.owl'
p2079
S'Place.owl'
p2080
sS'http://purl.jp/bio/11/meo/'
p2081
S'meo_v07.owl'
p2082
sS'http://www.w3.org/2002/03owlt/jjc/t037'
p2083
S't037.rdf'
p2084
sS'http://www.owl-ontologies.com/fbi-reports.owl'
p2085
S'fbi-reports.owl'
p2086
sS'http://mmisw.org/ont/bodc/MapSeaVoxPlatforms2IOOSandRDIPlatforms'
p2087
S'MapSeaVoxPlatforms2IOOSandRDIPlatforms'
p2088
sS'http://mmisw.org/ont/secoora/water_property'
p2089
S'water_property'
p2090
sS'http://purl.obolibrary.org/obo/zfs.owl'
p2091
S'zfs.owl'
p2092
sS'http://onto.eva.mpg.de/obo/human-dev-anat-staged.owl#'
p2093
S'human-dev-anat-staged.owl.1'
p2094
sS'http://www.polowinski.de/ontologies/Sumo-OWL-Fixed-Version-2003.owl'
p2095
S'Sumo-OWL-Fixed-Version-2003.owl'
p2096
sS'&inverseRoles;'
p2097
S'ISO-15926-2_2003_inverseRoles.xml'
p2098
sS'http://mmisw.org/ont/noaa/general'
p2099
S'general'
p2100
sS'http://www.w3.org/2007/uwa/ontologies/DeliveryContext.owl'
p2101
S'deliveryContext.owl.1'
p2102
sS'http://who.int/ictm/signsAndSymptoms'
p2103
S'TM_SignsAndSymptoms.owl'
p2104
sS'http://knoesis.wright.edu/ParasiteExperiment.owl'
p2105
S'ParasiteExperimentOntology_111910_External.owl'
p2106
sS'http://purl.oclc.org/NET/ssnx/ssn'
p2107
S'ssn.owl'
p2108
sS'http://mmisw.org/ont/CUAHSI/SurfaceHydrologicCompound'
p2109
S'SurfaceHydrologicCompound'
p2110
sS'http://www.co-ode.org/ontologies/pizza/pizza_20041007.owl'
p2111
S'pizzas2_7.owl'
p2112
sS'http://who.int/ictm/meridians'
p2113
S'TM_Meridians.owl'
p2114
sS'http://purl.bioontology.org/ontology/PDQ/'
p2115
S'PDQ.rdf'
p2116
sS'http://vocab.deri.ie/sco'
p2117
S'sco.rdf'
p2118
sS'http://www.w3.org/2007/03/xproc'
p2119
S'xproc.owl'
p2120
sS'http://mmisw.org/ont/calcofi/castdata'
p2121
S'castdata'
p2122
sS'http://mmisw.org/ont/trdi/platforms'
p2123
S'platforms.1'
p2124
sS'http://www.w3.org/2002/03owlt/equivalentClass/conclusions002'
p2125
S'conclusions002.rdf.49'
p2126
sS'http://vocab.deri.ie/water'
p2127
S'water.rdf'
p2128
sS'http://dataportal.ucar.edu/schemas/vsto.owl'
p2129
S'vsto.owl'
p2130
sS'http://mmisw.org/ont/ioos/passive_acoustic_metadata'
p2131
S'passive_acoustic_metadata'
p2132
sS'http://dicom.nema.org/resources/ontology/DCM/#'
p2133
S'dcm.owl'
p2134
sS'http://cui.unige.ch/isi/onto/tok/TOK.owl'
p2135
S'tok.owl'
p2136
sS'http://www.ontologydesignpatterns.org/cp/owl/basicplan.owl'
p2137
S'basicplan.owl'
p2138
sS'http://www.ontodm.com/OntoDM-core/'
p2139
S'OntoDM.owl'
p2140
sS'http://dati.isprambiente.it/ontology/core#'
p2141
S'ispra-core.0.1.rdf'
p2142
sS'http://www.semanticweb.org/Food.owl'
p2143
S'Food.owl_NOTCONSIDERED.txt'
p2144
sS'http://purl.jp/bio/11/msv/'
p2145
S'msv.owl'
p2146
sS'http://en.openei.org/wiki/Special:ExportRDF/General_Merchandise_2009_TSD_Chicago_High_Plug_Load_Baseline'
p2147
S'General_Merchandise_2009_TSD_Chicago_High_Plug_Load_Baseline'
p2148
sS'http://mmisw.org/ont/secoora/sensor'
p2149
S'sensor'
p2150
sS'http://www.orpha.net/ontology/orphanet.owl'
p2151
S'ordo_orphanet.owl'
p2152
sS'http://mmisw.org/ont/calcofi/chladata'
p2153
S'chladata'
p2154
sS'http://onto.eva.mpg.de/obo/mosquito_anatomy.owl#'
p2155
S'mosquito_anatomy.owl.2'
p2156
sS'http://onto.eva.mpg.de/obo/pooling.owl#'
p2157
S'pooling.owl.1'
p2158
sS'http://onto.eva.mpg.de/obo/associatedwith.owl#'
p2159
S'associatedwith.owl'
p2160
sS'http://vocab.deri.ie/sigma'
p2161
S'sigma.rdf'
p2162
sS'http://users.du.se/~h12danst/testOntology.owl'
p2163
S'testOntology.owl'
p2164
sS'http://purl.obolibrary.org/obo/po.owl'
p2165
S'po.owl'
p2166
sS'https://raw.githubusercontent.com/PlantPhenoOntology/PPO/master/ontology/ppo-raw.owl'
p2167
S'ppo.owl'
p2168
sS'http://who.int/iceci.owl'
p2169
S'iceci.owl'
p2170
sS'http://www.cs.ox.ac.uk/isg/ontologies/UID/00122.owl'
p2171
S'00122.owl'
p2172
sS'http://www.owl-ontologies.com/NPOntology.owl'
p2173
S'NPOntology01.owl'
p2174
sS'http://childhealthservicemodels.eu/asthma'
p2175
S'asthma_v1.3.owl'
p2176
sS'http://onto.eva.mpg.de/obo/relationship.owl#'
p2177
S'relationship.owl.1'
p2178
sS'http://mmisw.org/ont/ooi_epe/platforms'
p2179
S'platforms'
p2180
sS'http://vocab.deri.ie/aardv'
p2181
S'aardv.rdf'
p2182
sS'http://amigo.gforge.inria.fr/owl/ContextVocabulary.owl'
p2183
S'ContextVocabulary.owl'
p2184
sS'http://mmisw.org/ont/oca/map-oca'
p2185
S'map-oca'
p2186
sS'http://nwalsh.com/rdf/vCard'
p2187
S'vCard'
p2188
sS'http://purl.obolibrary.org/obo/xco.owl'
p2189
S'xco.owl'
p2190
sS'&ontology;GRO'
p2191
S'GRO_v0.5.owl'
p2192
sS'http://bibliotek-o.org/ontology/'
p2193
S'ontology.owl'
p2194
sS'&ign;'
p2195
S'matrRockIgneous.owl'
p2196
sS'http://purl.bioontology.org/ontology/VANDF/'
p2197
S'VANDF.rdf'
p2198
sS'http://www.ICPS/ontologies/Detection.owl'
p2199
S'Detection.owl'
p2200
sS'http://mmisw.org/ont/ooici/ooiReferenceConcept'
p2201
S'ooiReferenceConcept'
p2202
sS'http://lsi.ugr.es/joseluisgs/videojuegos.owl'
p2203
S'videojuegos.owl'
p2204
sS'http://purl.obolibrary.org/obo/eo.owl'
p2205
S'plant-environment-ontology.obo.owl'
p2206
sS'&min;'
p2207
S'matrMineral.owl'
p2208
sS'http://www.loria.fr/~coulet/sopharm/'
p2209
S'sopharm2.2.owl'
p2210
sS'http://mmisw.org/ont/mvco/flag'
p2211
S'flag.2'
p2212
sS'http://onto.eva.mpg.de/obo/worm_development.owl#'
p2213
S'worm_development.owl.3'
p2214
sS'http://purl.bioontology.org/ontology/INM-NPI'
p2215
S'INM ontologie v2.owl'
p2216
sS'http://mmisw.org/ont/usglobec/instrument'
p2217
S'instrument.1'
p2218
sS'http://purl.org/net/OCRe/study_design.owl'
p2219
S'study_design.owl'
p2220
sS'http://www.tssg.org/public/ontologies/omg/odm/2006/RDFBase.owl'
p2221
S'RDFBase.owl'
p2222
sS'http://vocab.deri.ie/admsapi'
p2223
S'admsapi.rdf'
p2224
sS'&action;'
p2225
S'ReiAction.owl'
p2226
sS'http://www.dadfha.com/ont/hls'
p2227
S'hls'
p2228
sS'file:///C:/Workspaces/MyEclipse8.x/HugoToOwl/Hugo.owl'
p2229
S'Hugo_July12_2010.owl'
p2230
sS'http://onto.eva.mpg.de/obo/mammalian_phenotype.owl#'
p2231
S'mammalian_phenotype.owl.4'
p2232
sS'http://purl.org/sport/ontology/'
p2233
S'Tobion_Sports.owl'
p2234
sS'http://www.semanticweb.org/ontologies/2012/11/abnormalities.owl'
p2235
S'V3.0FAOntology.rdf-xml.owl'
p2236
sS'http://mmisw.org/ont/usglobec/platformCodes'
p2237
S'platformCodes'
p2238
sS'http://topbraid.org/sxml'
p2239
S'sxml'
p2240
sS'http://mmisw.org/ont/mbarissds/eqtorientation'
p2241
S'eqtorientation'
p2242
sS'http://mmisw.org/ont/mbari/bctd'
p2243
S'bctd'
p2244
sS'http://mmisw.org/ont/mmi/ooidatalevel'
p2245
S'ooidatalevel'
p2246
sS'http://www.w3.org/2002/03owlt/I5.21/conclusions002'
p2247
S'conclusions002.rdf.48'
p2248
sS'http://vocab.deri.ie/psc'
p2249
S'psc.rdf'
p2250
sS'https://protegewiki.stanford.edu/wiki/Special:ExportRDF/XML_Tab'
p2251
S'XML_Tab.1'
p2252
sS'http://phenomebrowser.net/ontologies/mesh/mesh.owl'
p2253
S'mesh.owl'
p2254
sS'http://www.ontologydesignpatterns.org/ont/dul/IOLite.owl'
p2255
S'IOLite.owl'
p2256
sS'http://mmisw.org/ont/isdm/datatype'
p2257
S'datatype'
p2258
sS'http://ontology.eil.utoronto.ca/icontact.owl'
p2259
S'icontact.owl'
p2260
sS'http://mmisw.org/ont/nasa_pace/phytopia_species_mapping'
p2261
S'phytopia_species_mapping'
p2262
sS'http://doe-generated-ontology.com/OntoPneumo'
p2263
S'OntoPneumo_20110511.owl'
p2264
sS'http://www.cs.ukzn.ac.za/zubeida/ontologies/DOLCE-LiteGFO-basicMerged.owl'
p2265
S'DOLCE-LiteGFO-basicMappings.owl'
p2266
sS'http://vocab.deri.ie/push'
p2267
S'push.rdf'
p2268
sS'http://onto.eva.mpg.de/obo/event.owl#'
p2269
S'event.owl'
p2270
sS'http://onto.eva.mpg.de/obo/quality.owl#'
p2271
S'quality.owl.1'
p2272
sS'http://www.w3.org/2004/09/fresnel'
p2273
S'fresnel.1'
p2274
sS'http://www.openmath.org/ontology#'
p2275
S'openmath.owl'
p2276
sS'&mixs;terms_od'
p2277
S'mixsterms_owl.rdf'
p2278
sS'http://mmisw.org/ont/drdc/MIOOSSEC'
p2279
S'MIOOSSEC'
p2280
sS'http://sswapmeet.sswap.info/OBO/obo.owl'
p2281
S'obo.owl.2'
p2282
sS'http://mmisw.org/ont/odm2/ActionType'
p2283
S'ActionType'
p2284
sS'&plc;'
p2285
S'place'
p2286
sS'http://onto.eva.mpg.de/obo/evidence_code.owl#'
p2287
S'evidence_code.owl'
p2288
sS'http://192.168.134.2/ontologies/DebianDpkgDist.owl'
p2289
S'DebianDpkgDist.owl'
p2290
sS'&entityMembershipCandidates;'
p2291
S'ISO-15926-2_2003_entityMembershipCandidates.xml'
p2292
sS'http://uth.tmc.edu/ontology/ochv'
p2293
S'ochv.owl'
p2294
sS'http://tour-pedia.org/download/tp.owl'
p2295
S'tp.owl'
p2296
sS'http://sw.der.org/~zubeida/ROMULUS/ontologies/BFOGFOMerged.owl'
p2297
S'BFOGFOMerged.owl'
p2298
sS'http://www.kanzaki.com/ns/dliser.rdf'
p2299
S'dliser.rdf'
p2300
sS'http://www.semanticweb.org/ontologies/2008/10/language_disorder_autism.owl'
p2301
S'Ontology1228014870390.owl'
p2302
sS'http://purl.org/goodrelations/v1'
p2303
S'goodrelations_v1.owl'
p2304
sS'&rdfs;RDFS'
p2305
S'rdfs.owl.2'
p2306
sS'http://www.isi.edu/~pan/damltime/timezone-ont.owl'
p2307
S'timezone-ont.owl'
p2308
sS'contact#'
p2309
S'contact'
p2310
sS'http://mmisw.org/ont/mmi/devontssn'
p2311
S'devontssn'
p2312
sS'http://purl.obolibrary.org/obo/uo.owl'
p2313
S'uo.owl'
p2314
sS'http://onto.eva.mpg.de/obo/fly_development.owl#'
p2315
S'fly_development.owl.3'
p2316
sS'http://www.ICPS/ontologies/InferredAnatomy.owl'
p2317
S'InferredAnatomyv3.owl'
p2318
sS'&ontologies;BuildingStructure'
p2319
S'BuildingStructure.owl'
p2320
sS'http://purl.obolibrary.org/obo/so.owl'
p2321
S'so.owl'
p2322
sS'http://www.cs.ukzn.ac.za/zubeida/ontologies/BFOROGFO-basicMerged.owl'
p2323
S'BFOROGFO-basicMappings.owl'
p2324
sS'http://purl.org/nbirn/birnlex/ontology/obo-foundry/core/obo-foundry-core-full-import.owl'
p2325
S'obo-foundry-core-full-import.owl.1'
p2326
sS'http://protege.stanford.edu/plugins/owl/owl-library/travel.owl'
p2327
S'travel.owl'
p2328
sS'http://onto.eva.mpg.de/obo/anatomicalsystem.owl#'
p2329
S'anatomicalsystem.owl'
p2330
sS'http://a.com/ontology'
p2331
S'CoDAMoS_context.owl'
p2332
sS'http://onto.eva.mpg.de/obo/microarrayplatform.owl#'
p2333
S'microarrayplatform.owl.1'
p2334
sS'http://bibframe.org/vocab/'
p2335
S'vocab.rdf'
p2336
sS'http://www.bio.cs.titech.ac.jp/~dio/dio_event.owl'
p2337
S'1471-2105-9-S6-S11-S1.owl'
p2338
sS'http://purl.obolibrary.org/obo/pr.owl'
p2339
S'pro_reasoned.owl'
p2340
sS'&obo;clo.owl'
p2341
S'clo_merged.owl'
p2342
sS'http://purl.org/spar/datacite/'
p2343
S'2014-05-21-datacite-0_6_4_1.owl'
p2344
sS'http://mmisw.org/ont/GMU/Test'
p2345
S'Test'
p2346
sS'http://www.semanticweb.org/ontologies/2015/0/ocupationalemploymentcluster.owl'
p2347
S'ocupationalemploymentcluster.owl'
p2348
sS'http://mmisw.org/ont/mmi/vine'
p2349
S'vine'
p2350
sS'http://purl.jp/bio/01/fo#'
p2351
S'fern-ontology-v0.05.owl'
p2352
sS'&chemp;'
p2353
S'propChemical.owl'
p2354
sS'http://ontology.ihmc.us/Policy.owl'
p2355
S'Policy.owl'
p2356
sS'http://purl.obolibrary.org/obo/vsao.owl'
p2357
S'vsao.owl'
p2358
sS'http://onto.eva.mpg.de/obo/flybase_controlled_vocabulary.owl#'
p2359
S'flybase_controlled_vocabulary.owl.1'
p2360
sS'http://openanzo.org/ontologies/2008/07/Collections'
p2361
S'collections.owl.16'
p2362
sS'http://www.cs.ukzn.ac.za/ontologies/FFO.owl'
p2363
S'FFO.owl'
p2364
sS'http://purl.obolibrary.org/obo/symp.owl'
p2365
S'symp1.owl'
p2366
sS'http://mmisw.org/ont/calcofi/bottleqc'
p2367
S'bottleqc'
p2368
sS'http://www.owl-ontologies.com/unnamed.owl'
p2369
S'ADW_ontology.owl'
p2370
sS'http://biomodels.net/SBO/'
p2371
S'sbo.owl'
p2372
sS'http://purl.obolibrary.org/obo/TEMP'
p2373
S'OntoBiootope_BioNLP-ST-2016.owl'
p2374
sS'http://mmisw.org/ont/oca/thesaurus'
p2375
S'thesaurus'
p2376
sS'http://www.daml.org/2001/03/daml+oil'
p2377
S'dig-daml-axioms.rdf'
p2378
sS'http://lod.taxonconcept.org/ontology/sci_people.owl'
p2379
S'sci_people1.owl'
p2380
sS'http://protege.stanford.edu/plugins/owl/dc/protege-dc.owl'
p2381
S'protege-dc.owl'
p2382
sS'http://id.loc.gov/ontologies/mads/2010/11'
p2383
S'mads-ontology-20101119.owl'
p2384
sS'http://purl.bioontology.org/ontology/npo'
p2385
S'npo-2011-12-08_inferred.owl'
p2386
sS'http://purl.org/dc/elements/1.1/'
p2387
S'dublincore.owl'
p2388
sS'http://identifiers.org/mamo'
p2389
S'mamo-xml.owl'
p2390
sS'http://purl.obolibrary.org/obo/wbls.owl'
p2391
S'wbls.owl'
p2392
sS'http://nwalsh.com/rdf/exif#'
p2393
S'exif.2'
p2394
sS'http://mmisw.org/ont/nasa_pace/enivronmental_mapping'
p2395
S'enivronmental_mapping'
p2396
sS'&annotations;'
p2397
S'ISO-15926-2_2003_annotations.xml'
p2398
sS'http://www.ICPS/ontologies/IncidentCharacteristic'
p2399
S'IncidentCharacteristic.owl'
p2400
sS'http://www.semanticweb.org/rjyy/ontologies/2015/5/ESSO'
p2401
S'ESSO V1.03.owl'
p2402
sS'http://mmisw.org/ont/ooi_epe/data_products'
p2403
S'data_products'
p2404
sS'http://purl.obolibrary.org/obo/wbphenotype.owl'
p2405
S'wbphenotype.owl'
p2406
sS'http://purl.obolibrary.org/obo/pdumdv.owl'
p2407
S'pdumdv.owl'
p2408
sS'http://onto.eva.mpg.de/obo/treatment.owl#'
p2409
S'treatment.owl'
p2410
sS'http://purl.bioontology.org/ontology/CST/'
p2411
S'COSTART.rdf'
p2412
sS'http://mmisw.org/ont/cwi/dm'
p2413
S'dm'
p2414
sS'http://mmisw.org/ont/argo/parameter'
p2415
S'parameter.5'
p2416
sS'http://purl.obolibrary.org/obo/TEMP.owl'
p2417
S'plana.owl'
p2418
sS'http://vocab.deri.ie/papp'
p2419
S'papp.rdf'
p2420
sS'http://mmisw.org/ont/CUAHSI/OceanCompound'
p2421
S'OceanCompound'
p2422
sS'http://purl.org/vso/ns'
p2423
S'ns_MartinHepp.owl'
p2424
sS'&swrl;'
p2425
S'swrl.owl'
p2426
sS'&rdfs;#'
p2427
S'rdf-schema.rdf.10'
p2428
sS'http://qudt.org/1.1/schema/dimension'
p2429
S'dimensi.rdf'
p2430
sS'http://www.onto-med.de/ontologies/gfo-basic.owl'
p2431
S'gfo-basic.owl'
p2432
sS'https://www.semantic-mediawiki.org/wiki/Special:ExportRDF/File-3ACompany-2DLISTedTECH-2D2014-2D10-2D20.xml'
p2433
S'File:Company-LISTedTECH-2014-10-20.xml'
p2434
sS'http://vocab.deri.ie/lmf'
p2435
S'lmf.rdf'
p2436
sS'http://www.cs.stir.ac.uk/schemas/genpol.owl'
p2437
S'genpol.owl'
p2438
sS'http://purl.obolibrary.org/obo/iao.owl'
p2439
S'iao-merged.owl'
p2440
sS'http://imash.leeds.ac.uk/ontologies/BodyLanguage/BodyLanguage.owl'
p2441
S'BodyLanguage.xml'
p2442
sS'http://vocab.deri.ie/orca'
p2443
S'orca.rdf'
p2444
sS'&deontic;'
p2445
S'ReiDeontic.owl'
p2446
sS'http://mimi.case.edu/ontologies/2009/1/SDO-merged'
p2447
S'SDO-merged.owl'
p2448
sS'http://mmisw.org/ont/bodc/NVSDevicesToTRDIOntology'
p2449
S'NVSDevicesToTRDIOntology'
p2450
sS'&eco;'
p2451
S'eclass_514en.owl'
p2452
sS'http://mmisw.org/ont/trdi/glossary'
p2453
S'glossary'
p2454
sS'http://spinrdf.org/sp'
p2455
S'sp'
p2456
sS'http://www.cs.ukzn.ac.za/zubeida/ontologies/TemporalRelationsGFOMerged.owl'
p2457
S'TemporalRelationsGFOMerged.owl'
p2458
sS'&human;'
p2459
S'human.owl'
p2460
sS'http://purl.obolibrary.org/obo/oba.owl'
p2461
S'oba.owl'
p2462
sS'http://www.w3.org/2002/03owlt/jjc/t073'
p2463
S't073.rdf'
p2464
sS'http://mmisw.org/ont/ioos/biological'
p2465
S'biological'
p2466
sS'http://vocab.deri.ie/search'
p2467
S'search.rdf'
p2468
sS'http://www.semanticweb.org/owner/ontologies/2014/6/Drug.owl'
p2469
S'AIDSClinic002 (1).owl'
p2470
sS'http://www.semanticweb.org/ontologies/2010/10/BPO.owl'
p2471
S'BPO 11_12_10.owl'
p2472
sS'&DEFAULT;'
p2473
S'ProfileHierarchy.owl'
p2474
sS'&ontology;NEMO.owl'
p2475
S'RackMultipart20131021-23110-1vlki4d.xml'
p2476
sS'http://purl.obolibrary.org/obo/trans.owl'
p2477
S'trans.owl'
p2478
sS'http://vocab.deri.ie/sparqlpush'
p2479
S'sparqlpush.rdf'
p2480
sS'http://www.semanticweb.org/ontologies/2009/3/EpilepsyOntology.owl'
p2481
S'EpilepsyOntology.owl'
p2482
sS'http:/purl.obolibrary.org/obo/ogsf.owl'
p2483
S'ogsf.owl'
p2484
sS'&photo;'
p2485
S'photo.owl'
p2486
sS'http://www.tssg.org/public/ontologies/omg/mof/2004/MOF.owl'
p2487
S'MOF.owl'
p2488
sS'http://purl.bioontology.org/net/brunel/uno#'
p2489
S'UncertainOnto.owl'
p2490
sS'&ontologies;OrganizationalOutcomes'
p2491
S'OrganizationalOutcomes.owl'
p2492
sS'http://purl.obolibrary.org/obo/uberon/ext.owl'
p2493
S'ext.owl'
p2494
sS'http://rdf.adalab-project.org/ontology/adalab-meta/'
p2495
S'AdaLab-meta.owl'
p2496
sS'http://mmisw.org/ont/ioos/organization'
p2497
S'organization'
p2498
sS'http://purl.bioontology.org/ontology/ICD9CM/'
p2499
S'ICD9CM.rdf'
p2500
sS'http://vocab.deri.ie/cloudisus'
p2501
S'cloudisus.rdf'
p2502
sS'http://purl.bioontology.org/ontology/OMIM/'
p2503
S'OMIM.rdf'
p2504
sS'http://mmisw.org/ont/cf/parameter'
p2505
S'parameter'
p2506
sS'http://vocab.deri.ie/tao'
p2507
S'tao.rdf'
p2508
sS'http://www.co-ode.org/roberts/family-tree.owl'
p2509
S'family.owl'
p2510
sS'http://mmisw.org/ont/ioos/map_ioos_ioos'
p2511
S'map_ioos_ioos'
p2512
sS'http://mmisw.org/ont/csdms/quantity'
p2513
S'quantity'
p2514
sS'http://www.semanticweb.org/philshields/ontologies/2015/4/Administrator.owl'
p2515
S'2015_06_15_Administrator.owl'
p2516
sS'http://www.lia.deis.unibo.it/research/SAMOA/ontologies/FreeTime.owl'
p2517
S'FreeTime.owl'
p2518
sS'http://purl.obolibrary.org/obo/upheno.owl'
p2519
S'upheno.owl'
p2520
sS'http://vocab.deri.ie/rstvoc'
p2521
S'rstvoc.rdf'
p2522
sS'http://ontology.neuinfo.org/NIF/nif.owl'
p2523
S'nif.owl'
p2524
sS'&obo;RoleO.owl'
p2525
S'RoleO.owl'
p2526
sS'http://mmisw.org/ont/COMPS/properties'
p2527
S'properties.1'
p2528
sS'http://mmisw.org/ont/nasa/datalevel'
p2529
S'datalevel.1'
p2530
sS'http://ontology.neuinfo.org/NIF/Backend/BIRNLex-OBO-UBO.owl'
p2531
S'BIRNLex-OBO-UBO.owl.3'
p2532
sS'http://purl.obolibrary.org/obo/dideo.owl/'
p2533
S'dideo.owl'
p2534
sS'http://www.cs.ukzn.ac.za/zubeida/ontologies/SpatialRelationsGFOMapping.owl'
p2535
S'SpatialRelationsGFOMerged.owl'
p2536
sS'http://purl.obolibrary.org/obo/hao.owl'
p2537
S'hao.owl'
p2538
sS'http://mmisw.org/ont/mvco/qcCategory'
p2539
S'qcCategory'
p2540
sS'&entityMembership;'
p2541
S'ISO-15926-2_2003_entityMembership.xml'
p2542
sS'http://mmisw.org/ont/WHOI/whoiCruiseID'
p2543
S'whoiCruiseID'
p2544
sS'http://www.semanticweb.org/demetrios/ontologies/2014/5/untitled-ontology-3'
p2545
S'BioPortal_Ontology18.owl'
p2546
sS'http://mmisw.org/ont/nasa_pace/ecological_mapping'
p2547
S'ecological_mapping'
p2548
sS'http://autopoiesis.foi.hr/project.php?name=KM+-+Tim+17'
p2549
S'owlexport.php?proorg=KM+-+Tim+17'
p2550
sS'http://www.ccs.neu.edu/home/kenb/ontologies/ucdo#'
p2551
S'ucdo.owl'
p2552
sS'http://localhost/Institute'
p2553
S'instOntology.owl'
p2554
sS'http://vocab.deri.ie/cm'
p2555
S'cm.rdf'
p2556
sS'&mnpns;#'
p2557
S'mnp'
p2558
sS'&swo;swo.owl'
p2559
S'swo.owl'
p2560
sS'http://carre.kmi.open.ac.uk/ontology/carre.owl'
p2561
S'carre.owl'
p2562
sS'&obo;MFOEM'
p2563
S'MFOEM.owl'
p2564
sS'http://mmisw.org/ont/BOEM/studyFootprinting'
p2565
S'studyFootprinting'
p2566
sS'http://purl.obolibrary.org/obo/VSO'
p2567
S'vso.owl'
p2568
sS'http://www.ICPS/ontologies/PatientCharacteristics.owl'
p2569
S'PatientCharacteristics.owl'
p2570
sS'&PICO1.owl;'
p2571
S'PICO1.owl'
p2572
sS'http://mmisw.org/ont/Technology/ComputerNetworks'
p2573
S'ComputerNetworks'
p2574
sS'http://mmisw.org/ont/ioos/platform_map_ioos_mmi'
p2575
S'platform_map_ioos_mmi'
p2576
sS'http://purl.org/cpr/0.5'
p2577
S'merged-hospital-data.rdf'
p2578
sS'http://mmisw.org/ont/rdi/rdi'
p2579
S'rdi'
p2580
sS'http://mmisw.org/ont/mmi/device'
p2581
S'device'
p2582
sS'http://www.semanticweb.org/ontologies/2015/0/apaneurocluster.owl'
p2583
S'apaneurocluster.owl'
p2584
sS'http://cui.unige.ch/citygml/2.0/'
p2585
S'citygml2.0.owl'
p2586
sS'http://schema.org/'
p2587
S'schemaorg.owl'
p2588
sS'http://www.csl.sri.com/users/denker/owl-sec/bibtex-entries.owl#'
p2589
S'security.owl'
p2590
sS'https://www.auto.tuwien.ac.at/downloads/thinkhome/ontology/WeatherOntology.owl'
p2591
S'WeatherOntology.owl'
p2592
sS'http://onto.eva.mpg.de/obo/arabidopsis_development.owl#'
p2593
S'arabidopsis_development.owl'
p2594
sS'http://mmisw.org/ont/mmi/udunits2-common'
p2595
S'udunits2-common'
p2596
sS'http://purl.bioontology.org/ontology/MEDLINEPLUS/'
p2597
S'MEDLINEPLUS.rdf'
p2598
sS'&obo;iao/dev/iao-main.owl'
p2599
S'ddi.owl'
p2600
sS'http://ontologies.opendfki.de/repos/ontologies/pim/pimo#'
p2601
S'pauls-pimo-all.rdf?rev=1712&format=txt'
p2602
sS'http://www.biopax.org/release/biopax-level2.owl'
p2603
S'biopax-level2.owl'
p2604
sS'http://www.tssg.org/public/ontologies/omg/uml/2004/PrimitiveTypes.owl'
p2605
S'PrimitiveTypes.owl'
p2606
sS'http://mmisw.org/ont/univmemphis/sensor'
p2607
S'sensor.1'
p2608
sS'http://vocab.deri.ie/capo'
p2609
S'capo.rdf'
p2610
sS'http://semanticscience.org/ontology/sio.owl#'
p2611
S'sio1.owl'
p2612
sS'http://www.owl-ontologies.com/RCTOntology.owl'
p2613
S'NoNRCTontology1.0.owl.xml'
p2614
sS'http://www.bpiresearch.com/BPMO/2004/03/03/cdl/Countries'
p2615
S'Countries.owl'
p2616
sS'http://www.ICPS/ontologies/DetectionMechanisms'
p2617
S'DetectionMechanisms.owl'
p2618
sS'http://mmisw.org/ont/mmi/udunits2-derived'
p2619
S'udunits2-derived'
p2620
sS'http://mmisw.org/ont/odm2/SamplingFeatureGeotype'
p2621
S'SamplingFeatureGeotype'
p2622
sS'http://www.mskcc.org/ontologies/2013/03/sae.owl'
p2623
S'sse-p.owl'
p2624
sS'http://mmisw.org/ont/calcofi/Prodo_Cast'
p2625
S'Prodo_Cast'
p2626
sS'http://www.owl-ontologies.com/Ontology1435740495.owl'
p2627
S'OntoFood.owl'
p2628
sS'http://mmisw.org/ont/CUAHSI/WaterQualityCompound'
p2629
S'WaterQualityCompound'
p2630
sS'http://www.semanticweb.org/ontologies/2014/11/legal.owl'
p2631
S'legal.owl'
p2632
sS'http://qudt.org/schema/qudt'
p2633
S'qudt.xml'
p2634
sS'http://opendata.inra.fr/ms2o/'
p2635
S'ms2o_core.owl'
p2636
sS'http://www.productontology.org/#'
p2637
S'C_battery.rdf'
p2638
sS'http://www.w3.org/2001/05/rdf-ds/datastore-schema#'
p2639
S'datastore-schema'
p2640
sS'http://www.ebi.ac.uk/medo/'
p2641
S'experimental_design_ontology_1.0.owl'
p2642
sS'http://mmisw.org/ont/gcoos/parameter'
p2643
S'parameter.3'
p2644
sS'http://purl.obolibrary.org/obo/tao.owl'
p2645
S'tao.owl'
p2646
sS'http://www.owl-ontologies.com/Ontology1181490123.owl'
p2647
S'Uncertainty.owl.2'
p2648
sS'&process;'
p2649
S'Process.owl'
p2650
sS'http://vocab.deri.ie/gem-nav'
p2651
S'gem-nav.rdf'
p2652
s.