(lp0
(S'chladata'
p1
I32
tp2
a(S'bottleqc'
p3
I32
tp4
a(S'prododata'
p5
I32
tp6
a(S'rptdata'
p7
I32
tp8
a(S'featuretype'
p9
I31
tp10
a(S'operator'
p11
I31
tp12
a(S'Prodo_Cast'
p13
I31
tp14
a(S'CalCOFI_stationid'
p15
I31
tp16
a(S'weatherData'
p17
I31
tp18
a(S'assumption'
p19
I31
tp20
a(S'object'
p21
I31
tp22
a(S'quantity'
p23
I31
tp24
a(S'bottledata'
p25
I31
tp26
a(S'noaadatalevels'
p27
I31
tp28
a(S'castdata'
p29
I31
tp30
a(S'nutrient'
p31
I31
tp32
a(S'areatype'
p33
I30
tp34
a(S'datalevel.1'
p35
I30
tp36
a(S'ooidatalevel'
p37
I30
tp38
a(S'WoRMS'
p39
I30
tp40
a(S'ionrole'
p41
I29
tp42
a(S'udunits2-base'
p43
I28
tp44
a(S'species'
p45
I28
tp46
a(S'udunits2-accepted'
p47
I28
tp48
a(S'udunits2-prefixes'
p49
I28
tp50
a(S'udunits2-derived'
p51
I28
tp52
a(S'udunits2-common'
p53
I28
tp54
a(S'instituteCodes'
p55
I27
tp56
a(S'pctd'
p57
I27
tp58
a(S'juvenilerockfish'
p59
I27
tp60
a(S'datatype'
p61
I27
tp62
a(S'bctd'
p63
I27
tp64
a(S'qvalue'
p65
I27
tp66
a(S'qualityFlag.4'
p67
I27
tp68
a(S'instruments.1'
p69
I27
tp70
a(S'active_acoustic_metadata'
p71
I26
tp72
a(S'informationResource'
p73
I26
tp74
a(S'ANZRC_Codes'
p75
I26
tp76
a(S'sensor.1'
p77
I26
tp78
a(S'passive_acoustic_metadata'
p79
I25
tp80
a(S'relationshiptype'
p81
I25
tp82
a(S'resourcetype'
p83
I24
tp84
a(S'MethodType'
p85
I24
tp86
a(S'OrganizationType'
p87
I24
tp88
a(S'SamplingFeatureGeotype'
p89
I24
tp90
a(S'SamplingFeatureType'
p91
I24
tp92
a(S'ActionType'
p93
I24
tp94
a(S'instruments_v3'
p95
I24
tp96
a(S'flag.2'
p97
I24
tp98
a(S'SiteType'
p99
I24
tp100
a(S'animal_acoustic_telemetry'
p101
I24
tp102
a(S'swe_element_type'
p103
I24
tp104
a(S'ooiionroles'
p105
I24
tp106
a(S'datum'
p107
I23
tp108
a(S'samplingfeaturetype'
p109
I23
tp110
a(S'platform_map'
p111
I23
tp112
a(S'platform'
p113
I23
tp114
a(S'waterLevel'
p115
I23
tp116
a(S'ecological_mapping'
p117
I23
tp118
a(S'parameter.8'
p119
I23
tp120
a(S'phytopia_species_mapping'
p121
I23
tp122
a(S'harmonicConstituents'
p123
I23
tp124
a(S'pav.owl'
p125
I23
tp126
a(S'CO-OPSqcFlags'
p127
I23
tp128
a(S'properties'
p129
I23
tp130
a(S'phytopia_mapping'
p131
I23
tp132
a(S'sensor.2'
p133
I22
tp134
a(S'observableProperty'
p135
I22
tp136
a(S'taxonomy'
p137
I22
tp138
a(S'environmental_interactions'
p139
I22
tp140
a(S'pigments'
p141
I22
tp142
a(S'observations'
p143
I22
tp144
a(S'parameter.5'
p145
I22
tp146
a(S'gts'
p147
I22
tp148
a(S'parameter.1'
p149
I22
tp150
a(S'whoiCruiseID'
p151
I22
tp152
a(S'physical'
p153
I22
tp154
a(S'observation_mapping'
p155
I22
tp156
a(S'ecology'
p157
I22
tp158
a(S'noaa-tide-current'
p159
I22
tp160
a(S'mappingcategory'
p161
I22
tp162
a(S'rdi'
p163
I21
tp164
a(S'param2cat'
p165
I21
tp166
a(S'platform_map_ioos_mmi'
p167
I21
tp168
a(S'core_variable'
p169
I21
tp170
a(S'parameter'
p171
I21
tp172
a(S'INSAT3DM'
p173
I21
tp174
a(S'SFM'
p175
I21
tp176
a(S'tool'
p177
I21
tp178
a(S'enivronmental_mapping'
p179
I21
tp180
a(S'ext.owl'
p181
I21
tp182
a(S'parameter.2'
p183
I21
tp184
a(S'pigment_mapping'
p185
I21
tp186
a(S'platformCodes'
p187
I21
tp188
a(S'vine'
p189
I21
tp190
a(S'MVCOtoCFswell'
p191
I21
tp192
a(S'general'
p193
I21
tp194
a(S'qcflag'
p195
I21
tp196
a(S'marine_biogeography'
p197
I21
tp198
a(S'ODMTT'
p199
I21
tp200
a(S'platform.2'
p201
I21
tp202
a(S'datalevel'
p203
I21
tp204
a(S'tagging_exchange_standards_v1'
p205
I20
tp206
a(S'INSAT3DDPV'
p207
I20
tp208
a(S'devterm'
p209
I20
tp210
a(S'instrument'
p211
I20
tp212
a(S'authority'
p213
I20
tp214
a(S'parent_mapping'
p215
I20
tp216
a(S'noaa-waves'
p217
I20
tp218
a(S'category'
p219
I20
tp220
a(S'science_mapping'
p221
I20
tp222
a(S'platforms'
p223
I19
tp224
a(S'societal_areas'
p225
I19
tp226
a(S'science'
p227
I19
tp228
a(S'ImagePhenotype.owl'
p229
I19
tp230
a(S'term'
p231
I19
tp232
a(S'parameter_provisional'
p233
I19
tp234
a(S'parameter.7'
p235
I19
tp236
a(S'instrument.1'
p237
I19
tp238
a(S'eqtorientation'
p239
I19
tp240
a(S'sites'
p241
I19
tp242
a(S'parent'
p243
I19
tp244
a(S'resourceType'
p245
I19
tp246
a(S'multibeam'
p247
I19
tp248
a(S'qualityFlag.6'
p249
I19
tp250
a(S'platform_mapping'
p251
I19
tp252
a(S'fnmoc'
p253
I19
tp254
a(S'category.1'
p255
I19
tp256
a(S'OOI_Platform'
p257
I19
tp258
a(S'map_category'
p259
I18
tp260
a(S'octr'
p261
I18
tp262
a(S'def'
p263
I18
tp264
a(S'ComputerNetworks'
p265
I18
tp266
a(S'atmospheric'
p267
I18
tp268
a(S'data_products'
p269
I18
tp270
a(S'waveQChard'
p271
I18
tp272
a(S'instrument_mapping'
p273
I18
tp274
a(S'qualityFlag.5'
p275
I18
tp276
a(S'map_core_variable'
p277
I18
tp278
a(S'instruments'
p279
I18
tp280
a(S'CN2.owl'
p281
I18
tp282
a(S'map_societal_areas'
p283
I18
tp284
a(S'map_ioos_cf'
p285
I17
tp286
a(S'glossary'
p287
I17
tp288
a(S'MapSeaVoxPlatforms2IOOSandRDIPlatforms'
p289
I17
tp290
a(S'platforms.1'
p291
I17
tp292
a(S'MXP'
p293
I17
tp294
a(S'ctdfield'
p295
I17
tp296
a(S'process'
p297
I17
tp298
a(S'software'
p299
I17
tp300
a(S'NVSDevicesToTRDIOntology'
p301
I17
tp302
a(S'ioos_core_cf_map'
p303
I17
tp304
a(S'COMPSPC'
p305
I17
tp306
a(S'usjgofs_hydro'
p307
I17
tp308
a(S'device.1'
p309
I17
tp310
a(S'sector'
p311
I17
tp312
a(S'testQ2ODemo'
p313
I17
tp314
a(S'biological'
p315
I17
tp316
a(S'qcFlag'
p317
I17
tp318
a(S'cchhg_product_type'
p319
I17
tp320
a(S'mvco'
p321
I17
tp322
a(S'HuPSON_v092013_merged.owl'
p323
I17
tp324
a(S'cmecs'
p325
I17
tp326
a(S'device_map'
p327
I17
tp328
a(S'INSAT3DM.1'
p329
I17
tp330
a(S'models'
p331
I17
tp332
a(S'wave'
p333
I16
tp334
a(S'elseweb-mappings.owl'
p335
I16
tp336
a(S'pigments2'
p337
I16
tp338
a(S'elseweb-edac.owl'
p339
I16
tp340
a(S'indexterm'
p341
I16
tp342
a(S'elseweb-lifemapper.owl'
p343
I16
tp344
a(S'cfonmap'
p345
I16
tp346
a(S'qualityFlag_soft'
p347
I16
tp348
a(S'water_quality'
p349
I16
tp350
a(S'current.3'
p351
I16
tp352
a(S'properties.1'
p353
I16
tp354
a(S'SFH'
p355
I16
tp356
a(S'weather_climate'
p357
I16
tp358
a(S'sensor'
p359
I16
tp360
a(S'definition'
p361
I16
tp362
a(S'mvco_processing'
p363
I16
tp364
a(S'pathogen'
p365
I16
tp366
a(S'historyEventType'
p367
I16
tp368
a(S'water_property'
p369
I16
tp370
a(S'architectureConcept'
p371
I16
tp372
a(S'organization'
p373
I16
tp374
a(S'elseweb-lifemapper-parameters.owl'
p375
I16
tp376
a(S'dm'
p377
I16
tp378
a(S'INSAT3DDPV.1'
p379
I16
tp380
a(S'historyEventList'
p381
I16
tp382
a(S'habitatclassification'
p383
I16
tp384
a(S'MIOOSSEC'
p385
I16
tp386
a(S'ceiConcept'
p387
I16
tp388
a(S'coordinate'
p389
I16
tp390
a(S'OA'
p391
I16
tp392
a(S'MCFS'
p393
I16
tp394
a(S'qualityFlag.2'
p395
I16
tp396
a(S'map_ioos_ioos'
p397
I16
tp398
a(S'optical'
p399
I16
tp400
a(S'_map'
p401
I16
tp402
a(S'platform.1'
p403
I16
tp404
a(S'qualityFlag_hard'
p405
I16
tp406
a(S'ti'
p407
I15
tp408
a(S'map-oca'
p409
I15
tp410
a(S'thesaurus.1'
p411
I15
tp412
a(S'flag'
p413
I15
tp414
a(S'identifier_parameter_program'
p415
I15
tp416
a(S'orges.owl'
p417
I15
tp418
a(S'parameter.3'
p419
I15
tp420
a(S'parameter.4'
p421
I15
tp422
a(S'thesaurus.2'
p423
I15
tp424
a(S'flag.1'
p425
I15
tp426
a(S'elseweb-modelling.owl'
p427
I15
tp428
a(S'swo.owl'
p429
I15
tp430
a(S'reference'
p431
I15
tp432
a(S'vo.owl'
p433
I15
tp434
a(S'cdm'
p435
I15
tp436
a(S'ms2o_core.owl'
p437
I15
tp438
a(S'coa'
p439
I15
tp440
a(S'elseweb-data.owl'
p441
I15
tp442
a(S'op1'
p443
I15
tp444
a(S'qualityFlag_aq'
p445
I15
tp446
a(S'thesaurus'
p447
I15
tp448
a(S'demlab.owl'
p449
I14
tp450
a(S'qcCategory'
p451
I14
tp452
a(S'studyFootprinting'
p453
I14
tp454
a(S'nihss.owl'
p455
I14
tp456
a(S'ontoneo.owl'
p457
I14
tp458
a(S'qcTests'
p459
I14
tp460
a(S'general.1'
p461
I14
tp462
a(S'ooiReferenceConcept'
p463
I14
tp464
a(S'devontssn'
p465
I14
tp466
a(S'Test'
p467
I14
tp468
a(S'dogont.owl'
p469
I14
tp470
a(S'ocaican'
p471
I14
tp472
a(S'icancoa'
p473
I14
tp474
a(S'rsctx.rdf'
p475
I14
tp476
a(S'qualityFlag.1'
p477
I14
tp478
a(S'cyberinfrastructureConcept'
p479
I14
tp480
a(S'om'
p481
I14
tp482
a(S'systemtype'
p483
I14
tp484
a(S'mmiorr'
p485
I14
tp486
a(S'dco.owl'
p487
I14
tp488
a(S'test'
p489
I14
tp490
a(S'ONSTR.owl'
p491
I13
tp492
a(S'2016-04-19-fabio-1_9_2.owl'
p493
I13
tp494
a(S'eol.owl'
p495
I13
tp496
a(S'OBI.owl.3'
p497
I13
tp498
a(S'OBI.owl.1'
p499
I13
tp500
a(S'EDAM_1.16.owl'
p501
I13
tp502
a(S'qualityFlag_tq'
p503
I13
tp504
a(S'Alzheimer Ontology v15R-xml_merged.owl'
p505
I13
tp506
a(S'classi.rdf'
p507
I13
tp508
a(S'qualityFlag.3'
p509
I13
tp510
a(S'SmartHomeWeather.owl'
p511
I13
tp512
a(S'BIRNLex-OBO-UBO.owl.2'
p513
I13
tp514
a(S'BIRNLex-OBO-UBO.owl.1'
p515
I13
tp516
a(S'fiesta-iot.owl'
p517
I13
tp518
a(S'timeindexedsituation.owl'
p519
I12
tp520
a(S'SubstrateHydrologicCompound'
p521
I12
tp522
a(S'AtmosphericHydrologicCore'
p523
I12
tp524
a(S'LandCore'
p525
I12
tp526
a(S'OceanCompound'
p527
I12
tp528
a(S'SurfaceHydrologicCompound'
p529
I12
tp530
a(S'AtmosphericHydrologicSynthesis'
p531
I12
tp532
a(S'brucellosis_merged.owl'
p533
I12
tp534
a(S'SurfaceHydrologicCore'
p535
I12
tp536
a(S'autism-merged.owl'
p537
I12
tp538
a(S'SurfHydrosyn'
p539
I12
tp540
a(S'keyword'
p541
I12
tp542
a(S'parameter.6'
p543
I12
tp544
a(S'LandCompound'
p545
I12
tp546
a(S'SubstrateHydrologicCore'
p547
I12
tp548
a(S'SubstrateHydrologicSyn'
p549
I12
tp550
a(S'OceanSynthesis'
p551
I12
tp552
a(S'AquaBioCore'
p553
I12
tp554
a(S'OceanCore'
p555
I12
tp556
a(S'WaterQuality'
p557
I12
tp558
a(S'WaterQualityCore2'
p559
I12
tp560
a(S'CWMO-042.owl'
p561
I12
tp562
a(S'LandSynthesis'
p563
I12
tp564
a(S'contextdescriptor.owl'
p565
I12
tp566
a(S'AtmosphericHydrologicCompound'
p567
I12
tp568
a(S'BIRNLex-OBO-UBO.owl.3'
p569
I12
tp570
a(S'WaterQualityCompound'
p571
I12
tp572
a(S'AquaBiologicalCompound'
p573
I12
tp574
a(S'iwsearch.owl.2'
p575
I11
tp576
a(S'Equipment'
p577
I11
tp578
a(S'oae.owl'
p579
I11
tp580
a(S'MarineOrganism'
p581
I11
tp582
a(S'index.html.5'
p583
I11
tp584
a(S'event'
p585
I11
tp586
a(S'qualityFlag'
p587
I11
tp588
a(S'usglobec'
p589
I11
tp590
a(S'birnlex.owl'
p591
I11
tp592
a(S'marinetlo.owl'
p593
I11
tp594
a(S'NMR.owl'
p595
I11
tp596
a(S'ogsf.owl'
p597
I11
tp598
a(S'BioMedicalTopics.owl'
p599
I11
tp600
a(S'place'
p601
I11
tp602
a(S'daml-time'
p603
I10
tp604
a(S'ocvdae-merged.owl'
p605
I10
tp606
a(S'NIF-Dysfunction.owl.1'
p607
I10
tp608
a(S'index.html.13'
p609
I10
tp610
a(S'index.html.10'
p611
I10
tp612
a(S'specimen.rdf'
p613
I10
tp614
a(S'SP_document_workflow_V3.0.owl'
p615
I10
tp616
a(S'index.html.7'
p617
I10
tp618
a(S'index.html.6'
p619
I10
tp620
a(S'2014-05-22-cito-2_6_3.owl'
p621
I10
tp622
a(S'index.html.9'
p623
I10
tp624
a(S'CBO.owl'
p625
I10
tp626
a(S'index.html.8'
p627
I10
tp628
a(S'device'
p629
I10
tp630
a(S'bfo-1.1-el.owl'
p631
I10
tp632
a(S'tao.owl'
p633
I10
tp634
a(S'tmo.owl'
p635
I10
tp636
a(S'index.html.14'
p637
I10
tp638
a(S'index.html.12'
p639
I10
tp640
a(S'participation.owl'
p641
I10
tp642
a(S'problem-oriented-medical-record.owl'
p643
I10
tp644
a(S'ns'
p645
I10
tp646
a(S'ido-merged.owl'
p647
I10
tp648
a(S'biotop.owl'
p649
I10
tp650
a(S'timeinterval.owl'
p651
I9
tp652
a(S'bonedysplasia.owl'
p653
I9
tp654
a(S'webService.owl'
p655
I9
tp656
a(S'informationrealization.owl'
p657
I9
tp658
a(S'ns.1'
p659
I9
tp660
a(S'odnae_merged.owl'
p661
I9
tp662
a(S'obcs_merged_inferred.owl'
p663
I9
tp664
a(S'2014-05-21-SCoRO-1_8_4_1.owl'
p665
I9
tp666
a(S'2014-05-21-datacite-0_6_4_1.owl'
p667
I9
tp668
a(S'clo_merged.owl'
p669
I9
tp670
a(S'NIF-Function.owl.1'
p671
I9
tp672
a(S'ogg.owl'
p673
I9
tp674
a(S'PANDA.owl'
p675
I9
tp676
a(S'situation.owl'
p677
I9
tp678
a(S'ogg-mm.owl'
p679
I9
tp680
a(S'RoleO.owl'
p681
I9
tp682
a(S'go-plus.owl.crdownload.xml'
p683
I9
tp684
a(S'INO.owl'
p685
I9
tp686
a(S'VoID_Extension_Schema.owl'
p687
I9
tp688
a(S'NIF-Function.owl'
p689
I9
tp690
a(S'cdao.owl'
p691
I8
tp692
a(S'vsao.owl'
p693
I8
tp694
a(S'omit.owl'
p695
I8
tp696
a(S'ObjectWithStates.owl'
p697
I8
tp698
a(S'ohmi.owl'
p699
I8
tp700
a(S'ohd.owl'
p701
I8
tp702
a(S'CVRG_EPOntology.owl'
p703
I8
tp704
a(S'SAO.owl'
p705
I8
tp706
a(S'AdaLab.owl'
p707
I8
tp708
a(S'nif.owl'
p709
I8
tp710
a(S'gfvo_bioportal.xml'
p711
I8
tp712
a(S'NIF-Dysfunction.owl'
p713
I8
tp714
a(S'oba.owl'
p715
I8
tp716
a(S'CNO_05.owl'
p717
I8
tp718
a(S'RackMultipart20131021-23110-1vlki4d.xml'
p719
I8
tp720
a(S'ontology.owl'
p721
I8
tp722
a(S'BIRNLex_annotation_properties.owl'
p723
I8
tp724
a(S'uo.owl'
p725
I8
tp726
a(S'RackMultipart20131202-9185-1thvxyu.xml'
p727
I8
tp728
a(S'BIRNLex_annotation_properties.owl.1'
p729
I8
tp730
a(S'hino.owl'
p731
I8
tp732
a(S'BasicActions.owl'
p733
I7
tp734
a(S'PrimitiveTypes.owl'
p735
I7
tp736
a(S'cellular_component.owl.4'
p737
I7
tp738
a(S'cellular_component.owl.2'
p739
I7
tp740
a(S'UML2-Super-MDL-041007.owl'
p741
I7
tp742
a(S'ovae_merged.owl'
p743
I7
tp744
a(S'RDFWeb.owl'
p745
I7
tp746
a(S'bao_complete.owl'
p747
I7
tp748
a(S'odm_2006_04_03_kludge.owl'
p749
I7
tp750
a(S'sequence.owl.4'
p751
I7
tp752
a(S'asthma_v1.3.owl'
p753
I7
tp754
a(S'Kernel.owl'
p755
I7
tp756
a(S'OBO_annotation_properties.owl.5'
p757
I7
tp758
a(S'OBO_annotation_properties.owl.2'
p759
I7
tp760
a(S'obib_merged_inferred.owl'
p761
I7
tp762
a(S'OMIT.owl'
p763
I7
tp764
a(S'copyrightonto.owl'
p765
I7
tp766
a(S'fbsp.owl'
p767
I7
tp768
a(S'OBO_annotation_properties.owl.4'
p769
I7
tp770
a(S'vario.owl'
p771
I7
tp772
a(S'flu.owl'
p773
I7
tp774
a(S'iao-merged.owl'
p775
I7
tp776
a(S'omp.owl'
p777
I7
tp778
a(S'collections.owl.1'
p779
I7
tp780
a(S'dpo.owl'
p781
I7
tp782
a(S'QVT.owl'
p783
I7
tp784
a(S'RDFBase.owl'
p785
I7
tp786
a(S'prov-o.owl'
p787
I7
tp788
a(S'oostt.owl'
p789
I7
tp790
a(S'spd.owl'
p791
I7
tp792
a(S'wbbt.owl'
p793
I7
tp794
a(S'typon.xml'
p795
I7
tp796
a(S'flopo-inferred.owl'
p797
I7
tp798
a(S'MFOEM.owl'
p799
I7
tp800
a(S'bao_gpcr_v1.1.owl'
p801
I7
tp802
a(S'OntoDT.owl'
p803
I7
tp804
a(S'MGEDOntology.owl'
p805
I7
tp806
a(S'MOF.owl'
p807
I7
tp808
a(S'dideo.owl'
p809
I7
tp810
a(S'po.owl'
p811
I7
tp812
a(S'EMOF.owl'
p813
I7
tp814
a(S'EssentialOCL.owl'
p815
I7
tp816
a(S'wbls.owl'
p817
I7
tp818
a(S'tok.owl'
p819
I7
tp820
a(S'go.owl'
p821
I7
tp822
a(S'AdaLab-meta.owl'
p823
I7
tp824
a(S'sequence.owl.1'
p825
I7
tp826
a(S'ico_merged.owl'
p827
I6
tp828
a(S'PO2_Core.owl'
p829
I6
tp830
a(S'OntolUrgences_v3.0.4.owl'
p831
I6
tp832
a(S'omrse.owl'
p833
I6
tp834
a(S'd1-ECSO.owl'
p835
I6
tp836
a(S'hrdo.owl'
p837
I6
tp838
a(S'omiabis.owl'
p839
I6
tp840
a(S'fma.owl'
p841
I6
tp842
a(S'poro.owl'
p843
I6
tp844
a(S'OBO_annotation_properties.owl.1'
p845
I6
tp846
a(S'tto.owl'
p847
I6
tp848
a(S'Menelas-Top-20130715.owl'
p849
I6
tp850
a(S'bcgo_merged_inferred.owl'
p851
I6
tp852
a(S'internano.owl'
p853
I6
tp854
a(S'CPR.owl'
p855
I6
tp856
a(S'expression.owl'
p857
I6
tp858
a(S'content'
p859
I6
tp860
a(S'wbphenotype.owl'
p861
I6
tp862
a(S'dispediaCoreComplete.xml'
p863
I6
tp864
a(S'swoogle.owl'
p865
I6
tp866
a(S'trans.owl'
p867
I6
tp868
a(S'bila.owl'
p869
I6
tp870
a(S'vt.owl'
p871
I6
tp872
a(S'rs.owl'
p873
I6
tp874
a(S'pw.owl'
p875
I6
tp876
a(S'MaHCO.owl'
p877
I6
tp878
a(S'ego.owl'
p879
I6
tp880
a(S'http'
p881
I6
tp882
a(S'efo.owl'
p883
I6
tp884
a(S'NIF-Subcellular.owl'
p885
I6
tp886
a(S'wob.owl.1'
p887
I6
tp888
a(S'opl.owl'
p889
I6
tp890
a(S'biomo.owl'
p891
I6
tp892
a(S'zfs.owl'
p893
I6
tp894
a(S'xco.owl'
p895
I6
tp896
a(S'orderedlistontology.owl'
p897
I6
tp898
a(S'OntoPneumo_20110511.owl'
p899
I6
tp900
a(S'regenbase_vocabulary.owl'
p901
I5
tp902
a(S'ODGI.owl'
p903
I5
tp904
a(S'npo-2011-12-08_inferred.owl'
p905
I5
tp906
a(S'IncidentCharacteristic.owl'
p907
I5
tp908
a(S'ddi.owl'
p909
I5
tp910
a(S'enanomapper.owl'
p911
I5
tp912
a(S'core.1'
p913
I5
tp914
a(S'MF.owl'
p915
I5
tp916
a(S'PatientSafetyIncident.owl'
p917
I5
tp918
a(S'gsontology.owl'
p919
I5
tp920
a(S'cmpo.owl'
p921
I5
tp922
a(S'pml-provenance.owl'
p923
I5
tp924
a(S'CSSO_ver0.6.owl'
p925
I5
tp926
a(S'zeco.owl'
p927
I5
tp928
a(S'ContributingFactors-Hazards.owl'
p929
I5
tp930
a(S'mixsterms_owl.rdf'
p931
I5
tp932
a(S'plant-environment-ontology.obo.owl'
p933
I5
tp934
a(S'GRO_v0.5.owl'
p935
I5
tp936
a(S'controlflow.owl'
p937
I5
tp938
a(S'Finance.owl'
p939
I5
tp940
a(S'ngsonto2016_innuendo.owl'
p941
I5
tp942
a(S'sopharm2.2.owl'
p943
I5
tp944
a(S'ro_bfo_bridge.owl.1'
p945
I5
tp946
a(S'ogms.owl'
p947
I5
tp948
a(S'lexicon_core.rdf.owl'
p949
I5
tp950
a(S'PDO_ver0.7.owl'
p951
I5
tp952
a(S'vico_merged.owl'
p953
I5
tp954
a(S'OBO_annotation_properties.owl'
p955
I5
tp956
a(S'vessels_GT_GRT_ISSCFV_v1_2.owl'
p957
I5
tp958
a(S'Person.owl'
p959
I5
tp960
a(S'to.owl'
p961
I5
tp962
a(S'epo.owl'
p963
I4
tp964
a(S'CellCultureOntology.owl'
p965
I4
tp966
a(S'HospitalEquipment.owl'
p967
I4
tp968
a(S'chem2bio2rdf.owl'
p969
I4
tp970
a(S'dron-full.owl'
p971
I4
tp972
a(S'WeatherOntology.owl'
p973
I4
tp974
a(S'ActionsToReduceRisk.owl'
p975
I4
tp976
a(S'ISO-15926-2_2003_entityMembership.xml'
p977
I4
tp978
a(S'psimi_instance_edit.owl.1'
p979
I4
tp980
a(S'irw.owl'
p981
I4
tp982
a(S'msv.owl'
p983
I4
tp984
a(S'pdumdv.owl'
p985
I4
tp986
a(S'chmo.owl'
p987
I4
tp988
a(S'onto.rdf.10'
p989
I4
tp990
a(S'onto.rdf.12'
p991
I4
tp992
a(S'PatientOutcomes.owl'
p993
I4
tp994
a(S'vso.owl'
p995
I4
tp996
a(S'opmo-20101012.owl'
p997
I4
tp998
a(S'taxrank.owl'
p999
I4
tp1000
a(S'OGI.owl'
p1001
I4
tp1002
a(S'meo_v07.owl'
p1003
I4
tp1004
a(S'NIF-Cell.owl'
p1005
I4
tp1006
a(S'NPIs ontology v4.owl'
p1007
I4
tp1008
a(S'LMM_L2.owl'
p1009
I4
tp1010
a(S'ontopic.owl'
p1011
I4
tp1012
a(S'ancestro_inferred.owl'
p1013
I4
tp1014
a(S'BuildingStructure.owl'
p1015
I4
tp1016
a(S'food.owl'
p1017
I4
tp1018
a(S'PatientCharacteristics.owl'
p1019
I4
tp1020
a(S'Furniture.owl'
p1021
I4
tp1022
a(S'idoden_beta0.15b.owl'
p1023
I4
tp1024
a(S'data-gov-twc.rdf.1'
p1025
I4
tp1026
a(S'document13.owl'
p1027
I4
tp1028
a(S'Anatomy.owl'
p1029
I4
tp1030
a(S'onto.rdf.8'
p1031
I4
tp1032
a(S'onto.rdf.2'
p1033
I4
tp1034
a(S'onto.rdf.3'
p1035
I4
tp1036
a(S'Process.owl.5'
p1037
I4
tp1038
a(S'oboe-sbc.owl'
p1039
I4
tp1040
a(S'pdro.owl'
p1041
I4
tp1042
a(S'Clothing.owl'
p1043
I4
tp1044
a(S'cl.owl'
p1045
I4
tp1046
a(S'psimi_instance_edit.owl'
p1047
I4
tp1048
a(S'ISO-15926-2_2003_entityMembershipCandidates.xml'
p1049
I4
tp1050
a(S'duo.owl'
p1051
I4
tp1052
a(S'Outcomes.owl'
p1053
I4
tp1054
a(S'pgxo.owl'
p1055
I4
tp1056
a(S'19115_CI.xml'
p1057
I4
tp1058
a(S'IOLite.owl'
p1059
I4
tp1060
a(S'Medication.owl'
p1061
I4
tp1062
a(S'LMM_L1.owl'
p1063
I4
tp1064
a(S'olatdv.owl'
p1065
I4
tp1066
a(S'onto.rdf.7'
p1067
I4
tp1068
a(S'animals.owl'
p1069
I4
tp1070
a(S'ClinicalTrialOntology.owl'
p1071
I4
tp1072
a(S'Countries.owl'
p1073
I4
tp1074
a(S'Activity.owl'
p1075
I4
tp1076
a(S'gni.owl'
p1077
I4
tp1078
a(S'ubyCat.owl'
p1079
I4
tp1080
a(S'oboe.owl'
p1081
I4
tp1082
a(S'sse-p.owl'
p1083
I4
tp1084
a(S'TEO.owl'
p1085
I3
tp1086
a(S'ontologie_toxnuc_20140817.owl'
p1087
I3
tp1088
a(S'genont.owl.rdf'
p1089
I3
tp1090
a(S'dblp.owl.2'
p1091
I3
tp1092
a(S'BFOROTemporalRelationsMerged.owl'
p1093
I3
tp1094
a(S'basicplan.owl'
p1095
I3
tp1096
a(S'ontoneurolog-mr-dataset-acquisition.owl'
p1097
I3
tp1098
a(S'BFOGFOMerged.owl'
p1099
I3
tp1100
a(S'Atom.owl'
p1101
I3
tp1102
a(S'news.owl'
p1103
I3
tp1104
a(S'person.owl'
p1105
I3
tp1106
a(S'BFOROGFOMerged.owl'
p1107
I3
tp1108
a(S'DOLCE-LiteBFOMerged.owl'
p1109
I3
tp1110
a(S'RA_metadata.owl'
p1111
I3
tp1112
a(S'sbo.owl'
p1113
I3
tp1114
a(S'rxno.owl'
p1115
I3
tp1116
a(S'gfo-bio.owl.1'
p1117
I3
tp1118
a(S'DetectionMechanisms.owl'
p1119
I3
tp1120
a(S'ontoneurolog-mental-state-assessment.owl'
p1121
I3
tp1122
a(S'iridl.owl'
p1123
I3
tp1124
a(S'ordo_orphanet.owl'
p1125
I3
tp1126
a(S'topology.owl'
p1127
I3
tp1128
a(S'rddl.owl'
p1129
I3
tp1130
a(S'TemporalRelationsBFOMerged.owl'
p1131
I3
tp1132
a(S'eol_v4__collaboration.owl'
p1133
I3
tp1134
a(S'Skin Physiology Ontology 2.0.owl'
p1135
I3
tp1136
a(S'sp'
p1137
I3
tp1138
a(S'foaf-dl.owl'
p1139
I3
tp1140
a(S'behavior.owl'
p1141
I3
tp1142
a(S'bim_beta.owl'
p1143
I3
tp1144
a(S'geopolitical.owl'
p1145
I3
tp1146
a(S'ISO-15926-2_2003.xml'
p1147
I3
tp1148
a(S'ochv.owl'
p1149
I3
tp1150
a(S'gfo-basic.owl'
p1151
I3
tp1152
a(S'InferredAnatomyv3.owl'
p1153
I3
tp1154
a(S'cio.owl'
p1155
I3
tp1156
a(S'Detection.owl'
p1157
I3
tp1158
a(S'DIKB_evidence_ontology_v1.7.owl'
p1159
I3
tp1160
a(S'BFOGFO-basicMerged.owl'
p1161
I3
tp1162
a(S'ProfileHierarchy.owl'
p1163
I3
tp1164
a(S'ontovip.owl'
p1165
I3
tp1166
a(S'contact.owl'
p1167
I3
tp1168
a(S'photo.owl'
p1169
I3
tp1170
a(S'BFOROFunctionalParticipationMerged.owl'
p1171
I3
tp1172
a(S'assertion.owl'
p1173
I3
tp1174
a(S'univ-bench.owl'
p1175
I3
tp1176
a(S'sxml'
p1177
I3
tp1178
a(S'upheno.owl'
p1179
I3
tp1180
a(S'mod-ontology-09092016.owl'
p1181
I3
tp1182
a(S'MitigatingFactors.owl'
p1183
I3
tp1184
a(S'ONLIRA_v106.owl'
p1185
I3
tp1186
a(S'aero.owl'
p1187
I3
tp1188
a(S'OrganizationalOutcomes.owl'
p1189
I3
tp1190
a(S'conference.owl'
p1191
I3
tp1192
a(S'NotificationEntity.owl'
p1193
I3
tp1194
a(S'publication.owl'
p1195
I3
tp1196
a(S'project.owl'
p1197
I3
tp1198
a(S'SpatialRelationsGFOMerged.owl'
p1199
I3
tp1200
a(S'ontoneurolog-dataset-processing.owl'
p1201
I3
tp1202
a(S'ISO-15926-2_2003_annotations.xml'
p1203
I3
tp1204
a(S'UnitsOntology-SDO.owl'
p1205
I3
tp1206
a(S'CTCAE_4.03_2010-06-14.owl'
p1207
I3
tp1208
a(S'AmelioratingActions.owl'
p1209
I3
tp1210
a(S'OCRe.owl'
p1211
I3
tp1212
a(S'agentrole.owl'
p1213
I3
tp1214
a(S'Actor.owl'
p1215
I2
tp1216
a(S'obo-foundry-core.owl'
p1217
I2
tp1218
a(S'mereology.owl'
p1219
I2
tp1220
a(S'neli.rdf'
p1221
I2
tp1222
a(S'matrRockIgneous.owl'
p1223
I2
tp1224
a(S'dolce-very-lite.owl'
p1225
I2
tp1226
a(S'matrNaturalResource.owl'
p1227
I2
tp1228
a(S'privacy.owl'
p1229
I2
tp1230
a(S'Service.owl.3'
p1231
I2
tp1232
a(S'BFOROSpatialRelationsMappings.owl'
p1233
I2
tp1234
a(S'FunctionalParticipationGFO-basicMerged.owl'
p1235
I2
tp1236
a(S'Entity.owl'
p1237
I2
tp1238
a(S'vertebrate-gross-anatomy.owl.1'
p1239
I2
tp1240
a(S'TRANSMAT.owl'
p1241
I2
tp1242
a(S'DOLCE-RL.owl'
p1243
I2
tp1244
a(S'dreggie-ont.owl'
p1245
I2
tp1246
a(S'part.owl'
p1247
I2
tp1248
a(S'obo.owl.2'
p1249
I2
tp1250
a(S'obo-foundry-core-full-import.owl.2'
p1251
I2
tp1252
a(S'obo-foundry-core-full-import.owl.1'
p1253
I2
tp1254
a(S'iriterms.owl'
p1255
I2
tp1256
a(S'plana.owl'
p1257
I2
tp1258
a(S'DOLCE-LiteGFO-basicMappings.owl'
p1259
I2
tp1260
a(S'Support_RM.owl'
p1261
I2
tp1262
a(S'stuff.owl'
p1263
I2
tp1264
a(S'pma.owl'
p1265
I2
tp1266
a(S'matrRock.owl'
p1267
I2
tp1268
a(S'FunctionalParticipationBFOMappings.owl'
p1269
I2
tp1270
a(S'ds.owl.1'
p1271
I2
tp1272
a(S'matrElement.owl'
p1273
I2
tp1274
a(S'sweetAll.owl'
p1275
I2
tp1276
a(S'RDL.owl.crdownload.xml'
p1277
I2
tp1278
a(S'ppo.owl'
p1279
I2
tp1280
a(S'BFORO.owl'
p1281
I2
tp1282
a(S'datatype.owl'
p1283
I2
tp1284
a(S'obo-foundry-core.owl.1'
p1285
I2
tp1286
a(S'DOLCE-No-Quality-Qualia.owl'
p1287
I2
tp1288
a(S'RackMultipart20131119-17178-uc75i6.xml'
p1289
I2
tp1290
a(S'phare.owl'
p1291
I2
tp1292
a(S'aaaaa.owl'
p1293
I2
tp1294
a(S'networkA.owl'
p1295
I2
tp1296
a(S'SDO-merged.owl'
p1297
I2
tp1298
a(S'time-entry.owl'
p1299
I2
tp1300
a(S'PxOmetazoa.owl.crdownload.xml'
p1301
I2
tp1302
a(S'study_protocol.owl'
p1303
I2
tp1304
a(S'genpol.owl'
p1305
I2
tp1306
a(S'TemporalRelationsGFOMerged.owl'
p1307
I2
tp1308
a(S'link-obo.owl'
p1309
I2
tp1310
a(S'gfo.owl'
p1311
I2
tp1312
a(S'vto.owl'
p1313
I2
tp1314
a(S'swrl.owl'
p1315
I2
tp1316
a(S'ISO-15926-2_2003_inverseRoles.xml'
p1317
I2
tp1318
a(S'Place.owl'
p1319
I2
tp1320
a(S'NoNRCTontology1.0.owl.xml'
p1321
I2
tp1322
a(S'experimental_design_ontology_1.0.owl'
p1323
I2
tp1324
a(S'Expression.owl'
p1325
I2
tp1326
a(S'matrOrganicCompound.owl'
p1327
I2
tp1328
a(S'Group.owl'
p1329
I2
tp1330
a(S'Action.owl'
p1331
I2
tp1332
a(S'philosurfical.owl'
p1333
I2
tp1334
a(S'matrMineral.owl'
p1335
I2
tp1336
a(S'sibo.owl'
p1337
I2
tp1338
a(S'amino acid - inferred.owl'
p1339
I2
tp1340
a(S'pathLex.owl'
p1341
I2
tp1342
a(S'PeriodicTable.owl.xml'
p1343
I2
tp1344
a(S'vocab.rdf'
p1345
I2
tp1346
a(S'travel.owl'
p1347
I2
tp1348
a(S'iribib.owl'
p1349
I2
tp1350
a(S'oboInOwl.owl'
p1351
I2
tp1352
a(S'propChemical.owl'
p1353
I2
tp1354
a(S'travel(2).owl'
p1355
I2
tp1356
a(S'matrCompound.owl'
p1357
I2
tp1358
a(S'dicom.owl'
p1359
I2
tp1360
a(S'ActionStatus.owl'
p1361
I2
tp1362
a(S'bfo-continuants.owl'
p1363
I2
tp1364
a(S'mvco.owl'
p1365
I2
tp1366
a(S'ontology-metadata.owl'
p1367
I2
tp1368
a(S'agro.owl'
p1369
I2
tp1370
a(S'InheritanceProfile.owl'
p1371
I2
tp1372
a(S'SpatialRelationsBFOMerged.owl'
p1373
I2
tp1374
a(S'BFORODOLCE-LiteMappings.owl'
p1375
I2
tp1376
a(S'rdfcache.owl.1'
p1377
I2
tp1378
a(S'geno.owl'
p1379
I2
tp1380
a(S'DURUM_WHEAT.owl'
p1381
I2
tp1382
a(S'deliveryContext.owl.1'
p1383
I2
tp1384
a(S'TemporalRelationsBFOMappings.owl'
p1385
I2
tp1386
a(S'pizza.owl'
p1387
I2
tp1388
a(S'BIOREFINERY.owl'
p1389
I2
tp1390
a(S'ObjectList.owl'
p1391
I2
tp1392
a(S'Policy.owl'
p1393
I2
tp1394
a(S'BRO.owl'
p1395
I2
tp1396
a(S'DOLCE-LiteGFOMappings.owl'
p1397
I2
tp1398
a(S'math.owl'
p1399
I1
tp1400
a(S'a7_group78.owl.xml'
p1401
I1
tp1402
a(S'ontology_12.owl'
p1403
I1
tp1404
a(S'TFBS.owl'
p1405
I1
tp1406
a(S'DIAB_v90rb.owl'
p1407
I1
tp1408
a(S'PoliticianStateOntology_03.owl'
p1409
I1
tp1410
a(S'OntoFood.owl'
p1411
I1
tp1412
a(S'ProPreO-052206.owl'
p1413
I1
tp1414
a(S'FFO.owl'
p1415
I1
tp1416
a(S'Coalition.owl'
p1417
I1
tp1418
a(S'ContextVocabulary.owl'
p1419
I1
tp1420
a(S'DSOBar.owl'
p1421
I1
tp1422
a(S'cedexAuxilliary.owl.1'
p1423
I1
tp1424
a(S'1471-2105-9-S6-S11-S1.owl'
p1425
I1
tp1426
a(S'ParasiteExperimentOntology_111910_External.owl'
p1427
I1
tp1428
a(S'OntoKBCF1301new.owl'
p1429
I1
tp1430
a(S'obo.owl.1'
p1431
I1
tp1432
a(S'CancerChemopreventionOntology.owl'
p1433
I1
tp1434
a(S'FreeTime.owl'
p1435
I1
tp1436
a(S'AIDSClinic002 (1).owl'
p1437
I1
tp1438
a(S'venom_ontology.xml'
p1439
I1
tp1440
a(S'phylogenetic_methods.owl'
p1441
I1
tp1442
a(S'opendaprdf.xml'
p1443
I1
tp1444
a(S'ntdo.owl'
p1445
I1
tp1446
a(S'sequence.owl'
p1447
I1
tp1448
a(S'SensorOntology20090320.owl.xml'
p1449
I1
tp1450
a(S'human.owl'
p1451
I1
tp1452
a(S'leo.owl'
p1453
I1
tp1454
a(S'hyper_ontology.owl.2'
p1455
I1
tp1456
a(S'ECGOntologyv1.owl'
p1457
I1
tp1458
a(S'Normalisation-demo-hormones-01-01.owl'
p1459
I1
tp1460
a(S'Breast cell line ontology.owl'
p1461
I1
tp1462
a(S'DebianDpkgDist.owl'
p1463
I1
tp1464
a(S'CogPO12142010.owl'
p1465
I1
tp1466
a(S'chemState.owl'
p1467
I1
tp1468
a(S'ethernet.owl'
p1469
I1
tp1470
a(S'Exo-CSEOv1.2_BFO_FINAL_merged_2.owl'
p1471
I1
tp1472
a(S'biopax-level3.owl'
p1473
I1
tp1474
a(S'pizzas2_7.owl'
p1475
I1
tp1476
a(S'SpatialRelationsBFOMappings.owl'
p1477
I1
tp1478
a(S'FamilyHealthHistory.owl'
p1479
I1
tp1480
a(S'ip4.owl'
p1481
I1
tp1482
a(S'NMOSp.owl'
p1483
I1
tp1484
a(S'phys.owl'
p1485
I1
tp1486
a(S'HPI.owl'
p1487
I1
tp1488
a(S'SpatialRelationsGFO-basicMappings.owl'
p1489
I1
tp1490
a(S'DQOntology.owl'
p1491
I1
tp1492
a(S'functions.owl.2'
p1493
I1
tp1494
a(S'sciUnits.owl'
p1495
I1
tp1496
a(S'InformationOntology.owl'
p1497
I1
tp1498
a(S'spaceDistribution.owl'
p1499
I1
tp1500
a(S'TemporalRelationsGFO-basicMappings.owl'
p1501
I1
tp1502
a(S'statistics.owl'
p1503
I1
tp1504
a(S'OntoWAWO+.owl'
p1505
I1
tp1506
a(S'ooevv_odp_0.0.4.owl'
p1507
I1
tp1508
a(S'Amigo.owl'
p1509
I1
tp1510
a(S'context-logic.owl.1'
p1511
I1
tp1512
a(S'iceci.owl'
p1513
I1
tp1514
a(S'oo.owl'
p1515
I1
tp1516
a(S'biopax-level2.owl'
p1517
I1
tp1518
a(S'out15.owl'
p1519
I1
tp1520
a(S'generic.owl'
p1521
I1
tp1522
a(S'tagging_vocabulary.owl'
p1523
I1
tp1524
a(S'cedexMeta.owl'
p1525
I1
tp1526
a(S'ProPreO-060506.owl'
p1527
I1
tp1528
a(S'testOntology.owl'
p1529
I1
tp1530
a(S'questionnaire.owl.1'
p1531
I1
tp1532
a(S'Geography.owl'
p1533
I1
tp1534
a(S'workflowOntology.owl'
p1535
I1
tp1536
a(S'FunctionalParticipationGFOMappings.owl'
p1537
I1
tp1538
a(S'BioPortalMetadata.owl'
p1539
I1
tp1540
a(S'SensorBasis.owl'
p1541
I1
tp1542
a(S'Delegation.owl'
p1543
I1
tp1544
a(S'skeleton.owl'
p1545
I1
tp1546
a(S'study_design.owl'
p1547
I1
tp1548
a(S'XCTontologyvtemp2.owl'
p1549
I1
tp1550
a(S'lipid-classification-service-ontology.owl'
p1551
I1
tp1552
a(S'ContextLanguage.owl'
p1553
I1
tp1554
a(S'NPOntology01.owl'
p1555
I1
tp1556
a(S'MODS_RDF_Ontology.rdf'
p1557
I1
tp1558
a(S'questionnaire.owl'
p1559
I1
tp1560
a(S'ontoolcoleModel.owl'
p1561
I1
tp1562
a(S'STO.owl'
p1563
I1
tp1564
a(S'PVOnto-v0.1.owl'
p1565
I1
tp1566
a(S'iricrosswalk.owl.1'
p1567
I1
tp1568
a(S'chem.owl'
p1569
I1
tp1570
a(S'GlycO_0_9.owl'
p1571
I1
tp1572
a(S'MyOntoServiceFull_FallDetection.owl'
p1573
I1
tp1574
a(S'citygml2.0.owl'
p1575
I1
tp1576
a(S'History.owl'
p1577
I1
tp1578
a(S'BFOROGFO-basicMappings.owl'
p1579
I1
tp1580
a(S'SitBAC1_3.owl'
p1581
I1
tp1582
a(S'space.owl'
p1583
I1
tp1584
a(S'bca00030.owl'
p1585
I1
tp1586
a(S'biolPlant.owl'
p1587
I1
tp1588
a(S'RPO_081112_owl.0'
p1589
I1
tp1590
a(S'biolAnimal.owl'
p1591
I1
tp1592
a(S'lifestyle.owl'
p1593
I1
tp1594
a(S'spaceDirection.owl'
p1595
I1
tp1596
a(S'CoalitionPolicy.owl'
p1597
I1
tp1598
a(S'caad.3.0.rdf.owl'
p1599
I1
tp1600
a(S'gfo-bio.owl'
p1601
I1
tp1602
a(S'Ontobio_01072013.owl'
p1603
I1
tp1604
a(S'fbi-reports.owl'
p1605
I0
tp1606
a(S'tma_minimal032510.owl'
p1607
I0
tp1608
a(S'PCORI_finalv2.owl'
p1609
I0
tp1610
a(S'StudyDesigns.owl'
p1611
I0
tp1612
a(S'mesh.owl'
p1613
I0
tp1614
a(S'protege-dc.owl'
p1615
I0
tp1616
a(S'layer.owl'
p1617
I0
tp1618
a(S'ext-vers-uml.1'
p1619
I0
tp1620
a(S'CSOontology.owl'
p1621
I0
tp1622
a(S'emo.owl'
p1623
I0
tp1624
a(S'root-ontology.owl'
p1625
I0
tp1626
a(S'premises001.rdf.4'
p1627
I0
tp1628
a(S'ocupationalemploymentcluster.owl'
p1629
I0
tp1630
a(S'personOrganization.rdf-xml.owl'
p1631
I0
tp1632
a(S'PedTerm_Jan20-13.owl'
p1633
I0
tp1634
a(S'context.owl.1'
p1635
I0
tp1636
a(S'testsandtestingcluster.owl'
p1637
I0
tp1638
a(S'PlantExperimentalAssayOntology.owl'
p1639
I0
tp1640
a(S'vsto.owl'
p1641
I0
tp1642
a(S'owlDemoSchema.xml'
p1643
I0
tp1644
a(S'afeo-4.3.owl'
p1645
I0
tp1646
a(S'owlexport.php?proorg=KM+-+Tim+05'
p1647
I0
tp1648
a(S'mars-domain-notions.rdf'
p1649
I0
tp1650
a(S'Uncertainty.owl.2'
p1651
I0
tp1652
a(S'nobel.owl.1'
p1653
I0
tp1654
a(S'content.rdf'
p1655
I0
tp1656
a(S'Cell line ontology v2.0.owl'
p1657
I0
tp1658
a(S'iGTO.owl'
p1659
I0
tp1660
a(S'snpontology_full.owl'
p1661
I0
tp1662
a(S't025.rdf'
p1663
I0
tp1664
a(S'TM_Meridians.owl'
p1665
I0
tp1666
a(S'xproc.owl'
p1667
I0
tp1668
a(S'ero.owl'
p1669
I0
tp1670
a(S'root-ontology.owx'
p1671
I0
tp1672
a(S'mim.owl'
p1673
I0
tp1674
a(S'conclusions001.rdf.7'
p1675
I0
tp1676
a(S'conclusions004.rdf.3'
p1677
I0
tp1678
a(S'unit'
p1679
I0
tp1680
a(S'HIVOnt016.owl'
p1681
I0
tp1682
a(S'uberon.owl'
p1683
I0
tp1684
a(S'TM_OtherFactors.owl'
p1685
I0
tp1686
a(S'carelex.owl'
p1687
I0
tp1688
a(S'BioPortal_Ontology18.owl'
p1689
I0
tp1690
a(S'icontact.owl'
p1691
I0
tp1692
a(S'pstruct025.owl'
p1693
I0
tp1694
a(S'RackMultipart20131105-23208-n8u32x.xml'
p1695
I0
tp1696
a(S'phenXOnto_v1_2.owl'
p1697
I0
tp1698
a(S'OntoMA.1.1.OWL'
p1699
I0
tp1700
a(S'SVECore.owl'
p1701
I0
tp1702
a(S'SSpApplication.rdf-xml.owl'
p1703
I0
tp1704
a(S'citeseer.owl'
p1705
I0
tp1706
a(S'TM_Constitution.owl'
p1707
I0
tp1708
a(S'Policy.owl.1'
p1709
I0
tp1710
a(S'statisticalcluster.owl'
p1711
I0
tp1712
a(S'CEDARPC.owl'
p1713
I0
tp1714
a(S'conclusions001.rdf.1'
p1715
I0
tp1716
a(S'cabro.owl'
p1717
I0
tp1718
a(S'index.html.4'
p1719
I0
tp1720
a(S'eCP.owl'
p1721
I0
tp1722
a(S'ISO37120.owl'
p1723
I0
tp1724
a(S'conclusions002.rdf.31'
p1725
I0
tp1726
a(S'2015_06_11_Transitional care.owl'
p1727
I0
tp1728
a(S'PMR.rdf-xml.owl'
p1729
I0
tp1730
a(S'BIRNLex.owl'
p1731
I0
tp1732
a(S'tp.owl'
p1733
I0
tp1734
a(S'dig-daml-axioms.rdf'
p1735
I0
tp1736
a(S'ABA.owl'
p1737
I0
tp1738
a(S'EpilepsyOntology.owl'
p1739
I0
tp1740
a(S'DDO_v1.owl'
p1741
I0
tp1742
a(S'hls'
p1743
I0
tp1744
a(S'INM ontologie v2.owl'
p1745
I0
tp1746
a(S'BPO 11_12_10.owl'
p1747
I0
tp1748
a(S'MapItm36.rdf-xml-13-01-09.owl'
p1749
I0
tp1750
a(S'mamo-xml.owl'
p1751
I0
tp1752
a(S'irigaz_frwk.owl'
p1753
I0
tp1754
a(S'premises003.rdf.34'
p1755
I0
tp1756
a(S'PTS_Revised_Merged_Final.owl'
p1757
I0
tp1758
a(S'apaneurocluster.owl'
p1759
I0
tp1760
a(S'EXACT2.owl'
p1761
I0
tp1762
a(S'nsfaward.owl'
p1763
I0
tp1764
a(S'biomodels-21.owl'
p1765
I0
tp1766
a(S'SMATApplicationOntologyV1.0jValidated.owl'
p1767
I0
tp1768
a(S'videojuegos.owl'
p1769
I0
tp1770
a(S'smash-ontology.owl'
p1771
I0
tp1772
a(S'open311.owl'
p1773
I0
tp1774
a(S'QIBO_OWL1.owl'
p1775
I0
tp1776
a(S'conclusions002.rdf.49'
p1777
I0
tp1778
a(S'MIDAS_Profile.owl'
p1779
I0
tp1780
a(S'fileOntology.owl'
p1781
I0
tp1782
a(S'PhylOnt.owl'
p1783
I0
tp1784
a(S'RolesAndActions.rdf-xml.owl'
p1785
I0
tp1786
a(S'DocumentFolderSchemata_2.rdf'
p1787
I0
tp1788
a(S'university.owl'
p1789
I0
tp1790
a(S'MSontologyfinal_BFOversion.owl'
p1791
I0
tp1792
a(S'00122.owl'
p1793
I0
tp1794
a(S'premises005.rdf'
p1795
I0
tp1796
a(S'conclusions003.rdf'
p1797
I0
tp1798
a(S'TM_SignsAndSymptoms.owl'
p1799
I0
tp1800
a(S'Protein_Ligand_Interaction_Ontology_PLIO_revised.owl'
p1801
I0
tp1802
a(S'GCI-Foundation.owl'
p1803
I0
tp1804
a(S'condition_2.owl.1'
p1805
I0
tp1806
a(S'ethnicityOntologyv1.owl'
p1807
I0
tp1808
a(S'RepO.owl'
p1809
I0
tp1810
a(S'obi.owl'
p1811
I0
tp1812
a(S't019.rdf'
p1813
I0
tp1814
a(S'organization.owl'
p1815
I0
tp1816
a(S'dinto_1.3.owl'
p1817
I0
tp1818
a(S'2015_06_15_Administrator.owl'
p1819
I0
tp1820
a(S'JERM_alpha1.6.owl'
p1821
I0
tp1822
a(S'owlexport.php?proorg=KM+-+Tim+30'
p1823
I0
tp1824
a(S'schema.owl'
p1825
I0
tp1826
a(S'conclusions004.rdf.6'
p1827
I0
tp1828
a(S'conclusions004.rdf.1'
p1829
I0
tp1830
a(S'conclusions004.rdf.2'
p1831
I0
tp1832
a(S'premises006.rdf.1'
p1833
I0
tp1834
a(S'conclusions001.rdf.8'
p1835
I0
tp1836
a(S'envo.owl'
p1837
I0
tp1838
a(S'full-galen.owl'
p1839
I0
tp1840
a(S'bodysystem.owl'
p1841
I0
tp1842
a(S'treatmentcluster.owl'
p1843
I0
tp1844
a(S'premises902.rdf.8'
p1845
I0
tp1846
a(S'aigp.owl'
p1847
I0
tp1848
a(S'rex.owl'
p1849
I0
tp1850
a(S'syndromes.owl'
p1851
I0
tp1852
a(S'politicianbill.owl'
p1853
I0
tp1854
a(S'V3.0FAOntology.rdf-xml.owl'
p1855
I0
tp1856
a(S'GeographicalRegion.owl'
p1857
I0
tp1858
a(S'PatientSafetyOntology.owl'
p1859
I0
tp1860
a(S'common.owl'
p1861
I0
tp1862
a(S't037.rdf'
p1863
I0
tp1864
a(S'vsto.owl.1'
p1865
I0
tp1866
a(S'OntoDM-KDD.owl'
p1867
I0
tp1868
a(S'familyImport18.xml'
p1869
I0
tp1870
a(S'premises001.rdf.8'
p1871
I0
tp1872
a(S'BRCO_Edition_v3.0.owl'
p1873
I0
tp1874
a(S'cycCore.rdf'
p1875
I0
tp1876
a(S'ofpe-4.1.owl'
p1877
I0
tp1878
a(S'TESCHET.owl'
p1879
I0
tp1880
a(S'OntoDM.owl'
p1881
I0
tp1882
a(S'owlexport.php?proorg=KM+-+Tim+35'
p1883
I0
tp1884
a(S'tools.owl'
p1885
I0
tp1886
a(S'event.owl'
p1887
I0
tp1888
a(S'CL.rdf-xml-3.owl'
p1889
I0
tp1890
a(S'naics.owl'
p1891
I0
tp1892
a(S'conclusions002.rdf.35'
p1893
I0
tp1894
a(S'MOedited.owl'
p1895
I0
tp1896
a(S'premises003.rdf.25'
p1897
I0
tp1898
a(S'premises003.rdf.27'
p1899
I0
tp1900
a(S'rdfcl.rdf'
p1901
I0
tp1902
a(S'SimulationScenarioDeviations.owl'
p1903
I0
tp1904
a(S'instOntology.owl'
p1905
I0
tp1906
a(S'temporal.owl.2'
p1907
I0
tp1908
a(S'conclusions002.rdf.28'
p1909
I0
tp1910
a(S'test_gcc3_ont.owl?file_id=10438'
p1911
I0
tp1912
a(S'PICO3.owl'
p1913
I0
tp1914
a(S'computercluster.owl'
p1915
I0
tp1916
a(S'piero.owl'
p1917
I0
tp1918
a(S'IMGT-ONTOLOGY-v1-0-2.owl'
p1919
I0
tp1920
a(S'conclusions003.rdf.2'
p1921
I0
tp1922
a(S'conclusions003.rdf.1'
p1923
I0
tp1924
a(S'RackMultipart20131210-10031-3l5z92.xml'
p1925
I0
tp1926
a(S'owl.rdf.3'
p1927
I0
tp1928
a(S'provenance.owl'
p1929
I0
tp1930
a(S'Hugo_July12_2010.owl'
p1931
I0
tp1932
a(S'DUL.owl'
p1933
I0
tp1934
a(S'bfo.owl'
p1935
I0
tp1936
a(S'esfo.new.owl'
p1937
I0
tp1938
a(S'radonc_ontology.owl'
p1939
I0
tp1940
a(S'so.owl'
p1941
I0
tp1942
a(S'premises004.rdf.2'
p1943
I0
tp1944
a(S'Ontology1228014870390.owl'
p1945
I0
tp1946
a(S'eligibility-feature-hierarchy.owl'
p1947
I0
tp1948
a(S'2015_06_16 Triage nurse.owl'
p1949
I0
tp1950
a(S'harry_potter.rdf-xml.owl.1'
p1951
I0
tp1952
a(S'comodi.owl'
p1953
I0
tp1954
a(S'ro.owl'
p1955
I0
tp1956
a(S'educationalcluster.owl'
p1957
I0
tp1958
a(S'pato.owl'
p1959
I0
tp1960
a(S'TLO.rdf-xml-2.owl'
p1961
I0
tp1962
a(S'CPTAC_alpha2.owl'
p1963
I0
tp1964
a(S'Sumo-OWL-Fixed-Version-2003.owl'
p1965
I0
tp1966
a(S'disorderscluster.owl'
p1967
I0
tp1968
a(S'esg.owl'
p1969
I0
tp1970
a(S'neomark_ontology.owl'
p1971
I0
tp1972
a(S'owlexport.php?proorg=KM+-+Tim+17'
p1973
I0
tp1974
a(S't055.rdf'
p1975
I0
tp1976
a(S'stato.owl'
p1977
I0
tp1978
a(S'EpigeneticsFoundation.owl'
p1979
I0
tp1980
a(S'SYN.owl'
p1981
I0
tp1982
a(S'PICO2.owl'
p1983
I0
tp1984
a(S'navigation.owl'
p1985
I0
tp1986
a(S'PublicationType.owl'
p1987
I0
tp1988
a(S'context.rdf'
p1989
I0
tp1990
a(S'bionutrition_cam9.owl'
p1991
I0
tp1992
a(S'premises002.rdf.3'
p1993
I0
tp1994
a(S'premises002.rdf.2'
p1995
I0
tp1996
a(S'ESSO V1.03.owl'
p1997
I0
tp1998
a(S'nonconclusions005.rdf.1'
p1999
I0
tp2000
a(S'periodic_full_06012009.owl'
p2001
I0
tp2002
a(S'Read_V22015.owl'
p2003
I0
tp2004
a(S'svg_ont.owl'
p2005
I0
tp2006
a(S'cto_obo.owl'
p2007
I0
tp2008
a(S'wordnet_2.rdf'
p2009
I0
tp2010
a(S'educational.owl'
p2011
I0
tp2012
a(S'uri-resolution.owl'
p2013
I0
tp2014
a(S'CEDAR_Value_Sets.owl'
p2015
I0
tp2016
a(S'RackMultipart20131003-5009-zajae3.xml'
p2017
I0
tp2018
a(S'SAMOA_Profile.owl'
p2019
I0
tp2020
a(S'OPE.owl'
p2021
I0
tp2022
a(S'software.owl'
p2023
I0
tp2024
a(S'hao.owl'
p2025
I0
tp2026
a(S'PICO1.owl'
p2027
I0
tp2028
a(S'owlexport.php?proorg=Baze+Podataka+-+FOI'
p2029
I0
tp2030
a(S'condition_5.owl'
p2031
I0
tp2032
a(S'BrainSchema.owl'
p2033
I0
tp2034
a(S'carre.owl'
p2035
I0
tp2036
a(S'wsdl-rdf.1'
p2037
I0
tp2038
a(S'qudt.xml'
p2039
I0
tp2040
a(S'premises903.rdf.12'
p2041
I0
tp2042
a(S'ASDPhenotypeOntology_Public.owl'
p2043
I0
tp2044
a(S'PDO_FullyAnnotated_Final_v1.0.owl'
p2045
I0
tp2046
a(S'cpannotationschema.owl'
p2047
I0
tp2048
a(S'relationship.rdf'
p2049
I0
tp2050
a(S'units.owl'
p2051
I0
tp2052
a(S'PipelinePatterns.owl'
p2053
I0
tp2054
a(S'premises003.rdf.18'
p2055
I0
tp2056
a(S'provenance.owl.2'
p2057
I0
tp2058
a(S'keys.owl'
p2059
I0
tp2060
a(S'ROO.owl'
p2061
I0
tp2062
a(S'legal-2.owl'
p2063
I0
tp2064
a(S'atol_v6.owl'
p2065
I0
tp2066
a(S'legal.owl'
p2067
I0
tp2068
a(S'premises901.rdf.7'
p2069
I0
tp2070
a(S't073.rdf'
p2071
I0
tp2072
a(S'premises904.rdf.8'
p2073
I0
tp2074
a(S'conclusions002.rdf.29'
p2075
I0
tp2076
a(S'hfo.owl'
p2077
I0
tp2078
a(S'OMV_v2.4.1.owl'
p2079
I0
tp2080
a(S'conclusions002.rdf.25'
p2081
I0
tp2082
a.