(dp0
S'http://mmisw.org/ont/csdms/assumption'
p1
S'assumption'
p2
sS'http://mmisw.org/ont/mbari/bctd'
p3
S'bctd'
p4
sS'http://mmisw.org/ont/ANZRC/ANZRC_Codes'
p5
S'ANZRC_Codes'
p6
sS'http://mmisw.org/ont/cf/areatype'
p7
S'areatype'
p8
sS'http://mmisw.org/ont/mmi/authority'
p9
S'authority'
p10
sS'http://mmisw.org/ont/ioos/active_acoustic_metadata'
p11
S'active_acoustic_metadata'
p12
sS'http://www.sw.deri.org/~zubeida/bfo-continuants.owl'
p13
S'bfo-continuants.owl'
p14
sS'http://mmisw.org/ont/CUAHSI/AtmosphericHydrologicCompound'
p15
S'AtmosphericHydrologicCompound'
p16
sS'http://sw.der.org/~zubeida/ROMULUS/ontologies/BFOGFOMerged.owl'
p17
S'BFOGFOMappings.owl'
p18
sS'http://mmisw.org/ont/CUAHSI/AtmosphericHydrologicSynthesis'
p19
S'AtmosphericHydrologicSynthesis'
p20
sS'http://mmisw.org/ont/CUAHSI/AquaBiologicalCompound'
p21
S'AquaBiologicalCompound'
p22
sS'http://mmisw.org/ont/secoora/atmospheric'
p23
S'atmospheric'
p24
sS'http://mmisw.org/ont/ioos/animal_acoustic_telemetry'
p25
S'animal_acoustic_telemetry'
p26
sS'http://sw.deri.org/~zubeida/ROMULUS/ontologies/BFOGFO-basicMerged.owl'
p27
S'BFOGFO-basicMappings.owl'
p28
sS'http://www.ifomis.org/bfo/1.1'
p29
S'bfo-1.1-el.owl'
p30
sS'http://mmisw.org/ont/CUAHSI/AtmosphericHydrologicCore'
p31
S'AtmosphericHydrologicCore'
p32
sS'http://mmisw.org/ont/CUAHSI/AquaBioCore'
p33
S'AquaBioCore'
p34
sS'http://mmisw.org/ont/ooici/architectureConcept'
p35
S'architectureConcept'
p36
sS'http://mmisw.org/ont/odm2/ActionType'
p37
S'ActionType'
p38
s.