(dp0
S'http://www.w3.org/2006/time-entry'
p1
S'time-entry.owl'
p2
sS'http://neurolog.unice.fr/ontoneurolog/v3.0/ontoneurolog-mr-dataset-acquisition.owl'
p3
S'ontoneurolog-mr-dataset-acquisition.owl'
p4
sS'http://purl.bioontology.org/ontology/MIM'
p5
S'mim.owl'
p6
sS'http://opendata.inra.fr/EOL/'
p7
S'eol.owl'
p8
sS'http://www.cin.ufpe.br/~ntdo/OWLFiles/ntdo.owl'
p9
S'ntdo.owl'
p10
sS'http://mmisw.org/ont/nasa_pace/observations'
p11
S'observations'
p12
sS'http://purl.org/skeletome/bonedysplasia'
p13
S'bonedysplasia.owl'
p14
sS'https://carre.kmi.open.ac.uk/ontology/educational.owl'
p15
S'educational.owl'
p16
sS'http://www.semanticweb.org/ontologies/2012/5/Ontology1338526551855.owl'
p17
S'RPO_081112_owl.0'
p18
sS'http://mmisw.org/ont/CUAHSI/SurfaceHydrologicCompound'
p19
S'SurfaceHydrologicCompound'
p20
sS'&obo;ontoneo/ontoneo.owl'
p21
S'ontoneo.owl'
p22
sS'http://www.w3.org/ns/prov'
p23
S'prov-o.owl'
p24
sS'http://purl.oclc.org/NET/mvco.owl'
p25
S'mvco.owl'
p26
sS'https://schema.metadatacenter.org/'
p27
S'CEDARPC.owl'
p28
sS'&obo;iao/dev/ontology-metadata.owl'
p29
S'ontology-metadata.owl'
p30
sS'http://mmisw.org/ont/mmi/MarineOrganism'
p31
S'MarineOrganism'
p32
sS'http://www.ontologydesignpatterns.org/cp/owl/controlflow.owl'
p33
S'controlflow.owl'
p34
sS'http://www.cs.ukzn.ac.za/zubeida/ontologies/FunctionalParticipationBFOMerged.owl'
p35
S'FunctionalParticipationBFOMappings.owl'
p36
sS'&obo;in/hino.owl'
p37
S'hino.owl'
p38
sS'http://purl.obolibrary.org/obo/DDO.owl'
p39
S'DDO_v1.owl'
p40
sS'&comp;'
p41
S'matrCompound.owl'
p42
sS'&obo;ovae.owl'
p43
S'ovae_merged.owl'
p44
sS'http://purl.bioontology.org/ontology/NPI'
p45
S'NPIs ontology v4.owl'
p46
sS'http://purl.obolibrary.org/obo/stato.owl'
p47
S'stato.owl'
p48
sS'http://mmisw.org/ont/CUAHSI/AquaBiologicalCompound'
p49
S'AquaBiologicalCompound'
p50
sS'http://mmisw.org/ont/ooi_epe/platforms'
p51
S'platforms'
p52
sS'http://mmisw.org/ont/CUAHSI/AquaBioCore'
p53
S'AquaBioCore'
p54
sS'http://purl.obolibrary.org/obo/bfo.owl'
p55
S'bfo.owl'
p56
sS'http://mmisw.org/ont/ooi-ci/cdm'
p57
S'cdm'
p58
sS'http://purl.obolibrary.org/obo/aero.owl'
p59
S'aero.owl'
p60
sS'http://mmisw.org/ont/ooi_epe/platform_mapping'
p61
S'platform_mapping'
p62
sS'http://regenbase.org/ontology'
p63
S'regenbase_vocabulary.owl'
p64
sS'&obo;ico_merged.owl'
p65
S'ico_merged.owl'
p66
sS'http://neomark.owl'
p67
S'neomark_ontology.owl'
p68
sS'http://mmisw.org/ont/drdc/parameter'
p69
S'parameter.6'
p70
sS'&pmlpbase;'
p71
S'pml-provenance.owl'
p72
sS'http://mmisw.org/ont/ioos/category'
p73
S'category'
p74
sS'http://www.semanticweb.org/ontologies/2010/5/22/Ontology1277229984000.owl'
p75
S'HPI.owl'
p76
sS'http://ecoinformatics.org/oboe/oboe.1.0/oboe.owl'
p77
S'oboe.owl'
p78
sS'http://qudt.org/schema/qudt'
p79
S'qudt.xml'
p80
sS'http://mmisw.org/ont/seacoos/qualityFlag_aq'
p81
S'qualityFlag_aq'
p82
sS'http://mmisw.org/ont/q2o/parameter'
p83
S'parameter.4'
p84
sS'&obo;flu/dev/flu.owl'
p85
S'flu.owl'
p86
sS'http://mmisw.org/ont/trdi/models'
p87
S'models'
p88
sS'http://www.semanticweb.org/jdr2160/ontologies/2015/5/venom_ontology'
p89
S'venom_ontology.xml'
p90
sS'&elem;'
p91
S'matrElement.owl'
p92
sS'http://unbsj.biordf.net/lipids/lipid-classification-service-ontology.owl'
p93
S'lipid-classification-service-ontology.owl'
p94
sS'http://mmisw.org/ont/mmi/sensor'
p95
S'sensor.2'
p96
sS'http://www.semanticweb.org/ontologies/2011/1/14/EMO.owl'
p97
S'emo.owl'
p98
sS'http://www.semanticweb.org/associatedmedicine/lavima/2011/10/Ontology1.owl'
p99
S'OntoMA.1.1.OWL'
p100
sS'&gfo-bio;'
p101
S'gfo-bio.owl'
p102
sS'http://mmisw.org/ont/igoss/qualityFlag'
p103
S'qualityFlag.5'
p104
sS'http://mmisw.org/ont/calcofi/weatherData'
p105
S'weatherData'
p106
sS'http://mmisw.org/ont/secoora/optical'
p107
S'optical'
p108
sS'&chem;'
p109
S'matr.owl'
p110
sS'http://purl.org/spar/cito/'
p111
S'2014-05-22-cito-2_6_3.owl'
p112
sS'http://opendata.inra.fr/resources/BIORAF#'
p113
S'BIOREFINERY.owl'
p114
sS'http://www.bioassayontology.org/bao/bao_complete.owl'
p115
S'bao_complete.owl'
p116
sS'http://mmisw.org/ont/csdms/operator'
p117
S'operator'
p118
sS'http://mmisw.org/ont/odm2test/relationshiptype'
p119
S'relationshiptype'
p120
sS'http://mmisw.org/ont/CUAHSI/LandSynthesis'
p121
S'LandSynthesis'
p122
sS'http://www.owl-ontologies.com/assert.owl'
p123
S'OntoKBCF1301new.owl'
p124
sS'http://mmisw.org/ont/isdm/instituteCodes'
p125
S'instituteCodes'
p126
sS'http://mmisw.org/ont/seacoos/qualityFlag_tq'
p127
S'qualityFlag_tq'
p128
sS'http://purl.obolibrary.org/obo/ero.owl'
p129
S'ero.owl'
p130
sS'http://who.int/bodysystem.owl'
p131
S'bodysystem.owl'
p132
sS'http://mmisw.org/ont/fao/habitatclassification'
p133
S'habitatclassification'
p134
sS'http://chem2bio2rdf.org/chem2bio2rdf.owl'
p135
S'chem2bio2rdf.owl'
p136
sS'http://www.loria.fr/~coulet/sopharm/'
p137
S'sopharm2.2.owl'
p138
sS'file:/D:/mpoveda/ICPS/Red%20ICPS/ICPS%20Network/ActionsToReduceRisk.owl'
p139
S'ActionsToReduceRisk.owl'
p140
sS'&obo;ohmi.owl'
p141
S'ohmi.owl'
p142
sS'http://who.int/ictm/constitution'
p143
S'TM_Constitution.owl'
p144
sS'http://purl.org/cwmo/'
p145
S'CWMO-042.owl'
p146
sS'http://purl.obolibrary.org/obo/oostt.owl/'
p147
S'oostt.owl'
p148
sS'http://mmisw.org/ont/mvco/platform'
p149
S'platform.1'
p150
sS'http://mged.sourceforge.net/ontologies/MGEDOntology.owl'
p151
S'MGEDOntology.owl'
p152
sS'http://www.ICPS/ontologies/MitigatingFactors.owl'
p153
S'MitigatingFactors.owl'
p154
sS'http://mmisw.org/ont/mmi/usjgofs_hydro'
p155
S'usjgofs_hydro'
p156
sS'http://mmisw.org/ont/ioos/animal_acoustic_telemetry'
p157
S'animal_acoustic_telemetry'
p158
sS'http://www.ontologydesignpatterns.org/cp/owl/timeindexedsituation.owl'
p159
S'timeindexedsituation.owl'
p160
sS'http://www.semanticweb.org/ontologies/2008/8/SPO_lightweight_merged.owl'
p161
S'Skin Physiology Ontology 2.0.owl'
p162
sS'http://www.semanticweb.org/ethnicityOntology'
p163
S'ethnicityOntologyv1.owl'
p164
sS'http://purl.obolibrary.org/obo/poro.owl'
p165
S'poro.owl'
p166
sS'http://www.fadyart.com/Finance.owl'
p167
S'Finance.owl'
p168
sS'http://mmisw.org/ont/mmi/om'
p169
S'om'
p170
sS'http://www.cs.ukzn.ac.za/zubeida/ontologies/BFOROTemporalRelationsMerged.owl'
p171
S'BFOROTemporalRelationsMerged.owl'
p172
sS'http://mmisw.org/ont/calcofi/CalCOFI_stationid'
p173
S'CalCOFI_stationid'
p174
sS'http://www.w3.org/2002/07/owl#'
p175
S'2015_06_11_Transitional care.owl'
p176
sS'&openprovenance;opmo'
p177
S'opmo-20101012.owl'
p178
sS'http://informatics.mayo.edu/TEO.owl'
p179
S'TEO.owl'
p180
sS'http://mmisw.org/ont/mbarissds/eqtorientation'
p181
S'eqtorientation'
p182
sS'http://mmisw.org/ont/mmi/udunits2-accepted'
p183
S'udunits2-accepted'
p184
sS'http://mmisw.org/ont/mmi/mmiorr'
p185
S'mmiorr'
p186
sS'http://mmisw.org/ont/ioos/tagging_exchange_standards_v1'
p187
S'tagging_exchange_standards_v1'
p188
sS'http://mmisw.org/ont/ican/thesaurus'
p189
S'thesaurus.1'
p190
sS'&obo;odnae.owl'
p191
S'odnae_merged.owl'
p192
sS'http://www.ICPS/ontologies/ContributingFactors-Hazards'
p193
S'ContributingFactors-Hazards.owl'
p194
sS'http://scai.fraunhofer.de/HuPSON'
p195
S'HuPSON_v092013_merged.owl'
p196
sS'http://www.uv.es/agentes/sve/DSOBar.owl'
p197
S'DSOBar.owl'
p198
sS'http://mmisw.org/ont/noaa/noaadatalevels'
p199
S'noaadatalevels'
p200
sS'http://www.ICPS/ontologies/Outcomes.owl'
p201
S'Outcomes.owl'
p202
sS'http://mmisw.org/ont/BOEM/SFH'
p203
S'SFH'
p204
sS'http://mmisw.org/ont/noaa/noaa-tide-current'
p205
S'noaa-tide-current'
p206
sS'http://mmisw.org/ont/BOEM/SFM'
p207
S'SFM'
p208
sS'http://mmisw.org/ont/argo/qualityFlag'
p209
S'qualityFlag.6'
p210
sS'http://ontology.cybershare.utep.edu/ELSEWeb/elseweb-modelling.owl'
p211
S'elseweb-modelling.owl'
p212
sS'http://mmisw.org/ont/isro/INSAT3DDPV'
p213
S'INSAT3DDPV.1'
p214
sS'http://mmisw.org/ont/ooi_epe/instruments'
p215
S'instruments'
p216
sS'http://www.co-ode.org/ontologies/amino-acid/2006/05/18/amino-acid.owl#'
p217
S'amino acid - inferred.owl'
p218
sS'http://purl.jp/bio/11/pdo/'
p219
S'PDO_ver0.7.owl'
p220
sS'&org;'
p221
S'matrOrganicCompound.owl'
p222
sS'http://www.ontologydesignpatterns.org/cp/owl/sequence.owl'
p223
S'sequence.owl'
p224
sS'https://carre.kmi.open.ac.uk/ontology/lifestyle.owl'
p225
S'lifestyle.owl'
p226
sS'http://ccdb.ucsd.edu/SAO/1.2'
p227
S'SAO.owl'
p228
sS'http://mmisw.org/ont/q2o/flag'
p229
S'flag'
p230
sS'http://mmisw.org/ont/mvco/properties'
p231
S'properties'
p232
sS'http://www.owl-ontologies.com/MO.owl'
p233
S'MOedited.owl'
p234
sS'http://mmisw.org/ont/ioos/societal_areas'
p235
S'societal_areas'
p236
sS'&obo;RoleO.owl'
p237
S'RoleO.owl'
p238
sS'http://mmisw.org/ont/ooici/ooiionroles'
p239
S'ooiionroles'
p240
sS'http://www.semanticweb.org/owner/ontologies/2014/6/Drug.owl'
p241
S'AIDSClinic002 (1).owl'
p242
sS'http://www.ontologydesignpatterns.org/ont/web/irw.owl'
p243
S'irw.owl'
p244
sS'&obo;ogg.owl'
p245
S'ogg.owl'
p246
sS'http://www.loria.fr/pgxo/'
p247
S'pgxo.owl'
p248
sS'http://purl.org/net/OCRe/study_protocol.owl'
p249
S'study_protocol.owl'
p250
sS'http://mmisw.org/ont/mx/datalevel'
p251
S'datalevel'
p252
sS'http://purl.obolibrary.org/obo/bcgo_merged.owl'
p253
S'bcgo_merged_inferred.owl'
p254
sS'http://www.stanford.edu/~coulet/phare.owl'
p255
S'phare.owl'
p256
sS'&obo;ogg-mm.owl'
p257
S'ogg-mm.owl'
p258
sS'http://www.CareLex.org/2012/carelex.owl'
p259
S'carelex.owl'
p260
sS'http://www.semanticweb.org/chen/ontologies/2015/8/untitled-ontology-72'
p261
S'PatientSafetyOntology.owl'
p262
sS'http://www.ICPS/ontologies/IncidentCharacteristic'
p263
S'IncidentCharacteristic.owl'
p264
sS'http://www.dadfha.com/ont/hls'
p265
S'hls'
p266
sS'http://www.owl-ontologies.com/OntologyXCT.owl'
p267
S'XCTontologyvtemp2.owl'
p268
sS'http://mmisw.org/ont/ioos/platform_map'
p269
S'platform_map'
p270
sS'http://www.owl-ontologies.com/Ontology1358660052.owl'
p271
S'PedTerm_Jan20-13.owl'
p272
sS'http://purl.obolibrary.org/obo/bila.owl'
p273
S'bila.owl'
p274
sS'http://edamontology.org/'
p275
S'EDAM_1.16.owl'
p276
sS'&obo;ego.owl'
p277
S'ego.owl'
p278
sS'http://kt.ijs.si/panovp/OntoDM-KDD.owl'
p279
S'OntoDM-KDD.owl'
p280
sS'http://mmisw.org/ont/ioos/waterLevel'
p281
S'waterLevel'
p282
sS'http://purl.org/ontology/olo/core#'
p283
S'orderedlistontology.owl'
p284
sS'http://mmisw.org/ont/noaa/juvenilerockfish'
p285
S'juvenilerockfish'
p286
sS'http://mmisw.org/ont/coa/thesaurus'
p287
S'thesaurus.2'
p288
sS'http://purl.phyloviz.net/ontology/typon'
p289
S'typon.xml'
p290
sS'http://dati.camera.it/ocd/'
p291
S'classi.rdf'
p292
sS'http://purl.obolibrary.org/obo/dron.owl/'
p293
S'dron-full.owl'
p294
sS'http://www.semanticweb.org/pallabi.d/ontologies/2014/2/untitled-ontology-11'
p295
S'Cell line ontology v2.0.owl'
p296
sS'http://purl.obolibrary.org/obo/uberon.owl'
p297
S'uberon.owl'
p298
sS'http://mmisw.org/ont/CUAHSI/AtmosphericHydrologicCore'
p299
S'AtmosphericHydrologicCore'
p300
sS'http://mmisw.org/ont/mvco/qcTests'
p301
S'qcTests'
p302
sS'http://purl.org/autism-ontology/1.0/autism-merged.owl'
p303
S'autism-merged.owl'
p304
sS'http://mmisw.org/ont/mmi/udunits2-common'
p305
S'udunits2-common'
p306
sS'http://www.loc.gov/mods/rdf/v1'
p307
S'MODS_RDF_Ontology.rdf'
p308
sS'http://paul.staroch.name/thesis/SmartHomeWeather.owl#'
p309
S'SmartHomeWeather.owl'
p310
sS'http://opendata.inra.fr/resources/Durum_Wheat#'
p311
S'DURUM_WHEAT.owl'
p312
sS'http://www.semanticweb.org/demetrios/ontologies/2014/5/untitled-ontology-3'
p313
S'BioPortal_Ontology18.owl'
p314
sS'http://purl.obolibrary.org/obo/cl.owl'
p315
S'cl.owl'
p316
sS'http://mmisw.org/ont/agu/indexterm'
p317
S'indexterm'
p318
sS'http://mmisw.org/ont/ooici/informationResource'
p319
S'informationResource'
p320
sS'http://purl.obolibrary.org/obo/rxno.obo.owl'
p321
S'rxno.owl'
p322
sS'http://mmisw.org/ont/secoora/weather_climate'
p323
S'weather_climate'
p324
sS'http://lsdis.cs.uga.edu/projects/glycomics/propreo'
p325
S'ProPreO-060506.owl'
p326
sS'http://www.loa-cnr.it/ontologies/DOLCE-Lite.owl'
p327
S'DOLCE-RL.owl'
p328
sS'http://purl.obolibrary.org/obo/chmo.owl'
p329
S'chmo.owl'
p330
sS'http://aimlab.cs.uoregon.edu/smash/ontologies/smash-ontology.owl'
p331
S'smash-ontology.owl'
p332
sS'http://mmisw.org/ont/ioos/harmonicConstituents'
p333
S'harmonicConstituents'
p334
sS'http://mmisw.org/ont/mmi/udunits2-base'
p335
S'udunits2-base'
p336
sS'http://purl.obolibrary.org/obo/obib_merged.owl'
p337
S'obib_merged_inferred.owl'
p338
sS'http://mmisw.org/ont/comps/flag'
p339
S'flag.1'
p340
sS'http://www.meteck.org/files/ontologies/stuff.owl'
p341
S'stuff.owl'
p342
sS'http://mmisw.org/ont/ooici/resourceType'
p343
S'resourceType'
p344
sS'http://www.ontologydesignpatterns.org/ont/lmm/LMM_L2.owl'
p345
S'LMM_L2.owl'
p346
sS'http://vavlab.ee.boun.edu.tr/carera/onlira.owl'
p347
S'ONLIRA_v106.owl'
p348
sS'http://www.nada.kth.se/~mehrana/Delegation.owl'
p349
S'Delegation.owl'
p350
sS'http://www.cs.ukzn.ac.za/zubeida/ontologies/BFOROFunctionalParticipationMerged.owl'
p351
S'BFOROFunctionalParticipationMerged.owl'
p352
sS'http://www.ontologydesignpatterns.org/cp/owl/basicplan.owl'
p353
S'basicplan.owl'
p354
sS'http://mmisw.org/ont/ioos/identifier_parameter_program'
p355
S'identifier_parameter_program'
p356
sS'http://www.cs.ukzn.ac.za/zubeida/ontologies/BFOROSpatialRelationsMerged.owl'
p357
S'BFOROSpatialRelationsMappings.owl'
p358
sS'http://surveillance.mcgill.ca/sso/syndromes.owl'
p359
S'syndromes.owl'
p360
sS'http://purl.org/biotop/biotop.owl'
p361
S'biotop.owl'
p362
sS'http://www.semanticweb.org/ontologies/2015/0/statisticalcluster.owl'
p363
S'statisticalcluster.owl'
p364
sS'http://www.ontologydesignpatterns.org/ont/dul/ontopic.owl'
p365
S'ontopic.owl'
p366
sS'http://www.semanticweb.org/ontologies/2012/8/Ontology1348158066194.owl'
p367
S'eligibility-feature-hierarchy.owl'
p368
sS'http://www.co-ode.org/ontologies/ont.owl'
p369
S'PhylOnt.owl'
p370
sS'http://mmisw.org/ont/oca/ocaican'
p371
S'ocaican'
p372
sS'http://mmisw.org/ont/drdc/_map'
p373
S'_map'
p374
sS'http://mmisw.org/ont/CUAHSI/LandCore'
p375
S'LandCore'
p376
sS'http://purl.bioontology.org/ontology/SYN'
p377
S'SYN.owl'
p378
sS'http://mmisw.org/ont/mbari/parameter'
p379
S'parameter.7'
p380
sS'http://www.semanticweb.org/ontologies/2014/11/legal-2.owl'
p381
S'legal-2.owl'
p382
sS'http://cbakerlab.unbsj.ca:8080/ontologies/BIM.owl'
p383
S'bim_beta.owl'
p384
sS'http://mmisw.org/ont/ndbc/qualityFlag_soft'
p385
S'qualityFlag_soft'
p386
sS'&obo;ido/brucellosis.owl'
p387
S'brucellosis_merged.owl'
p388
sS'http://www.semanticweb.org/hll/ontologies/2013/8/untitled-ontology-2'
p389
S'RackMultipart20131003-5009-zajae3.xml'
p390
sS'http://rds.posccaesar.org/2008/02/OWL/ISO-15926-2_2003'
p391
S'ISO-15926-2_2003.xml'
p392
sS'http://mmisw.org/ont/pmel/unit'
p393
S'unit'
p394
sS'&obo;ocvdae.owl'
p395
S'ocvdae-merged.owl'
p396
sS'http://bmkeg.isi.edu/ooevv/'
p397
S'ooevv_odp_0.0.4.owl'
p398
sS'http://mmisw.org/ont/ooiplatform1/OOI_Platform'
p399
S'OOI_Platform'
p400
sS'http://purl.bioontology.org/ontology/DIAB/'
p401
S'DIAB_v90rb.owl'
p402
sS'http://webprotege.stanford.edu/project/BTEinHSzHWlwyRnTyX0c8O'
p403
S'root-ontology.owx'
p404
sS'http://www.semanticweb.org/ontologies/2015/0/treatmentcluster.owl'
p405
S'treatmentcluster.owl'
p406
sS'http://mmisw.org/ont/nasa_pace/physical'
p407
S'physical'
p408
sS'http://mmisw.org/ont/ioos/OA'
p409
S'OA'
p410
sS'http://mmisw.org/ont/mmi/devterm'
p411
S'devterm'
p412
sS'http://www.owl-ontologies.com/travel.owl'
p413
S'travel(2).owl'
p414
sS'http://purl.obolibrary.org/obo/dinto.owl'
p415
S'dinto_1.3.owl'
p416
sS'/&obo;zeco.owl'
p417
S'zeco.owl'
p418
sS'http://scai.fraunhofer.de/AlzheimerOntology'
p419
S'Alzheimer Ontology v15R-xml_merged.owl'
p420
sS'http://purl.obolibrary.org/obo/geno.owl'
p421
S'geno.owl'
p422
sS'http://purl.jp/bio/11/csso/'
p423
S'CSSO_ver0.6.owl'
p424
sS'http://www.co-ode.org/ontologies/pizza/pizza.owl'
p425
S'pizza.owl'
p426
sS'http://purl.obolibrary.org/obo/sibo.owl'
p427
S'sibo.owl'
p428
sS'http://www.isibang.ac.in/mod/ns'
p429
S'mod-ontology-09092016.owl'
p430
sS'http://mmisw.org/ont/nasa_pace/observation_mapping'
p431
S'observation_mapping'
p432
sS'http://mmisw.org/ont/CUAHSI/SubstrateHydrologicSyn'
p433
S'SubstrateHydrologicSyn'
p434
sS'http://purl.obolibrary.org/obo/dpo.owl'
p435
S'dpo.owl'
p436
sS'http://mmisw.org/ont/ecs/device'
p437
S'device.1'
p438
sS'http://mmisw.org/ont/ANZRC/ANZRC_Codes'
p439
S'ANZRC_Codes'
p440
sS'http://purl.org/net/orth'
p441
S'oo.owl'
p442
sS'http://purl.obolibrary.org/obo/fbsp.owl'
p443
S'fbsp.owl'
p444
sS'http://who.int/ictm/otherFactors'
p445
S'TM_OtherFactors.owl'
p446
sS'http://mmisw.org/ont/nasa/datalevel'
p447
S'datalevel.1'
p448
sS'http://mmisw.org/ont/mmi/Equipment'
p449
S'Equipment'
p450
sS'http://www.ICPS/ontologies/Person'
p451
S'Person.owl'
p452
sS'https://code.ecoinformatics.org/code/semtools/trunk/dev/oboe/oboe-sbc.owl'
p453
S'oboe-sbc.owl'
p454
sS'http://mmisw.org/ont/secoora/parameter'
p455
S'parameter.1'
p456
sS'http://mmisw.org/ont/nasa_pace/environmental_interactions'
p457
S'environmental_interactions'
p458
sS'http://purl.obolibrary.org/obo/2016-06-27/ohd-inferred.owl'
p459
S'ohd.owl'
p460
sS'http://mmisw.org/ont/secoora/water_property'
p461
S'water_property'
p462
sS'http://mmisw.org/ont/mx/featuretype'
p463
S'featuretype'
p464
sS'http://ontology.cybershare.utep.edu/ELSEWeb/elseweb-edac.owl'
p465
S'elseweb-edac.owl'
p466
sS'http://www.ics.forth.gr/isl/MarineTLO/v4/marinetlo.owl'
p467
S'marinetlo.owl'
p468
sS'http://www.semanticweb.org/vanessa/ontologies/2012/7/untitled-ontology-33'
p469
S'RackMultipart20131105-23208-n8u32x.xml'
p470
sS'http://neuromorpho.org/ontologies/NMOSp.owl'
p471
S'NMOSp.owl'
p472
sS'&ontologies;CogPOver2010.owl'
p473
S'CogPO12142010.owl'
p474
sS'file:/Users/twhetzel/Documents/Stanford/Outreach/BRO/BRO_v3.0_alpha3/BRO_v3.0_alpha3.owl'
p475
S'BRO.owl'
p476
sS'http://rhizomik.net/ontologies/copyrightonto.owl'
p477
S'copyrightonto.owl'
p478
sS'http://marigold.informatics.washington.edu:25000/~boycer/owl/2007/DIKB_evidence_ontology.owl'
p479
S'DIKB_evidence_ontology_v1.7.owl'
p480
sS'http://purl.obolibrary.org/obo/'
p481
S'OMIT.owl'
p482
sS'&gfo.owl;'
p483
S'gfo.owl'
p484
sS'http://mmisw.org/ont/odm2/SamplingFeatureType'
p485
S'SamplingFeatureType'
p486
sS'http://sysvasc.cs.man.ac.uk/formats/proteasixInOwl/proteasix'
p487
S'PxOmetazoa.owl.crdownload.xml'
p488
sS'http://www.ontologydesignpatterns.org/cp/owl/timeinterval.owl'
p489
S'timeinterval.owl'
p490
sS'http://mmisw.org/ont/SunithaAbburu/INSAT3DDPV'
p491
S'INSAT3DDPV'
p492
sS'http://mmisw.org/ont/mvco/qcCategory'
p493
S'qcCategory'
p494
sS'http://www.semanticweb.org/inra/ms2o'
p495
S'PO2_Core.owl'
p496
sS'http://chem.deri.ie/granatum'
p497
S'CancerChemopreventionOntology.owl'
p498
sS'http://semantic-dicom.org/dcm'
p499
S'dicom.owl'
p500
sS'http://mmisw.org/ont/trdi/platforms'
p501
S'platforms.1'
p502
sS'http://mmisw.org/ont/mvco/process'
p503
S'process'
p504
sS'http://mmisw.org/ont/ioos/datum'
p505
S'datum'
p506
sS'http://mmisw.org/ont/cchhg/cchhg_product_type'
p507
S'cchhg_product_type'
p508
sS'http://www.evolutionaryontology.org/cdao/1.0/cdao.owl'
p509
S'cdao.owl'
p510
sS'http://bioportal/bioontology.org/ontologies/HIVO0004'
p511
S'HIVOnt016.owl'
p512
sS'http://mmisw.org/ont/SunithaAbburu/INSAT3DM'
p513
S'INSAT3DM'
p514
sS'http://purl.oclc.org/BIOMO/ontology/biomo.owl'
p515
S'biomo.owl'
p516
sS'&ontology;NEMO.owl'
p517
S'RackMultipart20131021-23110-1vlki4d.xml'
p518
sS'http://mmisw.org/ont/mmi/udunits2-prefixes'
p519
S'udunits2-prefixes'
p520
sS'http://mmisw.org/ont/secoora/param2cat'
p521
S'param2cat'
p522
sS'http://www.limics.fr/ontologies/ontolurgences'
p523
S'OntolUrgences_v3.0.4.owl'
p524
sS'http://mmisw.org/ont/rdi/rdi'
p525
S'rdi'
p526
sS'http://www.ebi.ac.uk/cmpo/cmpo.owl'
p527
S'cmpo.owl'
p528
sS'http://mmisw.org/ont/ioc/ctdfield'
p529
S'ctdfield'
p530
sS'http://www.semanticweb.org/david/ontologies/2013/0/pathLex.owl'
p531
S'pathLex.owl'
p532
sS'http://mmisw.org/ont/ODMT/ODMTT'
p533
S'ODMTT'
p534
sS'http://mmisw.org/ont/mmi/MXP'
p535
S'MXP'
p536
sS'http://www.ICPS/ontologies/PatientOutcomes'
p537
S'PatientOutcomes.owl'
p538
sS'http://mmisw.org/ont/graybealski/mappingcategory'
p539
S'mappingcategory'
p540
sS'http://www.cs.ox.ac.uk/isg/ontologies/UID/00122.owl'
p541
S'00122.owl'
p542
sS'http://mmisw.org/ont/ooi_epe/parent_mapping'
p543
S'parent_mapping'
p544
sS'http://rdf.adalab-project.org/ontology/adalab-meta/'
p545
S'AdaLab-meta.owl'
p546
sS'http://webprotege.stanford.edu/project/8pMSl9xBFPU3Gtu4U9kAEE'
p547
S'root-ontology.owl'
p548
sS'http://mmisw.org/ont/calcofi/nutrient'
p549
S'nutrient'
p550
sS'http://ontology.eil.utoronto.ca/GCI/Foundation/GCI-Foundation.owl'
p551
S'GCI-Foundation.owl'
p552
sS'http://www.demcare.eu/ontologies/demlab.owl'
p553
S'demlab.owl'
p554
sS'http://www.semanticweb.org/ontologies/2015/0/testsandtestingcluster.owl'
p555
S'testsandtestingcluster.owl'
p556
sS'http://mmisw.org/ont/woce/qualityFlag'
p557
S'qualityFlag.2'
p558
sS'http://www.ICPS/ontologies/Place'
p559
S'Place.owl'
p560
sS'http://mmisw.org/ont/qartod/qualityFlag'
p561
S'qualityFlag.3'
p562
sS'http://www.ICPS/ontologies/Activity.owl'
p563
S'Activity.owl'
p564
sS'http://rdf.geospecies.org/ont/gsontology'
p565
S'gsontology.owl'
p566
sS'http://www.cs.ukzn.ac.za/zubeida/ontologies/DOLCE-LiteGFOMerged.owl'
p567
S'DOLCE-LiteGFOMappings.owl'
p568
sS'http://ontology.cybershare.utep.edu/ELSEWeb/mappings/elseweb-mappings.owl'
p569
S'elseweb-mappings.owl'
p570
sS'http://omv.ontoware.org/2005/05/ontology'
p571
S'OMV_v2.4.1.owl'
p572
sS'http://www.w3.org/2001/sw/hcls/ns/transmed/tmo'
p573
S'tmo.owl'
p574
sS'http://datos.gob.es/def/sector-publico/organizacion'
p575
S'orges.owl'
p576
sS'http://mmisw.org/ont/calcofi/species'
p577
S'species'
p578
sS'http://mmisw.org/ont/calcofi/bottledata'
p579
S'bottledata'
p580
sS'http://mmisw.org/ont/ioos/parameter'
p581
S'parameter.2'
p582
sS'http://www.ontologydesignpatterns.org/schemas/cpannotationschema.owl'
p583
S'cpannotationschema.owl'
p584
sS'http://bioontology.org/ontologies/tma-minimal#'
p585
S'tma_minimal032510.owl'
p586
sS'http://mmisw.org/ont/griidc_test/octr'
p587
S'octr'
p588
sS'http://mmisw.org/ont/mmi/resourcetype'
p589
S'resourcetype'
p590
sS'http://mmisw.org/ont/ooici/cyberinfrastructureConcept'
p591
S'cyberinfrastructureConcept'
p592
sS'http://mmisw.org/ont/process/mvco_processing'
p593
S'mvco_processing'
p594
sS'http://purl.obolibrary.org/obo/taxrank.owl'
p595
S'taxrank.owl'
p596
sS'http://www.loria.fr/~coulet/ontology/snpontology/version1.6/snpontology_full.owl/'
p597
S'snpontology_full.owl'
p598
sS'http://mmisw.org/ont/mvco/historyEventType'
p599
S'historyEventType'
p600
sS'http://www.cs.ukzn.ac.za/zubeida/ontologies/TemporalRelationsGFO-basicMerged.owl'
p601
S'TemporalRelationsGFO-basicMappings.owl'
p602
sS'http://mmisw.org/ont/ioos/map_core_variable'
p603
S'map_core_variable'
p604
sS'http://purl.bioontology.org/ontology/PMR.owl'
p605
S'PMR.rdf-xml.owl'
p606
sS'&ancestro;ancestro.owl'
p607
S'ancestro_inferred.owl'
p608
sS'http://mmisw.org/ont/isdm/instruments'
p609
S'instruments.1'
p610
sS'http://purl.obolibrary.org/obo/rex.owl'
p611
S'rex.owl'
p612
sS'http://mmisw.org/ont/mapcfsecoora/MCFS'
p613
S'MCFS'
p614
sS'http://mmisw.org/ont/mbari/pctd'
p615
S'pctd'
p616
sS'http://protege.stanford.edu/ontologies/metadata/provenance.owl'
p617
S'provenance.owl'
p618
sS'http://mmisw.org/ont/ioos/biological'
p619
S'biological'
p620
sS'http://purl.obolibrary.org/obo/obi.owl'
p621
S'obi.owl'
p622
sS'http://purl.obolibrary.org/obo/obcs.owl'
p623
S'obcs_merged_inferred.owl'
p624
sS'http://bioonto.de/sbml.owl'
p625
S'biomodels-21.owl'
p626
sS'&ontologies;PatientSafetyIncident'
p627
S'PatientSafetyIncident.owl'
p628
sS'http://www.semanticweb.org/ontologies/2015/0/educationalcluster.owl'
p629
S'educationalcluster.owl'
p630
sS'http://purl.org/spar/datacite/'
p631
S'2014-05-21-datacite-0_6_4_1.owl'
p632
sS'http://www.w3.org/2002/07/owl'
p633
S'Fire0.9.1.rdf'
p634
sS'http://www.tssg.org/public/ontologies/omg/odm/2006/odm_2006_04_03_kludge.owl'
p635
S'odm_2006_04_03_kludge.owl'
p636
sS'http://www.semanticweb.org/ontologies/2012/11/abnormalities.owl'
p637
S'V3.0FAOntology.rdf-xml.owl'
p638
sS'http://mmisw.org/ont/secoora/current'
p639
S'current.3'
p640
sS'http://mmisw.org/ont/CUAHSI/SubstrateHydrologicCompound'
p641
S'SubstrateHydrologicCompound'
p642
sS'http://www.owl-ontologies.com/Ontology1361987617.owl'
p643
S'bionutrition_cam9.owl'
p644
sS'http://ontology.cybershare.utep.edu/ELSEWeb/elseweb-data.owl'
p645
S'elseweb-data.owl'
p646
sS'http://ontology.eil.utoronto.ca/organization.owl'
p647
S'organization.owl'
p648
sS'http://www.ontologydesignpatterns.org/cp/owl/situation.owl'
p649
S'situation.owl'
p650
sS'http://mmisw.org/ont/mmi/authority'
p651
S'authority'
p652
sS'http://mmisw.org/ont/secoora/atmospheric'
p653
S'atmospheric'
p654
sS'file:/Users/fennieliang/Documents/Doc/Kcl/201504_experiment/Read_V22015.owl'
p655
S'Read_V22015.owl'
p656
sS'http://aims.fao.org/aos/geopolitical.owl'
p657
S'geopolitical.owl'
p658
sS'http://mmisw.org/ont/nasa_pace/ecology'
p659
S'ecology'
p660
sS'http://ontology.cybershare.utep.edu/ELSEWeb/elseweb-lifemapper-parameters.owl'
p661
S'elseweb-lifemapper-parameters.owl'
p662
sS'http://www.semanticweb.org/ontologies/2009/9/12/Ontology1255323704656.owl'
p663
S'Breast cell line ontology.owl'
p664
sS'http://www.sw.deri.org/~zubeida/ROMULUS/ontologies/DOLCE-No-Quality-Qualia'
p665
S'DOLCE-No-Quality-Qualia.owl'
p666
sS'http://www.cs.ukzn.ac.za/ontologies/BFORODOLCE-LiteMerged.owl'
p667
S'BFORODOLCE-LiteMappings.owl'
p668
sS'http://iris.med.duth.gr/research/ecp/ontology/eCP.owl'
p669
S'eCP.owl'
p670
sS'http://mmisw.org/ont/ioos/map_ioos_cf'
p671
S'map_ioos_cf'
p672
sS'file:/C:/Lea/ontologies/versions%20ATOL/atol_v3.0.obo'
p673
S'atol_v6.owl'
p674
sS'http://mmisw.org/ont/Technology/ComputerNetworks/'
p675
S'CN2.owl'
p676
sS'http://elite.polito.it/ontologies/dogont.owl'
p677
S'dogont.owl'
p678
sS'http://www.semanticweb.org/ontologies/2013/1/PCORI.owl'
p679
S'PCORI_finalv2.owl'
p680
sS'http://neumore.cis.usouthal.edu/ontologies/NeuMORE-v0.1.owl'
p681
S'PVOnto-v0.1.owl'
p682
sS'&obo;vo.owl'
p683
S'vo.owl'
p684
sS'http://mmisw.org/ont/ioos/definition'
p685
S'definition'
p686
sS'http://purl.org/iot/ontology/fiesta-iot'
p687
S'fiesta-iot.owl'
p688
sS'http://mmisw.org/ont/secoora/water_quality'
p689
S'water_quality'
p690
sS'http://mmisw.org/ont/odm2/OrganizationType'
p691
S'OrganizationType'
p692
sS'http://www.owl-ontologies.com/Ontology1416674558.owl'
p693
S'iGTO.owl'
p694
sS'http://www.tssg.org/public/ontologies/omg/uml/2004/UML2-Super-MDL-041007.owl'
p695
S'UML2-Super-MDL-041007.owl'
p696
sS'http://www.semanticweb.org/ontologies/2015/0/apaneurocluster.owl'
p697
S'apaneurocluster.owl'
p698
sS'&ontologies;OCRe.owl'
p699
S'OCRe.owl'
p700
sS'http://www.semanticweb.org/ontologies/2011/1/Ontology1296772722296.owl'
p701
S'PDO_FullyAnnotated_Final_v1.0.owl'
p702
sS'http://protege.stanford.edu/ontologies/metadata/BioPortalMetadata.owl'
p703
S'BioPortalMetadata.owl'
p704
sS'http://ontology.cybershare.utep.edu/ELSEWeb/elseweb-lifemapper.owl'
p705
S'elseweb-lifemapper.owl'
p706
sS'http://menelastop.ics.upmc.fr/'
p707
S'Menelas-Top-20130715.owl'
p708
sS'http://www.bioontology.org/pma.owl'
p709
S'pma.owl'
p710
sS'http://mmisw.org/ont/odm2/MethodType'
p711
S'MethodType'
p712
sS'http://gov.genealogy.net/ontology.owl'
p713
S'ontology.owl'
p714
sS'http://mmisw.org/ont/ioos/platform'
p715
S'platform'
p716
sS'http://www.mygrid.org.uk/ontology/JERMOntology'
p717
S'JERM_alpha1.6.owl'
p718
sS'http://ogms.googlecode.com/svn/trunk/src/ontology/ogms.owl'
p719
S'ogms.owl'
p720
sS'http://purl.obolibrary.org/obo/opl.owl'
p721
S'opl.owl'
p722
sS'http://www.demcare.eu/ontologies/contextdescriptor.owl'
p723
S'contextdescriptor.owl'
p724
sS'http://www.mistea.supagro.inra.fr/ontologies/2016/v4/ontofp'
p725
S'ofpe-4.1.owl'
p726
sS'http://www.semanticweb.org/philshields/ontologies/2015/4/untitled-ontology-59'
p727
S'2015_06_16 Triage nurse.owl'
p728
sS'http://www.semanticweb.org/owl/owlapi/turtle'
p729
S'ngsonto2016_innuendo.owl'
p730
sS'&edamontology;BioMedicalTopics_placeholder.owl'
p731
S'BioMedicalTopics.owl'
p732
sS'http://mmisw.org/ont/ooi_epe/instrument_mapping'
p733
S'instrument_mapping'
p734
sS'http://mmisw.org/ont/lb/ti'
p735
S'ti'
p736
sS'http://mmisw.org/ont/ioos/map_societal_areas'
p737
S'map_societal_areas'
p738
sS'http://www.semanticweb.org/abed/ontologies/2015/2/untitled-ontology-346'
p739
S'MyOntoServiceFull_FallDetection.owl'
p740
sS'http://mmisw.org/ont/ioos/ioos_core_cf_map'
p741
S'ioos_core_cf_map'
p742
sS'&all;'
p743
S'sweetAll.owl'
p744
sS'http://www.thezfiles.co.za/ontologies/BFORO.owl'
p745
S'BFORO.owl'
p746
sS'http://mmisw.org/ont/argo/instrument'
p747
S'instrument'
p748
sS'http://purl.obolibrary.org/obo/tto.owl'
p749
S'tto.owl'
p750
sS'http://purl.org/pav'
p751
S'pav.owl'
p752
sS'http://ontology.eil.utoronto.ca/icontact.owl'
p753
S'icontact.owl'
p754
sS'http://www.cs.ukzn.ac.za/zubeida/ontologies/DOLCE-LiteGFO-basicMerged.owl'
p755
S'DOLCE-LiteGFO-basicMappings.owl'
p756
sS'http://inference-web.org/2.0/ds.owl'
p757
S'ds.owl'
p758
sS'http://mmisw.org/ont/calcofi/rptdata'
p759
S'rptdata'
p760
sS'http://mouse.brain-map.org/atlas/index.html'
p761
S'ABA.owl'
p762
sS'http://purl.obolibrary.org/obo/vario.owl'
p763
S'vario.owl'
p764
sS'http://ontology.neuinfo.org/NIF/BiomaterialEntities/NIF-Cell.owl'
p765
S'NIF-Cell.owl'
p766
sS'http://www.semanticweb.org/dimitrios/ontologies/2013/2/untitled-ontology-2'
p767
S'cabro.owl'
p768
sS'http://mmisw.org/ont/CUAHSI/WaterQuality'
p769
S'WaterQuality'
p770
sS'http://anobase.vectorbase.org/mirnao/mirnao.owl'
p771
S'RackMultipart20131210-10031-3l5z92.xml'
p772
sS'http://purl.obolibrary.org/obo/iao.owl'
p773
S'iao-merged.owl'
p774
sS'http://mmisw.org/ont/ioos/swe_element_type'
p775
S'swe_element_type'
p776
sS'http://mmisw.org/ont/ooi_epe/sites'
p777
S'sites'
p778
sS'http://www.semanticweb.org/jgraybeal/ontologies/2015/7/cedarvaluesets'
p779
S'CEDAR_Value_Sets.owl'
p780
sS'http://mmisw.org/ont/trdi/glossary'
p781
S'glossary'
p782
sS'http://mmisw.org/ont/calcofi/prododata'
p783
S'prododata'
p784
sS'http://mmisw.org/ont/BOEM/studyFootprinting'
p785
S'studyFootprinting'
p786
sS'http://mmisw.org/ont/mvco/mvco'
p787
S'mvco'
p788
sS'http://www.ifomis.org/bfo/1.1'
p789
S'bfo-1.1-el.owl'
p790
sS'http://mmisw.org/ont/CUAHSI/LandCompound'
p791
S'LandCompound'
p792
sS'http://mmisw.org/ont/mvco/qcflag'
p793
S'qcflag'
p794
sS'http://www.ICPS/ontologies/AmelioratingActions.owl'
p795
S'AmelioratingActions.owl'
p796
sS'http://onstr.googlecode.com/svn/tags/currentRelease/2014-09-03/ONSTR.owl'
p797
S'ONSTR.owl'
p798
sS'http://localhost/Institute'
p799
S'instOntology.owl'
p800
sS'http://def.isotc211.org/iso19115/2006/CitationAndResponsiblePartyInformation'
p801
S'19115_CI.xml'
p802
sS'http://purl.obolibrary.org/obo/olatdv.owl'
p803
S'olatdv.owl'
p804
sS'http://www.bmi.utah.edu/ontologies/2015/hfo'
p805
S'hfo.owl'
p806
sS'http://scai.fraunhofer.de/MSOntology'
p807
S'MSontologyfinal_BFOversion.owl'
p808
sS'http://mmisw.org/ont/CUAHSI/SubstrateHydrologicCore'
p809
S'SubstrateHydrologicCore'
p810
sS'http://purl.obolibrary.org/obo/pw.owl'
p811
S'pw.owl'
p812
sS'http://mmisw.org/ont/wod/qualityFlag'
p813
S'qualityFlag.1'
p814
sS'&obo;VICO_merged.owl'
p815
S'vico_merged.owl'
p816
sS'http://purl.org/stemnet/MHC'
p817
S'MaHCO.owl'
p818
sS'http://purl.obolibrary.org/obo/pato.owl'
p819
S'pato.owl'
p820
sS'&obo;oae.owl/'
p821
S'oae.owl'
p822
sS'http://www.semanticweb.org/ontologies/2015/0/computercluster.owl'
p823
S'computercluster.owl'
p824
sS'http://www.cs.ukzn.ac.za/zubeida/ontologies/TemporalRelationsBFOMerged.owl'
p825
S'TemporalRelationsBFOMerged.owl'
p826
sS'&obo;in/ino.owl'
p827
S'INO.owl'
p828
sS'http://www.ICPS/ontologies/Clothing.owl'
p829
S'Clothing.owl'
p830
sS'http://mmisw.org/ont/odm2test/samplingfeaturetype'
p831
S'samplingfeaturetype'
p832
sS'&cpr;'
p833
S'CPR.owl'
p834
sS'http://mmisw.org/ont/compass/instruments_v3'
p835
S'instruments_v3'
p836
sS'http://mmisw.org/ont/mvco/historyEventList'
p837
S'historyEventList'
p838
sS'&obo;clo.owl'
p839
S'clo_merged.owl'
p840
sS'http://mmisw.org/ont/ontoProdukt/op1'
p841
S'op1'
p842
sS'http://purl.obolibrary.org/obo/go.owl'
p843
S'go.owl'
p844
sS'http://purl.obolibrary.org/obo/rs.owl'
p845
S'rs.owl'
p846
sS'http://neurolog.unice.fr/ontoneurolog/v3.0/ontoneurolog-mental-state-assessment.owl'
p847
S'ontoneurolog-mental-state-assessment.owl'
p848
sS'http://schema.rdfs.org/all'
p849
S'schema.owl'
p850
sS'http://www.owl-ontologies.com/GeographicalRegion.owl'
p851
S'GeographicalRegion.owl'
p852
sS'http://livercancer.imbi.uni-heidelberg.de/ccont'
p853
S'CellCultureOntology.owl'
p854
sS'http://mmisw.org/ont/cwi/dm'
p855
S'dm'
p856
sS'http://purl.org/NET/c4dm/keys.owl'
p857
S'keys.owl'
p858
sS'http://www.owl-ontologies.com/Ontology1298855822.owl'
p859
S'QIBO_OWL1.owl'
p860
sS'http://mmisw.org/ont/noaa/cmecs'
p861
S'cmecs'
p862
sS'http://kmi.open.ac.uk/projects/smartproducts/ontologies/food.owl'
p863
S'food.owl'
p864
sS'http://ontology.neuinfo.org/NIF/BiomaterialEntities/NIF-Subcellular.owl'
p865
S'NIF-Subcellular.owl'
p866
sS'http://proteomeontology.org/cpo.owl'
p867
S'CPTAC_alpha2.owl'
p868
sS'http://www.ontologydesignpatterns.org/ont/lmm/LMM_L1.owl'
p869
S'LMM_L1.owl'
p870
sS'http://www.owl-ontologies.com/BiodiversityOntologyFull.owl'
p871
S'Ontobio_01072013.owl'
p872
sS'http://mre.zcu.cz/ontology/nihss.owl'
p873
S'nihss.owl'
p874
sS'http://mmisw.org/ont/q2o/testQ2ODemo'
p875
S'testQ2ODemo'
p876
sS'http://mmisw.org/ont/mmi/systemtype'
p877
S'systemtype'
p878
sS'http://purl.obolibrary.org/obo/go/extensions/go-plus.owl'
p879
S'go-plus.owl.crdownload.xml'
p880
sS'http://mmisw.org/ont/secoora/wave'
p881
S'wave'
p882
sS'http://mimi.case.edu/ontologies/2009/1/UnitsOntology'
p883
S'UnitsOntology-SDO.owl'
p884
sS'http://www.cancerdata.org/roo/'
p885
S'ROO.owl'
p886
sS'http://mmisw.org/ont/CUAHSI/WaterQualityCore2'
p887
S'WaterQualityCore2'
p888
sS'http://www.enanomapper.net/ontologies/enanomapper.owl'
p889
S'enanomapper.owl'
p890
sS'http://purl.obolibrary.org/obo/omp.owl'
p891
S'omp.owl'
p892
sS'&PHIL;'
p893
S'philosurfical.owl'
p894
sS'http://www.semanticweb.org/ontologies/2015/0/disorderscluster.owl'
p895
S'disorderscluster.owl'
p896
sS'http://www.owl-ontologies.com/2008/ZS.owl'
p897
S'leo.owl'
p898
sS'http://www.owl-ontologies.com/Ontology1172270693.owl'
p899
S'FamilyHealthHistory.owl'
p900
sS'http://mmisw.org/ont/odm2/SiteType'
p901
S'SiteType'
p902
sS'http://mmisw.org/ont/csdms/assumption'
p903
S'assumption'
p904
sS'http://www.ICPS/ontologies/Furniture.owl'
p905
S'Furniture.owl'
p906
sS'http://purl.org/spar/scoro/'
p907
S'2014-05-21-SCoRO-1_8_4_1.owl'
p908
sS'http://mmisw.org/ont/ioos/CO-OPSqcFlags'
p909
S'CO-OPSqcFlags'
p910
sS'http://internano.org/taxonomy'
p911
S'internano.owl'
p912
sS'http://webprotege.stanford.edu/project/9h3YLKYo5AEx5tLXEXroVP'
p913
S'CSOontology.owl'
p914
sS'http://mmisw.org/ont/mmi/device'
p915
S'device'
p916
sS'http://mmisw.org/ont/ndbc/waveQChard'
p917
S'waveQChard'
p918
sS'http://www.ebi.ac.uk/efo/efo.owl'
p919
S'efo.owl'
p920
sS'http://purl.uni-rostock.de/comodi/comodi'
p921
S'comodi.owl'
p922
sS'http://ontology.eil.utoronto.ca/open311.owl'
p923
S'open311.owl'
p924
sS'http://mmisw.org/ont/noaa/gts'
p925
S'gts'
p926
sS'http://www.limics.org/hrdo/HRDO.owl'
p927
S'hrdo.owl'
p928
sS'http://www.cvrgrid.org/ontologies/Electrophysiology'
p929
S'CVRG_EPOntology.owl'
p930
sS'http://mmisw.org/ont/ioos/sector'
p931
S'sector'
p932
sS'http://www.tssg.org/public/ontologies/omg/qvt/2005/QVT.owl'
p933
S'QVT.owl'
p934
sS'http://www.cs.ukzn.ac.za/zubeida/ontologies/SpatialRelationsBFOMerged.owl'
p935
S'SpatialRelationsBFOMerged.owl'
p936
sS'http://mmisw.org/ont/ooi_epe/science_mapping'
p937
S'science_mapping'
p938
sS'http://ontology.neuinfo.org/NIF/Dysfunction/NIF-Dysfunction.owl'
p939
S'NIF-Dysfunction.owl'
p940
sS'&IDODEN;IDODEN'
p941
S'idoden_beta0.15b.owl'
p942
sS'http://purl.obolibrary.org/obo/PDRO.owl'
p943
S'pdro.owl'
p944
sS'http://www.semanticweb.org/ontologies/2008/1/Ontology1204037102846.owl'
p945
S'SitBAC1_3.owl'
p946
sS'http://www.cs.ukzn.ac.za/zubeida/ontologies/BFOROGFO-basicMerged.owl'
p947
S'BFOROGFO-basicMappings.owl'
p948
sS'http://purl.bioontology.org/net/brunel/panda'
p949
S'PANDA.owl'
p950
sS'http://www.ICPS/ontologies/Medication.owl'
p951
S'Medication.owl'
p952
sS'http://mmisw.org/ont/mmi/general'
p953
S'general.1'
p954
sS'http://mmisw.org/ont/ird/qualityFlag'
p955
S'qualityFlag'
p956
sS'http://mmisw.org/ont/ioos/core_variable'
p957
S'core_variable'
p958
sS'http://mmisw.org/ont/nasa_pace/phytopia_mapping'
p959
S'phytopia_mapping'
p960
sS'&obo;omrse.owl'
p961
S'omrse.owl'
p962
sS'http://mmisw.org/ont/nasa_pace/pigments'
p963
S'pigments'
p964
sS'&ign;'
p965
S'matrRockIgneous.owl'
p966
sS'http://mmisw.org/ont/ecs/device_map'
p967
S'device_map'
p968
sS'http://www.owl-ontologies.com/Ontology1195292020.owl'
p969
S'ODGI.owl'
p970
sS'http://example.com/owl/families/import/familyImport17/'
p971
S'familyImport18.xml'
p972
sS'http://mmisw.org/ont/isdm/datatype'
p973
S'datatype'
p974
sS'http://purl.obolibrary.org/obo/envo.owl'
p975
S'envo.owl'
p976
sS'http://purl.obolibrary.org/obo/obi/webService.owl'
p977
S'webService.owl'
p978
sS'http://mmisw.org/ont/CUAHSI/SurfaceHydrologicCore'
p979
S'SurfaceHydrologicCore'
p980
sS'http://protege.stanford.edu/plugins/owl/dc/protege-dc.owl'
p981
S'protege-dc.owl'
p982
sS'http://mmisw.org/ont/nasa_pace/enivronmental_mapping'
p983
S'enivronmental_mapping'
p984
sS'http://purl.obolibrary.org/obo/wbbt.owl'
p985
S'wbbt.owl'
p986
sS'http://mmisw.org/ont/CUAHSI/OceanCore'
p987
S'OceanCore'
p988
sS'http://tour-pedia.org/download/tp.owl'
p989
S'tp.owl'
p990
sS'http://identifiers.org/mamo'
p991
S'mamo-xml.owl'
p992
sS'http://www.semanticweb.org/alan/ontologies/2013/8/untitled-ontology-9'
p993
S'radonc_ontology.owl'
p994
sS'http://purl.obolibrary.org/obo/duo.owl'
p995
S'duo.owl'
p996
sS'http://kt.ijs.si/panovp/OntoDT'
p997
S'OntoDT.owl'
p998
sS'http://neurolog.unice.fr/ontoneurolog/v3.0/ontoneurolog-dataset-processing.owl'
p999
S'ontoneurolog-dataset-processing.owl'
p1000
sS'http://mmisw.org/ont/Technology/ComputerNetworks'
p1001
S'ComputerNetworks'
p1002
sS'http://purl.obolibrary.org/obo/ido.owl'
p1003
S'ido-merged.owl'
p1004
sS'http://www.co-ode.org/ontologies/galen'
p1005
S'full-galen.owl'
p1006
sS'http://mmisw.org/ont/mmi/udunits2-derived'
p1007
S'udunits2-derived'
p1008
sS'http://mmisw.org/ont/CUAHSI/SurfHydrosyn'
p1009
S'SurfHydrosyn'
p1010
sS'http://mmisw.org/ont/q2o/test'
p1011
S'test'
p1012
sS'http://purl.obolibrary.org/obo/nbo.owl'
p1013
S'behavior.owl'
p1014
sS'http://ncicb.nci.nih.gov/xml/owl/EVS/ctcae.owl'
p1015
S'CTCAE_4.03_2010-06-14.owl'
p1016
sS'http://mmisw.org/ont/cf/areatype'
p1017
S'areatype'
p1018
sS'http://www.ontologydesignpatterns.org/cp/owl/informationrealization.owl'
p1019
S'informationrealization.owl'
p1020
sS'http://opendata.inra.fr/resources/hSC9z#'
p1021
S'TRANSMAT.owl'
p1022
sS'http://www.semanticweb.org/ontologies/2009/9/Ontology1255357986125.owl'
p1023
S'BRCO_Edition_v3.0.owl'
p1024
sS'http://www.semanticweb.org/ontologies/2013/2/OPE.owl'
p1025
S'OPE.owl'
p1026
sS'http://purl.obolibrary.org/obo/to.owl'
p1027
S'to.owl'
p1028
sS'http://mmisw.org/ont/fnmoc/fnmoc'
p1029
S'fnmoc'
p1030
sS'http://mmisw.org/ont/r2r/multibeam'
p1031
S'multibeam'
p1032
sS'http://www.ICPS/ontologies/HospitalEquipment.owl'
p1033
S'HospitalEquipment.owl'
p1034
sS'http://msi-ontology.sourceforge.net/ontology/NMR.owl'
p1035
S'NMR.owl'
p1036
sS'http://mmisw.org/ont/comps/COMPSPC'
p1037
S'COMPSPC'
p1038
sS'http://www.thezfiles.co.za/ontologies/DOLCE-LiteBFOMerged.owl'
p1039
S'DOLCE-LiteBFOMerged.owl'
p1040
sS'&ontology;dco'
p1041
S'dco.owl'
p1042
sS'http://www.cs.ukzn.ac.za/zubeida/ontologies/TemporalRelationsBFOMappings.owl'
p1043
S'TemporalRelationsBFOMappings.owl'
p1044
sS'http://www.semanticweb.org/shoshana/ontologies/2014/8/untitled-ontology-8'
p1045
S'esfo.new.owl'
p1046
sS'http://mmisw.org/ont/mmi/tool'
p1047
S'tool'
p1048
sS'http://www.mistea.supagro.inra.fr/ontologies/2016/v1/afeo'
p1049
S'afeo-4.3.owl'
p1050
sS'http://www.w3.org/2006/12/owl2-xml#'
p1051
S'Protein_Ligand_Interaction_Ontology_PLIO_revised.owl'
p1052
sS'&obo;omit.owl'
p1053
S'omit.owl'
p1054
sS'http://mmisw.org/ont/csdms/quantity'
p1055
S'quantity'
p1056
sS'http://purl.org/net/OCRe/statistics.owl'
p1057
S'statistics.owl'
p1058
sS'http://www.cs.ukzn.ac.za/zubeida/ontologies/FunctionalParticipationGFO-basicMerged.owl'
p1059
S'FunctionalParticipationGFO-basicMerged.owl'
p1060
sS'http://mmisw.org/ont/mmi/platform'
p1061
S'platform.2'
p1062
sS'http://mmisw.org/ont/ioos/marine_biogeography'
p1063
S'marine_biogeography'
p1064
sS'http://mmisw.org/ont/nasa_pace/taxonomy'
p1065
S'taxonomy'
p1066
sS'http://softeng.polito.it/rs-context-ontology'
p1067
S'rsctx.rdf'
p1068
sS'http://mmisw.org/ont/noaa/noaa-waves'
p1069
S'noaa-waves'
p1070
sS'http://epoch.stanford.edu/ClinicalTrialOntology.owl'
p1071
S'ClinicalTrialOntology.owl'
p1072
sS'http://www.biopax.org/release/biopax-level3.owl'
p1073
S'biopax-level3.owl'
p1074
sS'http://purl.org/sig/ont/fma/'
p1075
S'fma.owl'
p1076
sS'http://purl.bioontology.org/ontology/phenX/'
p1077
S'phenXOnto_v1_2.owl'
p1078
sS'http://rdf.adalab-project.org/ontology/adalab/'
p1079
S'AdaLab.owl'
p1080
sS'http://www.imgt.org/download/IMGT-ONTOLOGY/IMGT-ONTOLOGY-v1-0-2.owl'
p1081
S'IMGT-ONTOLOGY-v1-0-2.owl'
p1082
sS'http://purl.org/net/OCRe/generic.owl'
p1083
S'generic.owl'
p1084
sS'&obo;OGI.owl'
p1085
S'OGI.owl'
p1086
sS'http://purl.org/olia/ubyCat.owl'
p1087
S'ubyCat.owl'
p1088
sS'http://mmisw.org/ont/mmi/usglobec'
p1089
S'usglobec'
p1090
sS'http://www.cs.ukzn.ac.za/zubeida/ontologies/BFOROGFOMerged.owl'
p1091
S'BFOROGFOMerged.owl'
p1092
sS'http://www.semanticweb.org/ontologies/epo.owl'
p1093
S'epo.owl'
p1094
sS'http://mmisw.org/ont/mbari/keyword'
p1095
S'keyword'
p1096
sS'http://purl.obolibrary.org/obo/omiabis.owl'
p1097
S'omiabis.owl'
p1098
sS'http://mmisw.org/ont/nasa_pace/pigments2'
p1099
S'pigments2'
p1100
sS'http://delicias.dia.fi.upm.es/ontologies/ObjectWithStates.owl'
p1101
S'ObjectWithStates.owl'
p1102
sS'http://purl.org/incf/ontology/Computational_Neurosciences/cno_alpha.owl'
p1103
S'CNO_05.owl'
p1104
sS'file:/C:/autism_ontology_svn/trunk/ontologies/manual/ASDPhenotypeOntology_Public.owl'
p1105
S'ASDPhenotypeOntology_Public.owl'
p1106
sS'http://www.wiser.pitt.edu/ontologies/SimulationScenarioDeviations.owl'
p1107
S'SimulationScenarioDeviations.owl'
p1108
sS'http://purl.dataone.org/odo/ECSO_'
p1109
S'd1-ECSO.owl'
p1110
sS'http://www.cs.ukzn.ac.za/zubeida/ontologies/SpatialRelationsBFOMappings.owl'
p1111
S'SpatialRelationsBFOMappings.owl'
p1112
sS'&owl2;agentrole.owl'
p1113
S'agentrole.owl'
p1114
sS'http://mmisw.org/ont/ooici/ceiConcept'
p1115
S'ceiConcept'
p1116
sS'&nres;'
p1117
S'matrNaturalResource.owl'
p1118
sS'http://mmisw.org/ont/ogc/def'
p1119
S'def'
p1120
sS'http://mmisw.org/ont/ioos/map_category'
p1121
S'map_category'
p1122
sS'http://mmisw.org/ont/nasa_pace/pigment_mapping'
p1123
S'pigment_mapping'
p1124
sS'http://www.owl-ontologies.com/REPO.owl'
p1125
S'RepO.owl'
p1126
sS'http://mmisw.org/ont/woce/qcFlag'
p1127
S'qcFlag'
p1128
sS'http://reactionontology.org/piero/'
p1129
S'piero.owl'
p1130
sS'http://chu-rouen.fr/cismef/BHN'
p1131
S'RackMultipart20131119-17178-uc75i6.xml'
p1132
sS'http://mmisw.org/ont/csdms/object'
p1133
S'object'
p1134
sS'http://mmisw.org/ont/CUAHSI/OceanSynthesis'
p1135
S'OceanSynthesis'
p1136
sS'http://www.dispedia.de/'
p1137
S'dispediaCoreComplete.xml'
p1138
sS'http://mmisw.org/ont/ndbc/qualityFlag_hard'
p1139
S'qualityFlag_hard'
p1140
sS'http://mmisw.org/ont/secoora/category'
p1141
S'category.1'
p1142
sS'http://www.uv.es/~agentes/SVECore'
p1143
S'SVECore.owl'
p1144
sS'http://mmisw.org/ont/mvco/MVCOtoCFswell'
p1145
S'MVCOtoCFswell'
p1146
sS'http://purl.org/net/SMARTprotocol'
p1147
S'SP_document_workflow_V3.0.owl'
p1148
sS'http://rs.tdwg.org/ontology/voc/Specimen'
p1149
S'specimen.rdf'
p1150
sS'http://www.semanticweb.org/igomez/ontologies/2013/11/untitled-ontology-6'
p1151
S'OntoWAWO+.owl'
p1152
sS'http://mmisw.org/ont/mmi/cfonmap'
p1153
S'cfonmap'
p1154
sS'http://www.cs.ukzn.ac.za/zubeida/ontologies/SpatialRelationsGFO-basicMappings.owl'
p1155
S'SpatialRelationsGFO-basicMappings.owl'
p1156
sS'https://bitbucket.org/PlantExpAssay/ontology/raw/v0.1/PlantExperimentalAssayOntology.owl'
p1157
S'PlantExperimentalAssayOntology.owl'
p1158
sS'file:/C:/Lea/ontologies/environnement/leo.obo'
p1159
S'eol_v4__collaboration.owl'
p1160
sS'http://www.ifomis.org/acgt/1.0'
p1161
S'document13.owl'
p1162
sS'http://www.ICPS/ontologies/Anatomy.owl'
p1163
S'Anatomy.owl'
p1164
sS'http://purl.obolibrary.org/obo/vto.owl'
p1165
S'vto.owl'
p1166
sS'http://mmisw.org/ont/ooi_epe/parent'
p1167
S'parent'
p1168
sS'http://www.ICPS/ontologies/PatientCharacteristics.owl'
p1169
S'PatientCharacteristics.owl'
p1170
sS'http://mmisw.org/ont/secoora/coordinate'
p1171
S'coordinate'
p1172
sS'http://vip.creatis.insa-lyon.fr/ontovip/v1.0/ontovip.owl'
p1173
S'ontovip.owl'
p1174
sS'http://purl.obolibrary.org/obo/TEMP'
p1175
S'vt.owl'
p1176
sS'http://purl.org/spar/fabio/'
p1177
S'2016-04-19-fabio-1_9_2.owl'
p1178
sS'http://www.ontologydesignpatterns.org/cp/owl/participation.owl'
p1179
S'participation.owl'
p1180
sS'https://www.codamono.com/biointerchange/gfvo'
p1181
S'gfvo_bioportal.xml'
p1182
sS'http://purl.obolibrary.org/obo/uo.owl'
p1183
S'uo.owl'
p1184
sS'http://sw.deri.org/~zubeida/ROMULUS/ontologies/BFOGFO-basicMerged.owl'
p1185
S'BFOGFO-basicMerged.owl'
p1186
sS'http://www.cvrgrid.org/files/ECGOntologyv1.owl'
p1187
S'ECGOntologyv1.owl'
p1188
sS'http://purl.org/net/miCLIP'
p1189
S'aaaaa.owl'
p1190
sS'http://mmisw.org/ont/ooi_epe/science'
p1191
S'science'
p1192
sS'http://mmisw.org/ont/cf/parameter'
p1193
S'parameter'
p1194
sS'http://purl.jp/bio/11/meo/'
p1195
S'meo_v07.owl'
p1196
sS'http://mmisw.org/ont/isro/INSAT3DM'
p1197
S'INSAT3DM.1'
p1198
sS'http://purl.bioontology.org/ontology/BCTT#'
p1199
S'out15.owl'
p1200
sS'http://mmisw.org/ont/bodc/MapSeaVoxPlatforms2IOOSandRDIPlatforms'
p1201
S'MapSeaVoxPlatforms2IOOSandRDIPlatforms'
p1202
sS'http://mmisw.org/ont/CUAHSI/AtmosphericHydrologicCompound'
p1203
S'AtmosphericHydrologicCompound'
p1204
sS'http://purl.obolibrary.org/obo/zfs.owl'
p1205
S'zfs.owl'
p1206
sS'&petr;'
p1207
S'matrRock.owl'
p1208
sS'&inverseRoles;'
p1209
S'ISO-15926-2_2003_inverseRoles.xml'
p1210
sS'http://www.ontologydesignpatterns.org/ont/dul/DUL.owl'
p1211
S'DUL.owl'
p1212
sS'http://who.int/ictm/signsAndSymptoms'
p1213
S'TM_SignsAndSymptoms.owl'
p1214
sS'http://knoesis.wright.edu/ParasiteExperiment.owl'
p1215
S'ParasiteExperimentOntology_111910_External.owl'
p1216
sS'http://who.int/ictm/meridians'
p1217
S'TM_Meridians.owl'
p1218
sS'http://mmisw.org/ont/calcofi/castdata'
p1219
S'castdata'
p1220
sS'http://purl.obolibrary.org/obo/po.owl'
p1221
S'po.owl'
p1222
sS'http://mmisw.org/ont/ioos/passive_acoustic_metadata'
p1223
S'passive_acoustic_metadata'
p1224
sS'http://cui.unige.ch/isi/onto/tok/TOK.owl'
p1225
S'tok.owl'
p1226
sS'http://www.ontodm.com/OntoDM-core/'
p1227
S'OntoDM.owl'
p1228
sS'http://purl.jp/bio/11/msv/'
p1229
S'msv.owl'
p1230
sS'http://www.orpha.net/ontology/orphanet.owl'
p1231
S'ordo_orphanet.owl'
p1232
sS'http://mmisw.org/ont/calcofi/chladata'
p1233
S'chladata'
p1234
sS'http://www.ics.forth.gr/isl/VoIDWarehouse/VoID_Extension_Schema.owl'
p1235
S'VoID_Extension_Schema.owl'
p1236
sS'http://mmisw.org/ont/calcofi/bottleqc'
p1237
S'bottleqc'
p1238
sS'http://www.cea.fr/ontotoxnuc'
p1239
S'ontologie_toxnuc_20140817.owl'
p1240
sS'http://mmisw.org/ont/cencoos/parameter'
p1241
S'parameter.8'
p1242
sS'http://scai.fraunhofer.de/PTS'
p1243
S'PTS_Revised_Merged_Final.owl'
p1244
sS'http://who.int/iceci.owl'
p1245
S'iceci.owl'
p1246
sS'http://www.owl-ontologies.com/NPOntology.owl'
p1247
S'NPOntology01.owl'
p1248
sS'http://childhealthservicemodels.eu/asthma'
p1249
S'asthma_v1.3.owl'
p1250
sS'http://purl.bioontology.org/ontology/INM-NPI'
p1251
S'INM ontologie v2.owl'
p1252
sS'http://mmisw.org/ont/oca/map-oca'
p1253
S'map-oca'
p1254
sS'http://purl.obolibrary.org/obo/xco.owl'
p1255
S'xco.owl'
p1256
sS'&ontology;GRO'
p1257
S'GRO_v0.5.owl'
p1258
sS'http://purl.obolibrary.org/obo/MF.owl'
p1259
S'MF.owl'
p1260
sS'http://www.ICPS/ontologies/Detection.owl'
p1261
S'Detection.owl'
p1262
sS'http://lsi.ugr.es/joseluisgs/videojuegos.owl'
p1263
S'videojuegos.owl'
p1264
sS'http://purl.obolibrary.org/obo/eo.owl'
p1265
S'plant-environment-ontology.obo.owl'
p1266
sS'&min;'
p1267
S'matrMineral.owl'
p1268
sS'http://mmisw.org/ont/mvco/flag'
p1269
S'flag.2'
p1270
sS'http://mmisw.org/ont/ioos/active_acoustic_metadata'
p1271
S'active_acoustic_metadata'
p1272
sS'http://mmisw.org/ont/usglobec/instrument'
p1273
S'instrument.1'
p1274
sS'http://purl.org/net/OCRe/study_design.owl'
p1275
S'study_design.owl'
p1276
sS'file:///C:/Workspaces/MyEclipse8.x/HugoToOwl/Hugo.owl'
p1277
S'Hugo_July12_2010.owl'
p1278
sS'http://mmisw.org/ont/usglobec/platformCodes'
p1279
S'platformCodes'
p1280
sS'http://cbo.biocomplexity.indiana.edu/svn/cbo/trunk/CBO_1_0'
p1281
S'CBO.owl'
p1282
sS'http://mmisw.org/ont/mbari/bctd'
p1283
S'bctd'
p1284
sS'http://mmisw.org/ont/mmi/ooidatalevel'
p1285
S'ooidatalevel'
p1286
sS'http://phenomebrowser.net/ontologies/mesh/mesh.owl'
p1287
S'mesh.owl'
p1288
sS'http://www.ontologydesignpatterns.org/ont/dul/IOLite.owl'
p1289
S'IOLite.owl'
p1290
sS'http://mmisw.org/ont/nasa_pace/phytopia_species_mapping'
p1291
S'phytopia_species_mapping'
p1292
sS'http://doe-generated-ontology.com/OntoPneumo'
p1293
S'OntoPneumo_20110511.owl'
p1294
sS'&mixs;terms_od'
p1295
S'mixsterms_owl.rdf'
p1296
sS'http://mmisw.org/ont/drdc/MIOOSSEC'
p1297
S'MIOOSSEC'
p1298
sS'http://mmisw.org/ont/odm2/ActionType'
p1299
S'ActionType'
p1300
sS'http://mmisw.org/ont/secoora/sensor'
p1301
S'sensor'
p1302
sS'http://www.owl-ontologies.com/Ontology1184060740.owl'
p1303
S'EXACT2.owl'
p1304
sS'&entityMembershipCandidates;'
p1305
S'ISO-15926-2_2003_entityMembershipCandidates.xml'
p1306
sS'https://bitbucket.org/PlantExpAssay/ontology/raw/v0.1/PipelinePatterns.owl'
p1307
S'PipelinePatterns.owl'
p1308
sS'http://sw.der.org/~zubeida/ROMULUS/ontologies/BFOGFOMerged.owl'
p1309
S'BFOGFOMerged.owl'
p1310
sS'http://www.semanticweb.org/ontologies/2008/10/language_disorder_autism.owl'
p1311
S'Ontology1228014870390.owl'
p1312
sS'http://mmisw.org/ont/mmi/devontssn'
p1313
S'devontssn'
p1314
sS'http://mmisw.org/ont/q2o/reference'
p1315
S'reference'
p1316
sS'http://www.ICPS/ontologies/InferredAnatomy.owl'
p1317
S'InferredAnatomyv3.owl'
p1318
sS'&ontologies;BuildingStructure'
p1319
S'BuildingStructure.owl'
p1320
sS'http://bioontology.org/projects/ontologies/birnlex'
p1321
S'BIRNLex.owl'
p1322
sS'http://www.cs.ukzn.ac.za/zubeida/ontologies/FunctionalParticipationGFOMappings.owl'
p1323
S'FunctionalParticipationGFOMappings.owl'
p1324
sS'http://purl.obolibrary.org/obo/flopo.owl'
p1325
S'flopo-inferred.owl'
p1326
sS'http://doe-generated-ontology.com/OntoAD'
p1327
S'RackMultipart20131202-9185-1thvxyu.xml'
p1328
sS'http://mmisw.org/ont/cdip/term'
p1329
S'term'
p1330
sS'http://ontologies.dbmi.pitt.edu/edda/PublicationType.owl'
p1331
S'PublicationType.owl'
p1332
sS'http://mmisw.org/ont/ooi/ionrole'
p1333
S'ionrole'
p1334
sS'http://www.semanticweb.org/ontologies/2015/0/ocupationalemploymentcluster.owl'
p1335
S'ocupationalemploymentcluster.owl'
p1336
sS'http://mmisw.org/ont/mmi/vine'
p1337
S'vine'
p1338
sS'&chemp;'
p1339
S'propChemical.owl'
p1340
sS'http://purl.obolibrary.org/obo/cio.owl'
p1341
S'cio.owl'
p1342
sS'http://purl.obolibrary.org/obo/vsao.owl'
p1343
S'vsao.owl'
p1344
sS'http://bibframe.org/vocab/'
p1345
S'vocab.rdf'
p1346
sS'http://www.cs.ukzn.ac.za/ontologies/FFO.owl'
p1347
S'FFO.owl'
p1348
sS'http://www.owl-ontologies.com/unnamed.owl'
p1349
S'ADW_ontology.owl'
p1350
sS'http://biomodels.net/SBO/'
p1351
S'sbo.owl'
p1352
sS'http://mmisw.org/ont/seadatanet/qualityFlag'
p1353
S'qualityFlag.4'
p1354
sS'http://mmisw.org/ont/oca/thesaurus'
p1355
S'thesaurus'
p1356
sS'http://uth.tmc.edu/ontology/ochv'
p1357
S'ochv.owl'
p1358
sS'http://www.bioassayontology.org/bao'
p1359
S'bao_gpcr_v1.1.owl'
p1360
sS'http://purl.bioontology.org/ontology/npo'
p1361
S'npo-2011-12-08_inferred.owl'
p1362
sS'http://purl.obolibrary.org/obo/wbls.owl'
p1363
S'wbls.owl'
p1364
sS'&obo;agro-edit.owl'
p1365
S'agro.owl'
p1366
sS'http://www.semanticweb.org/rjyy/ontologies/2015/5/ESSO'
p1367
S'ESSO V1.03.owl'
p1368
sS'http://mmisw.org/ont/ooi_epe/data_products'
p1369
S'data_products'
p1370
sS'http://purl.obolibrary.org/obo/wbphenotype.owl'
p1371
S'wbphenotype.owl'
p1372
sS'http://purl.obolibrary.org/obo/pdumdv.owl'
p1373
S'pdumdv.owl'
p1374
sS'http://mmisw.org/ont/noaa/general'
p1375
S'general'
p1376
sS'http://mmisw.org/ont/argo/parameter'
p1377
S'parameter.5'
p1378
sS'http://purl.obolibrary.org/obo/TEMP.owl'
p1379
S'plana.owl'
p1380
sS'http://www.sw.deri.org/~zubeida/bfo-continuants.owl'
p1381
S'bfo-continuants.owl'
p1382
sS'http://mmisw.org/ont/isdm/qvalue'
p1383
S'qvalue'
p1384
sS'http://posccaesar.org/rdl/'
p1385
S'RDL.owl.crdownload.xml'
p1386
sS'http://www.onto-med.de/ontologies/gfo-basic.owl'
p1387
S'gfo-basic.owl'
p1388
sS'http://www.semanticweb.org/philshields/ontologies/2015/4/Administrator.owl'
p1389
S'2015_06_15_Administrator.owl'
p1390
sS'http://mimi.case.edu/ontologies/2009/1/SDO-merged'
p1391
S'SDO-merged.owl'
p1392
sS'http://mmisw.org/ont/bodc/NVSDevicesToTRDIOntology'
p1393
S'NVSDevicesToTRDIOntology'
p1394
sS'http://purl.obolibrary.org/obo/spd.owl'
p1395
S'spd.owl'
p1396
sS'http://www.cs.ukzn.ac.za/zubeida/ontologies/TemporalRelationsGFOMerged.owl'
p1397
S'TemporalRelationsGFOMerged.owl'
p1398
sS'&human;'
p1399
S'human.owl'
p1400
sS'http://purl.obolibrary.org/obo/oba.owl'
p1401
S'oba.owl'
p1402
sS'http://www.semanticweb.org/lfierro/ontologies/2016/11/tagging_skos.owl'
p1403
S'tagging_vocabulary.owl'
p1404
sS'http://mmisw.org/ont/ooici/architectureConcept'
p1405
S'architectureConcept'
p1406
sS'http://mmisw.org/ont/trdi/software'
p1407
S'software'
p1408
sS'http://www.semanticweb.org/ontologies/2010/10/BPO.owl'
p1409
S'BPO 11_12_10.owl'
p1410
sS'http://mmisw.org/ont/GMU/Test'
p1411
S'Test'
p1412
sS'http://purl.obolibrary.org/obo/trans.owl'
p1413
S'trans.owl'
p1414
sS'http://www.semanticweb.org/ontologies/2009/3/EpilepsyOntology.owl'
p1415
S'EpilepsyOntology.owl'
p1416
sS'http:/purl.obolibrary.org/obo/ogsf.owl'
p1417
S'ogsf.owl'
p1418
sS'http://www.tssg.org/public/ontologies/omg/mof/2004/MOF.owl'
p1419
S'MOF.owl'
p1420
sS'&ontologies;OrganizationalOutcomes'
p1421
S'OrganizationalOutcomes.owl'
p1422
sS'http://purl.obolibrary.org/obo/uberon/ext.owl'
p1423
S'ext.owl'
p1424
sS'http://mmisw.org/ont/secoora/pathogen'
p1425
S'pathogen'
p1426
sS'http://mmisw.org/ont/ioos/organization'
p1427
S'organization'
p1428
sS'http://mmisw.org/ont/ioos/map_ioos_ioos'
p1429
S'map_ioos_ioos'
p1430
sS'http://ontologies.dbmi.pitt.edu/edda/StudyDesigns.owl'
p1431
S'StudyDesigns.owl'
p1432
sS'http://purl.obolibrary.org/obo/upheno.owl'
p1433
S'upheno.owl'
p1434
sS'http://ontology.neuinfo.org/NIF/nif.owl'
p1435
S'nif.owl'
p1436
sS'http://mmisw.org/ont/COMPS/properties'
p1437
S'properties.1'
p1438
sS'http://purl.obolibrary.org/obo/dideo.owl/'
p1439
S'dideo.owl'
p1440
sS'http://www.cs.ukzn.ac.za/zubeida/ontologies/SpatialRelationsGFOMapping.owl'
p1441
S'SpatialRelationsGFOMerged.owl'
p1442
sS'http://purl.obolibrary.org/obo/hao.owl'
p1443
S'hao.owl'
p1444
sS'&entityMembership;'
p1445
S'ISO-15926-2_2003_entityMembership.xml'
p1446
sS'http://mmisw.org/ont/WHOI/whoiCruiseID'
p1447
S'whoiCruiseID'
p1448
sS'http://mmisw.org/ont/nasa_pace/ecological_mapping'
p1449
S'ecological_mapping'
p1450
sS'http://ontology.eil.utoronto.ca/ISO37120.owl'
p1451
S'ISO37120.owl'
p1452
sS'http://mmisw.org/ont/CUAHSI/AtmosphericHydrologicSynthesis'
p1453
S'AtmosphericHydrologicSynthesis'
p1454
sS'http://mmisw.org/ont/mbari/parameter_provisional'
p1455
S'parameter_provisional'
p1456
sS'http://purl.obolibrary.org/obo/ro.owl'
p1457
S'ro.owl'
p1458
sS'&swo;swo.owl'
p1459
S'swo.owl'
p1460
sS'http://carre.kmi.open.ac.uk/ontology/carre.owl'
p1461
S'carre.owl'
p1462
sS'&obo;MFOEM'
p1463
S'MFOEM.owl'
p1464
sS'http://purl.obolibrary.org/obo/VSO'
p1465
S'vso.owl'
p1466
sS'http://scai.fraunhofer.de/CSEO'
p1467
S'Exo-CSEOv1.2_BFO_FINAL_merged_2.owl'
p1468
sS'http://mmisw.org/ont/ioos/platform_map_ioos_mmi'
p1469
S'platform_map_ioos_mmi'
p1470
sS'http://mmisw.org/ont/ooici/ooiReferenceConcept'
p1471
S'ooiReferenceConcept'
p1472
sS'http://mmisw.org/ont/coa/icancoa'
p1473
S'icancoa'
p1474
sS'http://mmisw.org/ont/WoRMS/WoRMS'
p1475
S'WoRMS'
p1476
sS'https://www.auto.tuwien.ac.at/downloads/thinkhome/ontology/WeatherOntology.owl'
p1477
S'WeatherOntology.owl'
p1478
sS'http://purl.obolibrary.org/obo/so.owl'
p1479
S'so.owl'
p1480
sS'&obo;iao/dev/iao-main.owl'
p1481
S'ddi.owl'
p1482
sS'https://raw.githubusercontent.com/PlantPhenoOntology/PPO/master/ontology/ppo-raw.owl'
p1483
S'ppo.owl'
p1484
sS'http://mmisw.org/ont/coa/coa'
p1485
S'coa'
p1486
sS'&annotations;'
p1487
S'ISO-15926-2_2003_annotations.xml'
p1488
sS'http://mmisw.org/ont/univmemphis/sensor'
p1489
S'sensor.1'
p1490
sS'http://mmisw.org/ont/CUAHSI/OceanCompound'
p1491
S'OceanCompound'
p1492
sS'http://www.owl-ontologies.com/RCTOntology.owl'
p1493
S'NoNRCTontology1.0.owl.xml'
p1494
sS'http://www.bpiresearch.com/BPMO/2004/03/03/cdl/Countries'
p1495
S'Countries.owl'
p1496
sS'http://www.ICPS/ontologies/DetectionMechanisms'
p1497
S'DetectionMechanisms.owl'
p1498
sS'http://mmisw.org/ont/odm2/SamplingFeatureGeotype'
p1499
S'SamplingFeatureGeotype'
p1500
sS'http://www.mskcc.org/ontologies/2013/03/sae.owl'
p1501
S'sse-p.owl'
p1502
sS'http://mmisw.org/ont/calcofi/Prodo_Cast'
p1503
S'Prodo_Cast'
p1504
sS'http://www.owl-ontologies.com/Ontology1435740495.owl'
p1505
S'OntoFood.owl'
p1506
sS'http://mmisw.org/ont/CUAHSI/WaterQualityCompound'
p1507
S'WaterQualityCompound'
p1508
sS'http://opendata.inra.fr/ms2o/'
p1509
S'ms2o_core.owl'
p1510
sS'http://www.ebi.ac.uk/medo/'
p1511
S'experimental_design_ontology_1.0.owl'
p1512
sS'http://mmisw.org/ont/gcoos/parameter'
p1513
S'parameter.3'
p1514
sS'http://purl.obolibrary.org/obo/tao.owl'
p1515
S'tao.owl'
p1516
sS'http://mmisw.org/ont/mvco/observableProperty'
p1517
S'observableProperty'
p1518
sS'http://www.semanticweb.org/ontologies/2014/11/legal.owl'
p1519
S'legal.owl'
p1520
s.