(lp0
(S'assumption'
p1
I31
tp2
a(S'areatype'
p3
I30
tp4
a(S'bctd'
p5
I27
tp6
a(S'ANZRC_Codes'
p7
I26
tp8
a(S'active_acoustic_metadata'
p9
I26
tp10
a(S'ActionType'
p11
I24
tp12
a(S'animal_acoustic_telemetry'
p13
I24
tp14
a(S'authority'
p15
I20
tp16
a(S'atmospheric'
p17
I18
tp18
a(S'architectureConcept'
p19
I16
tp20
a(S'AtmosphericHydrologicCompound'
p21
I12
tp22
a(S'AquaBioCore'
p23
I12
tp24
a(S'AtmosphericHydrologicCore'
p25
I12
tp26
a(S'AtmosphericHydrologicSynthesis'
p27
I12
tp28
a(S'AquaBiologicalCompound'
p29
I12
tp30
a(S'bfo-1.1-el.owl'
p31
I10
tp32
a(S'bfo-continuants.owl'
p33
I2
tp34
a(S'BFOGFOMappings.owl'
p35
I2
tp36
a(S'BFOGFO-basicMappings.owl'
p37
I2
tp38
a.