(dp0
S'nemo_annot:created_date'
p1
(lp2
S'RackMultipart20131021-23110-1vlki4d.owl'
p3
aS'RackMultipart20131021-23110-1vlki4d.xml'
p4
asS'owl:deprecated'
p5
(lp6
S'specimen.rdf'
p7
asS'obo:is_metadata_tag'
p8
(lp9
S'DIAB_v90rb.owl'
p10
asS'vaem:revisionnumber'
p11
(lp12
S'qu.rdf'
p13
aS'dimensional.rdf'
p14
aS'quan.rdf'
p15
aS'qudt.owl'
p16
aS'quanti.rdf'
p17
aS'dimen.rdf'
p18
aS'dimensi.rdf'
p19
asS'elements:creator'
p20
(lp21
S'snpontology_full.owl'
p22
asS'owl:annotationproperty'
p23
(lp24
g13
aS'schemaorg.owl'
p25
asS'j.0:historynote'
p26
(lp27
S'NIF-Dysfunction.owl'
p28
asS'rdf:comment'
p29
(lp30
S'omiabis.owl'
p31
asS'dct:contributor'
p32
(lp33
S'agrelon.rdf'
p34
aS'core.1'
p35
aS'dispediaCoreComplete.xml'
p36
asS'dct:license'
p37
(lp38
S'Tobion_Sports.owl'
p39
aS'copyrightonto1.owl'
p40
asS'voag:haslicensetype'
p41
(lp42
g13
ag14
ag15
ag17
ag18
ag19
asS'cpannotationschema:hasauthor'
p43
(lp44
S'controlflow.owl'
p45
aS'timeindexedsituation1.owl'
p46
aS'sequence.owl'
p47
aS'situation1.owl'
p48
asS'oboinowl:treat-xrefs-as-genus-differentia'
p49
(lp50
S'po.owl'
p51
aS'flopo-inferred.owl'
p52
asS'voaf:classnumber'
p53
(lp54
S'endpointStatus.rdf'
p55
asS'voag:withattributionto'
p56
(lp57
g13
ag14
ag15
ag17
ag18
ag19
asS'dc:publisher'
p58
(lp59
S'EMOF.owl'
p60
aS'NMR.owl'
p61
aS'event'
p62
aS'index.html.6'
p63
aS'nihss.owl'
p64
aS'genont.owl.rdf'
p65
aS'tok.owl'
p66
aS'MaHCO.owl'
p67
aS'RDFBase.owl'
p68
aS'Alzheimer Ontology v15R-xml_merged.owl'
p69
aS'SmartHomeWeather.owl'
p70
aS'bonedysplasia.owl'
p71
aS'daml-time'
p72
aS'uberon.owl'
p73
aS'index.html.7'
p74
aS'index.html.13'
p75
aS'dco.owl'
p76
aS'QVT.owl'
p77
aS'rsctx.rdf'
p78
aS'index.html.5'
p79
aS'HuPSON_v092013_merged.owl'
p80
aS'ispra-core.0.1.rdf'
p81
aS'MOF.owl'
p82
aS'CWMO-042.owl'
p83
aS'autism-merged.owl'
p84
aS'index.html.14'
p85
aS'index.html.9'
p86
aS'classi.rdf'
p87
aS'dublincore.owl'
p88
aS'BasicActions.owl'
p89
aS'EssentialOCL.owl'
p90
aS'eol.owl'
p91
aS'PrimitiveTypes.owl'
p92
aS'ms2o_core.owl'
p93
aS'index.html.10'
p94
aS'bfo-1.1-el.owl'
p95
aS'UML2-Super-MDL-041007.owl'
p96
aS'index.html.8'
p97
aS'document13.owl'
p98
aS'place'
p99
aS'Kernel.owl'
p100
aS'index.html.12'
p101
aS'ext.owl'
p102
aS'lom_ontology_ods1.owl'
p103
aS'tmo.owl'
p104
aS'odm_2006_04_03_kludge.owl'
p105
aS'RDFWeb.owl'
p106
ag7
aS'biotop1.owl'
p107
asS'obo:idspace'
p108
(lp109
S'BioMedicalTopics.owl'
p110
aS'swo.owl'
p111
asS'dcterms:creator'
p112
(lp113
S'sci_people1.owl'
p114
aS'mixsterms_owl.rdf'
p115
ag55
aS'pav.owl'
p116
ag91
ag93
aS'marinetlo1.owl'
p117
aS'txn.owl'
p118
asS'omv:hascreator'
p119
(lp120
S'instrument.1'
p121
aS'species'
p122
aS'instituteCodes'
p123
aS'op1'
p124
aS'ooidatalevel'
p125
aS'definition'
p126
aS'qualityFlag'
p127
aS'noaa-waves'
p128
aS'resourcetype'
p129
aS'weather_climate'
p130
aS'Equipment'
p131
aS'INSAT3DM'
p132
aS'prododata'
p133
aS'authority'
p134
aS'resourceType'
p135
aS'ti'
p136
aS'INSAT3DDPV'
p137
aS'rptdata'
p138
aS'assumption'
p139
aS'MethodType'
p140
aS'term'
p141
aS'quantity'
p142
aS'habitatclassification'
p143
aS'mvco'
p144
aS'MapSeaVoxPlatforms2IOOSandRDIPlatforms'
p145
aS'udunits2-accepted'
p146
aS'phytopia_mapping'
p147
aS'weatherData'
p148
aS'historyEventType'
p149
aS'devontssn'
p150
aS'map_ioos_cf'
p151
aS'SiteType'
p152
aS'unit'
p153
aS'WaterQualityCore2'
p154
aS'harmonicConstituents'
p155
aS'platform.1'
p156
aS'usjgofs_hydro'
p157
aS'testQ2ODemo'
p158
aS'WoRMS'
p159
aS'bottleqc'
p160
aS'NVSDevicesToTRDIOntology'
p161
aS'INSAT3DM.1'
p162
aS'qualityFlag.4'
p163
aS'fnmoc'
p164
aS'flag.2'
p165
aS'qualityFlag.2'
p166
aS'parameter.7'
p167
aS'qualityFlag.5'
p168
aS'SubstrateHydrologicCore'
p169
aS'WaterQualityCompound'
p170
aS'ocaican'
p171
aS'mvco_processing'
p172
aS'ioos_core_cf_map'
p173
aS'device.1'
p174
aS'udunits2-derived'
p175
aS'instruments.1'
p176
aS'coordinate'
p177
aS'ODMTT'
p178
aS'general'
p179
aS'observation_mapping'
p180
aS'map-oca'
p181
aS'ecological_mapping'
p182
aS'sensor.1'
p183
aS'qvalue'
p184
aS'coa'
p185
aS'OOI_Platform'
p186
aS'waterLevel'
p187
aS'instrument_mapping'
p188
aS'platform_map_ioos_mmi'
p189
aS'properties'
p190
aS'pigment_mapping'
p191
aS'qualityFlag_soft'
p192
aS'SurfHydrosyn'
p193
aS'noaadatalevels'
p194
aS'COMPSPC'
p195
aS'cdm'
p196
aS'ANZRC_Codes'
p197
aS'mappingcategory'
p198
aS'data_products'
p199
aS'enivronmental_mapping'
p200
aS'tagging_exchange_standards_v1'
p201
aS'SurfaceHydrologicCore'
p202
aS'pigments2'
p203
aS'parameter.6'
p204
aS'usglobec'
p205
aS'devterm'
p206
aS'qcFlag'
p207
aS'parent'
p208
aS'rdi'
p209
aS'properties.1'
p210
aS'tool'
p211
aS'flag'
p212
aS'general.1'
p213
aS'flag.1'
p214
aS'udunits2-common'
p215
aS'LandCompound'
p216
aS'qualityFlag.1'
p217
aS'pigments'
p218
aS'chladata'
p219
aS'areatype'
p220
aS'platformCodes'
p221
aS'OceanCore'
p222
aS'test'
p223
aS'OrganizationType'
p224
aS'societal_areas'
p225
aS'ooiReferenceConcept'
p226
aS'param2cat'
p227
aS'wave'
p228
aS'biological'
p229
aS'indexterm'
p230
aS'ecology'
p231
aS'def'
p232
aS'qualityFlag.6'
p233
aS'qualityFlag_hard'
p234
aS'sector'
p235
aS'observations'
p236
aS'qualityFlag_tq'
p237
aS'dm'
p238
aS'cmecs'
p239
aS'parameter.2'
p240
aS'AquaBiologicalCompound'
p241
aS'platform'
p242
aS'science'
p243
aS'parameter.3'
p244
aS'AquaBioCore'
p245
aS'cyberinfrastructureConcept'
p246
aS'WaterQuality'
p247
aS'reference'
p248
aS'studyFootprinting'
p249
aS'samplingfeaturetype'
p250
aS'AtmosphericHydrologicSynthesis'
p251
aS'swe_element_type'
p252
aS'object'
p253
aS'INSAT3DDPV.1'
p254
aS'thesaurus'
p255
aS'udunits2-prefixes'
p256
aS'OceanSynthesis'
p257
aS'OA'
p258
aS'datatype'
p259
aS'thesaurus.2'
p260
aS'OceanCompound'
p261
aS'ionrole'
p262
aS'MarineOrganism'
p263
aS'ActionType'
p264
aS'CalCOFI_stationid'
p265
aS'parameter.5'
p266
aS'ceiConcept'
p267
aS'map_ioos_ioos'
p268
aS'bctd'
p269
aS'cchhg_product_type'
p270
aS'MXP'
p271
aS'whoiCruiseID'
p272
aS'operator'
p273
aS'sites'
p274
aS'nutrient'
p275
aS'informationResource'
p276
aS'icancoa'
p277
aS'water_quality'
p278
aS'MIOOSSEC'
p279
aS'parameter.8'
p280
aS'historyEventList'
p281
aS'featuretype'
p282
aS'platform_mapping'
p283
aS'pctd'
p284
aS'category'
p285
aS'qcTests'
p286
aS'SFH'
p287
aS'castdata'
p288
aS'device'
p289
aS'datalevel.1'
p290
aS'qcCategory'
p291
aS'AtmosphericHydrologicCore'
p292
aS'models'
p293
aS'parameter_provisional'
p294
aS'keyword'
p295
aS'juvenilerockfish'
p296
aS'gts'
p297
aS'current.3'
p298
aS'identifier_parameter_program'
p299
aS'SamplingFeatureType'
p300
aS'_map'
p301
aS'qualityFlag.3'
p302
aS'cfonmap'
p303
aS'map_core_variable'
p304
aS'passive_acoustic_metadata'
p305
aS'multibeam'
p306
aS'platform_map'
p307
aS'noaa-tide-current'
p308
aS'Test'
p309
aS'instruments'
p310
aS'Prodo_Cast'
p311
aS'platforms'
p312
aS'SubstrateHydrologicCompound'
p313
aS'thesaurus.1'
p314
aS'atmospheric'
p315
aS'animal_acoustic_telemetry'
p316
aS'eqtorientation'
p317
aS'organization'
p318
aS'ooiionroles'
p319
aS'marine_biogeography'
p320
aS'process'
p321
aS'waveQChard'
p322
aS'SurfaceHydrologicCompound'
p323
aS'active_acoustic_metadata'
p324
aS'instruments_v3'
p325
aS'systemtype'
p326
aS'LandCore'
p327
aS'parameter.4'
p328
aS'SamplingFeatureGeotype'
p329
aS'vine'
p330
aS'science_mapping'
p331
aS'sensor.2'
p332
aS'physical'
p333
aS'platforms.1'
p334
aS'qcflag'
p335
aS'taxonomy'
p336
aS'om'
p337
aS'core_variable'
p338
aS'parent_mapping'
p339
aS'glossary'
p340
aS'CN2.owl'
p341
aS'optical'
p342
aS'category.1'
p343
aS'platform.2'
p344
aS'SubstrateHydrologicSyn'
p345
aS'SFM'
p346
aS'phytopia_species_mapping'
p347
aS'water_property'
p348
aS'observableProperty'
p349
aS'pathogen'
p350
aS'environmental_interactions'
p351
aS'qualityFlag_aq'
p352
aS'bottledata'
p353
aS'relationshiptype'
p354
aS'device_map'
p355
aS'mmiorr'
p356
aS'ctdfield'
p357
aS'MCFS'
p358
aS'CO-OPSqcFlags'
p359
aS'instrument'
p360
aS'MVCOtoCFswell'
p361
aS'map_societal_areas'
p362
aS'udunits2-base'
p363
aS'sensor'
p364
aS'parameter'
p365
aS'parameter.1'
p366
aS'octr'
p367
aS'software'
p368
aS'map_category'
p369
aS'architectureConcept'
p370
aS'LandSynthesis'
p371
aS'datalevel'
p372
aS'AtmosphericHydrologicCompound'
p373
aS'ComputerNetworks'
p374
aS'datum'
p375
asS'dc:subject'
p376
(lp377
S'BIRNLex-OBO-UBO.owl.1'
p378
ag128
aS'ONSTR.owl'
p379
ag60
ag13
ag62
aS'INO.owl'
p380
aS'webService.owl'
p381
aS'PANDA.owl'
p382
aS'ns_MartinHepp.owl'
p383
aS'odnae_merged.owl'
p384
aS'C_battery.rdf'
p385
aS'oae.owl'
p386
ag164
ag67
aS'brucellosis_merged.owl'
p387
ag68
aS'goodrelations_v1.owl'
p388
aS'NIF-Function.owl'
p389
ag179
ag14
aS'BIRNLex-OBO-UBO.owl.2'
p390
aS'ohmi.owl'
p391
ag72
ag209
ag15
aS'birnlex.owl'
p392
ag76
aS'ocvdae-merged.owl'
p393
ag77
aS'nif.owl'
p394
aS'OBI.owl.1'
p395
aS'obi112.owl'
p396
ag239
aS'OntoPneumo_20110511.owl'
p397
aS'bibtex.owl'
p398
aS'asthma_v1.3.owl'
p399
aS'clo_merged.owl'
p400
ag16
ag266
aS'cdao1.owl'
p401
aS'ogg-mm.owl'
p402
ag17
aS'RackMultipart20131202-9185-1thvxyu.owl'
p403
ag82
aS'ogsf.owl'
p404
aS'ogg.owl'
p405
ag28
ag296
ag297
aS'obi11.owl'
p406
aS'obcs_merged_inferred.owl'
p407
ag308
aS'hino.owl'
p408
ag89
ag90
aS'MGEDOntology.owl'
p409
ag92
ag18
aS'ovae_merged.owl'
p410
ag96
aS'CNO_05.owl'
p411
ag99
ag100
aS'BIRNLex-OBO-UBO.owl.3'
p412
aS'OBI.owl.3'
p413
ag19
aS'vo.owl'
p414
ag104
ag357
ag105
aS'SAO.owl'
p415
ag106
aS'NIF-Function.owl.1'
p416
aS'RoleO.owl'
p417
aS'RackMultipart20131202-9185-1thvxyu.xml'
p418
ag107
asS'foaf:maker'
p419
(lp420
S'problem-oriented-medical-record.owl'
p421
aS'ns'
p422
aS'merged-hospital-data.rdf'
p423
ag39
asS'j.0:definition'
p424
(lp425
g28
asS'foaf:mbox_sha1sum'
p426
(lp427
S'iwsearch.owl.2'
p428
asS'omvmmi:hascontentcreator'
p429
(lp430
g122
ag123
ag124
ag125
ag126
ag128
ag129
ag130
ag132
ag133
ag134
ag135
ag136
ag137
ag138
ag139
ag140
ag142
ag144
ag145
ag146
ag147
ag148
ag149
ag150
ag151
ag152
ag153
ag155
ag156
ag158
ag159
ag160
ag161
ag162
ag164
ag165
ag171
ag172
ag173
ag175
ag176
ag177
ag178
ag180
ag181
ag182
ag184
ag185
ag186
ag187
ag188
ag189
ag190
ag191
ag194
ag195
ag196
ag197
ag198
ag199
ag200
ag201
ag203
ag208
ag209
ag210
ag211
ag212
ag214
ag215
ag218
ag219
ag220
ag221
ag223
ag224
ag225
ag226
ag227
ag228
ag229
ag231
ag232
ag235
ag236
ag238
ag239
ag240
ag242
ag243
ag244
ag246
ag248
ag249
ag250
ag252
ag253
ag254
ag255
ag256
ag258
ag259
ag260
ag262
ag264
ag265
ag266
ag267
ag268
ag269
ag270
ag271
ag272
ag273
ag274
ag275
ag276
ag277
ag278
ag279
ag281
ag282
ag283
ag284
ag285
ag287
ag288
ag289
ag290
ag293
ag296
ag297
ag298
ag300
ag301
ag303
ag304
ag305
ag306
ag307
ag308
ag309
ag310
ag311
ag312
ag314
ag315
ag316
ag318
ag319
ag320
ag321
ag322
ag324
ag325
ag326
ag328
ag329
ag330
ag331
ag333
ag334
ag335
ag336
ag338
ag339
ag340
ag341
ag342
ag343
ag346
ag347
ag348
ag349
ag350
ag351
ag353
ag354
ag356
ag358
ag359
ag360
ag361
ag362
ag363
ag364
ag365
ag366
ag367
ag368
ag369
ag370
ag372
ag374
ag375
asS'dc:creator'
p431
(lp432
g378
aS'oostt.owl'
p433
ag121
aS'OBO_annotation_properties.owl.5'
p434
ag122
ag123
ag124
ag125
ag126
ag127
ag128
aS'team.rdf'
p435
aS'meo_v07.owl'
p436
aS'ngsonto2016_innuendo.owl'
p437
aS'chem2bio2rdf.owl'
p438
aS'GRO_v0.5.owl'
p439
ag129
aS'grefine.rdf'
p440
ag379
aS'DetectionMechanisms.owl'
p441
aS'ucdo.owl'
p442
aS'Anatomy.owl'
p443
aS'iridl.owl'
p444
aS'dady.rdf'
p445
ag130
ag60
ag61
ag131
aS'gsontology.owl'
p446
aS'diff.rdf'
p447
aS'rdforms.rdf'
p448
ag132
aS'bim_beta.owl'
p449
aS'regenbase_vocabulary.owl'
p450
aS'dideo.owl'
p451
ag133
aS'SDO-merged.owl'
p452
ag13
ag134
ag135
aS'onto.rdf.2'
p453
ag136
ag421
aS'orderedlistontology.owl'
p454
ag137
aS'bang.rdf'
p455
ag138
ag139
aS'security.rdf'
p456
aS'gfvo_bioportal.xml'
p457
ag140
ag141
ag142
ag143
ag144
ag62
aS'onto.rdf.3'
p458
ag145
ag146
ag147
aS'dron-full.owl'
p459
ag148
ag63
ag149
ag150
aS'TEO.owl'
p460
ag151
ag152
ag380
ag153
ag154
ag381
ag155
ag64
ag382
aS'neli.rdf'
p461
aS'PatientCharacteristics.owl'
p462
ag383
ag156
ag157
ag384
aS'BIRNLex_annotation_properties.owl.5'
p463
aS'vico_merged.owl'
p464
aS'BIRNLex_annotation_properties.owl'
p465
aS'Medication.owl'
p466
ag385
aS'events.rdf'
p467
ag386
aS'scovo-plus.rdf'
p468
aS'AtomOwl.rdf'
p469
ag65
aS'test.rdf'
p470
ag158
ag159
ag66
ag160
aS'onto.rdf.12'
p471
ag161
aS'sparqlpush.rdf'
p472
aS'duo.owl'
p473
ag162
ag163
ag164
aS'Person.owl'
p474
aS'w3p.rdf'
p475
ag31
ag165
ag166
ag167
ag67
aS'vessels_GT_GRT_ISSCFV_v1_2.owl'
p476
aS'rulz.rdf'
p477
ag387
ag168
ag169
ag170
aS'acronym.rdf'
p478
ag171
aS'ssn.owl'
p479
ag68
ag172
ag388
aS'sdg.rdf'
p480
aS'ContributingFactors-Hazards.owl'
p481
aS'psc.rdf'
p482
ag173
ag69
ag174
ag175
aS'ac.rdf'
p483
ag389
ag176
aS'OntolUrgences_v3.0.4.owl'
p484
ag177
ag178
aS'cap.rdf'
p485
aS'rsa.owl'
p486
ag179
ag180
ag181
ag182
ag183
ag184
ag14
ag185
aS'ActionsToReduceRisk.owl'
p487
aS'capo.rdf'
p488
ag186
ag187
ag188
ag189
ag190
aS'dcat.rdf'
p489
ag191
aS'idoden_beta0.15b.owl'
p490
ag390
ag192
ag193
ag391
aS'cpo.rdf'
p491
aS'fiesta-iot.owl'
p492
aS'gem-nav.rdf'
p493
aS'typon.xml'
p494
ag194
ag195
ag70
ag196
ag197
aS'Furniture.owl'
p495
aS'emissions.rdf'
p496
aS'sco.rdf'
p497
aS'Countries.owl'
p498
ag198
aS'OrganizationalOutcomes.owl'
p499
ag199
ag200
ag201
aS'co.rdf'
p500
ag202
ag71
aS'lexinfo.rdf'
p501
ag203
aS'cer.rdf'
p502
ag72
ag204
ag205
aS'am.rdf'
p503
ag428
ag206
ag207
aS'rstvoc.rdf'
p504
ag208
ag209
aS'cogs.rdf'
p505
aS'IncidentCharacteristic.owl'
p506
ag73
ag74
ag210
aS'PatientSafetyIncident.owl'
p507
ag211
ag212
ag213
ag75
ag423
ag214
ag215
aS'wsapo.rdf'
p508
ag216
aS'sopharm2.2.owl'
p509
ag217
ag218
ag219
aS'MitigatingFactors.owl'
p510
aS'corelf.rdf'
p511
aS'elseweb-lifemapper-parameters.owl'
p512
aS'Outcomes.owl'
p513
ag220
ag221
ag15
ag222
aS'Clothing.owl'
p514
ag223
aS'opl.owl'
p515
aS'onto.rdf.8'
p516
aS'ido-merged.owl'
p517
ag224
aS'OBO_annotation_properties.owl.2'
p518
aS'ObjectWithStates.owl'
p519
ag392
aS'lmf.rdf'
p520
aS'lsdi.rdf'
p521
ag225
ag76
ag226
ag227
aS'pdo.rdf'
p522
ag228
ag393
ag229
ag230
ag231
ag77
ag232
aS'yoda.rdf'
p523
ag233
aS'demlab1.owl'
p524
ag234
aS'msv.owl'
p525
ag394
aS'csp.rdf'
p526
ag235
ag236
ag395
ag396
ag237
aS'Menelas-Top-20130715.owl'
p527
ag238
ag239
ag240
aS'2014-05-21-datacite-0_6_4_1.owl'
p528
ag241
ag242
ag110
ag243
aS'ontoneo.owl'
p529
ag397
aS'Place.owl'
p530
aS'PDO_ver0.7.owl'
p531
aS'printTracking.rdf'
p532
ag244
ag245
aS'travel.rdf'
p533
ag398
aS'CPR.owl'
p534
aS'AmelioratingActions.owl'
p535
aS'adolena_OBDA.owl'
p536
ag246
aS'OBO_annotation_properties.owl.1'
p537
ag247
ag248
ag249
aS'commute.rdf'
p538
ag250
aS'hrdo.owl'
p539
ag251
ag78
ag400
ag16
aS'wp-old.rdf'
p540
aS'ppo.rdf'
p541
ag79
ag252
ag253
ag254
aS'scovo.rdf'
p542
ag255
aS'water.rdf'
p543
aS'conference-ontology.owl'
p544
ag256
ag116
ag257
ag258
ag111
ag259
ag260
ag261
ag262
aS'smail.rdf'
p545
aS'akt-map-onto.xml.1'
p546
aS'pgxo.owl'
p547
ag263
ag264
ag265
ag266
aS'PatientOutcomes.owl'
p548
aS'pdro.owl'
p549
ag267
ag268
ag269
ag270
ag271
aS'cm.rdf'
p550
aS'orca.rdf'
p551
aS'CBO.owl'
p552
aS'br.rdf'
p553
ag272
aS'HospitalEquipment.owl'
p554
ag273
aS'bcgo_merged_inferred.owl'
p555
ag80
ag401
aS'xps.rdf'
p556
ag274
ag81
ag275
ag402
aS'rdb2rdftc.rdf'
p557
aS'gem-base.rdf'
p558
ag276
ag277
ag278
aS'orgs.rdf'
p559
ag279
aS'flu.owl'
p560
aS'ico_merged.owl'
p561
aS'ski.owl'
p562
ag280
aS'tao.rdf'
p563
ag281
ag282
aS'push.rdf'
p564
ag283
ag284
aS'pathLex.owl'
p565
ag17
ag403
aS'ppmo.rdf'
p566
ag285
ag82
ag286
ag287
aS'av.rdf'
p567
ag288
ag289
ag290
ag291
ag83
ag84
ag292
ag293
aS'raul.rdf'
p568
ag404
aS'xfn.rdf'
p569
ag294
ag405
aS'scovolink.rdf'
p570
aS'vso.owl'
p571
aS'sustainabilityTaxonomy.rdf'
p572
ag295
aS'cordis.rdf'
p573
ag28
ag296
aS'UnitsOntology-SDO.owl'
p574
ag297
ag298
aS'vCard'
p575
ag299
ag300
ag301
aS'ogms1.owl'
p576
ag85
ag86
aS'elseweb-edac1.owl'
p577
ag87
ag302
ag303
aS'elseweb-data.owl'
p578
aS'GeneDiseaseAssociation.owl'
p579
ag406
ag304
aS'slua.rdf'
p580
ag305
aS'ex.rdf'
p581
ag306
ag407
aS'poro1.owl'
p582
ag307
ag308
ag309
ag408
ag89
ag90
aS'gni.owl'
p583
ag310
aS'gem-layout.rdf'
p584
aS'Activity.owl'
p585
ag311
aS'cloudisus.rdf'
p586
ag312
aS'papp.rdf'
p587
ag313
aS'monarch.owl'
p588
aS'mod-ontology-09092016.owl'
p589
ag314
ag315
aS'admsapi.rdf'
p590
ag316
aS'rooms.rdf'
p591
aS'internano.owl'
p592
ag317
ag318
ag409
aS'c4n.rdf'
p593
ag319
ag320
ag92
ag18
aS'ODGI.owl'
p594
ag321
ag322
ag410
aS'ucum-instances.owl'
p595
aS'OBO_annotation_properties.owl.4'
p596
ag323
ag324
ag325
aS'2014-05-21-SCoRO-1_8_4_1.owl'
p597
aS'ns.1'
p598
aS'ego.owl'
p599
ag326
ag327
aS'omrse.owl'
p600
aS'npo-2011-12-08_inferred.owl'
p601
ag328
ag329
aS'OGI.owl'
p602
ag94
ag330
ag95
aS'entity-action.rdf'
p603
aS'LinkSpec.rdf'
p604
ag96
aS'OntoDT.owl'
p605
ag331
ag332
aS'search.rdf'
p606
aS'rentprop.rdf'
p607
ag97
ag333
aS'contextdescriptor1.owl'
p608
ag98
ag411
ag334
ag335
aS'InferredAnatomyv3.owl'
p609
ag99
ag336
ag100
aS'2014-05-22-cito-2_6_3.owl'
p610
ag412
ag337
aS'ohd.owl'
p611
ag338
aS'eclass_514en.owl'
p612
ag339
aS'airtravelbookingontology.owl'
p613
ag340
ag341
ag342
aS'elseweb-lifemapper.owl'
p614
aS'2016-04-19-fabio-1_9_2.owl'
p615
aS'orges.owl'
p616
aS'odapp.rdf'
p617
aS'animals.owl'
p618
ag413
ag343
aS'pen.rdf'
p619
aS'elseweb-mappings.owl'
p620
ag344
ag101
ag345
ag346
ag347
aS'chartr.rdf'
p621
aS'Detection.owl'
p622
ag348
ag19
ag349
ag350
ag414
aS'sigma.rdf'
p623
ag351
ag102
ag352
ag353
aS'CSSO_ver0.6.owl'
p624
ag103
aS'EDAM_1.16.owl'
p625
aS'elseweb-modelling.owl'
p626
aS'ordo_orphanet.owl'
p627
ag354
aS'fingal.rdf'
p628
ag355
ag104
aS'void.rdf'
p629
aS'fresnel.1'
p630
aS'cmm.rdf'
p631
ag356
ag357
ag358
ag359
aS'onto.rdf.10'
p632
ag105
ag360
ag415
aS'CVRG_EPOntology.owl'
p633
ag361
aS'football.owl'
p634
ag362
ag363
ag364
ag365
ag366
ag106
aS'aardv.rdf'
p635
aS'BuildingStructure.owl'
p636
ag416
ag417
ag367
ag7
aS'bp.rdf'
p637
ag368
aS'onto.rdf.7'
p638
ag369
ag370
ag371
ag372
ag418
ag107
ag373
ag374
aS'expressionMechanism.owl'
p639
aS'OBO_annotation_properties.owl'
p640
ag375
asS'smw:exportdate'
p641
(lp642
S'iceci.owl'
p643
asS'omv:hascontributor'
p644
(lp645
g122
ag123
ag125
ag129
ag132
ag133
ag134
ag135
ag137
ag138
ag139
ag140
ag141
ag142
ag146
ag147
ag148
ag152
ag157
ag159
ag160
ag163
ag165
ag166
ag167
ag168
ag174
ag175
ag176
ag178
ag179
ag182
ag183
ag184
ag186
ag188
ag190
ag194
ag195
ag197
ag198
ag199
ag201
ag206
ag207
ag208
ag210
ag215
ag218
ag219
ag220
ag224
ag231
ag233
ag236
ag242
ag243
ag252
ag253
ag256
ag259
ag262
ag264
ag265
ag266
ag269
ag272
ag273
ag274
ag275
ag276
ag280
ag282
ag283
ag284
ag288
ag289
ag290
ag294
ag296
ag297
ag300
ag305
ag307
ag310
ag311
ag312
ag317
ag319
ag325
ag329
ag330
ag331
ag332
ag333
ag335
ag336
ag337
ag339
ag341
ag344
ag346
ag347
ag349
ag351
ag353
ag354
ag357
ag361
ag363
ag365
ag374
asS'obo:iao_0000412'
p646
(lp647
S'iao-merged.owl'
p648
asS'owl:datatypeproperty'
p649
(lp650
g25
asS'owl:priorversion'
p651
(lp652
g34
ag443
ag462
ag466
ag66
ag474
ag476
ag481
ag69
ag495
ag498
aS'dogont1.owl'
p653
ag506
ag507
ag514
ag76
ag528
ag529
ag530
ag116
ag548
ag552
ag554
aS'philosurfical.owl'
p654
ag83
ag585
aS'swoogle.owl'
p655
aS'wob.owl.1'
p656
ag610
ag615
ag636
asS'dcterms:subject'
p657
(lp658
g91
ag93
asS'cc:license'
p659
(lp660
g34
aS'PO2_Core.owl'
p661
aS'news.owl'
p662
ag479
aS'BIOREFINERY.owl'
p663
ag70
ag653
ag512
ag524
aS'DURUM_WHEAT.owl'
p664
aS'conference.owl'
p665
ag55
aS'TRANSMAT.owl'
p666
aS'person.owl'
p667
aS'contact.owl'
p668
ag575
ag577
aS'photo.owl'
p669
ag578
aS'publication.owl'
p670
aS'assertion.owl'
p671
ag608
ag614
ag620
ag103
ag626
aS'oboe-core.owl'
p672
aS'association.owl'
p673
aS'project.owl'
p674
asS'nemo_annot:curator'
p675
(lp676
g3
ag4
asS'void:databrowse'
p677
(lp678
g382
asS'dc:right'
p679
(lp680
g539
asS'foaf:page'
p681
(lp682
g110
ag78
ag540
ag111
ag625
asS'omv:documentation'
p683
(lp684
g121
ag122
ag123
ag125
ag129
ag133
ag138
ag139
ag140
ag142
ag146
ag148
ag152
ag159
ag160
ag163
ag165
ag166
ag167
ag168
ag175
ag176
ag178
ag183
ag184
ag192
ag194
ag197
ag206
ag207
ag215
ag217
ag219
ag220
ag221
ag224
ag230
ag233
ag234
ag235
ag250
ag252
ag253
ag256
ag259
ag262
ag264
ag265
ag266
ag269
ag273
ag275
ag282
ag284
ag288
ag289
ag290
ag294
ag300
ag303
ag311
ag316
ag319
ag329
ag330
ag332
ag335
ag341
ag344
ag352
ag353
ag354
ag356
ag360
ag363
ag365
ag374
asS'omv:uri'
p685
(lp686
g121
ag122
ag123
ag124
ag125
ag126
ag127
ag128
ag129
ag130
ag131
ag132
ag133
ag134
ag135
ag136
ag137
ag138
ag139
ag140
ag141
ag142
ag143
ag144
ag145
ag146
ag147
ag148
ag149
ag150
ag151
ag152
ag153
ag154
ag155
ag156
ag157
ag158
ag159
ag160
ag161
ag162
ag163
ag164
ag165
ag166
ag167
ag168
ag169
ag170
ag171
ag172
ag173
ag174
ag175
ag176
ag177
ag178
ag179
ag180
ag181
ag182
ag183
ag184
ag185
ag186
ag187
ag188
ag189
ag190
ag191
ag192
ag193
ag194
ag195
ag196
ag197
ag198
ag199
ag200
ag201
ag202
ag203
ag204
ag205
ag206
ag207
ag208
ag209
ag210
ag211
ag212
ag213
ag214
ag215
ag216
ag217
ag218
ag219
ag220
ag221
ag222
ag223
ag224
ag225
ag226
ag227
ag228
ag229
ag230
ag231
ag232
ag233
ag234
ag235
ag236
ag237
ag238
ag239
ag240
ag241
ag242
ag243
ag244
ag245
ag246
ag247
ag248
ag249
ag250
ag251
ag252
ag253
ag254
ag255
ag256
ag257
ag258
ag259
ag260
ag261
ag262
ag263
ag264
ag265
ag266
ag267
ag268
ag269
ag270
ag271
ag272
ag273
ag274
ag275
ag276
ag277
ag278
ag279
ag280
ag281
ag282
ag283
ag284
ag285
ag286
ag287
ag288
ag289
ag290
ag291
ag292
ag293
ag294
ag295
ag296
ag297
ag298
ag299
ag300
ag301
ag302
ag303
ag304
ag305
ag306
ag307
ag308
ag309
ag310
ag311
ag312
ag313
ag314
ag315
ag316
ag317
ag318
ag319
ag320
ag321
ag322
ag323
ag324
ag325
ag326
ag327
ag328
ag329
ag330
ag331
ag332
ag333
ag334
ag335
ag336
ag337
ag338
ag339
ag340
ag341
ag342
ag343
ag344
ag345
ag346
ag347
ag348
ag349
ag350
ag351
ag352
ag353
ag354
ag355
ag356
ag357
ag358
ag359
ag360
ag361
ag362
ag363
ag364
ag365
ag366
ag367
ag368
ag369
ag370
ag371
ag372
ag373
ag374
ag375
asS'vaem:namespace'
p687
(lp688
g13
ag14
ag15
ag17
ag18
ag19
asS'vaem:lastupdated'
p689
(lp690
g13
ag14
ag15
ag16
ag17
ag18
ag19
asS'omvmmi:origvocdescriptivename'
p691
(lp692
g123
ag125
ag133
ag138
ag139
ag142
ag148
ag155
ag159
ag160
ag163
ag176
ag183
ag184
ag187
ag194
ag197
ag219
ag220
ag253
ag259
ag265
ag273
ag275
ag276
ag280
ag282
ag288
ag290
ag305
ag311
ag316
ag324
ag353
ag359
ag375
asS'foaf:name'
p693
(lp694
g422
ag428
ag524
ag55
ag39
ag616
asS'b807e4-4286-46f3-89f6-f67df1657fdc:efo_0000009'
p695
(lp696
S'experimental_design_ontology_1.0.owl'
p697
asS'rdf:type'
p698
(lp699
g34
ag435
ag440
ag445
ag447
ag448
ag455
ag456
ag467
ag468
ag469
ag470
ag472
ag475
ag477
ag478
ag480
ag482
ag483
ag485
ag488
ag489
ag491
ag493
ag496
ag497
ag500
ag501
ag502
ag503
ag504
ag505
ag508
ag511
ag520
ag521
ag522
ag523
ag526
ag532
ag533
ag55
ag538
ag541
ag542
ag543
ag545
ag550
ag551
ag553
ag556
ag81
ag557
ag558
ag559
ag563
ag564
ag566
ag567
ag568
ag569
ag570
ag572
ag573
ag87
ag580
ag581
ag584
ag586
ag587
ag590
ag591
ag593
ag603
ag604
ag606
ag607
ag118
ag617
ag619
ag621
ag623
ag628
ag629
ag631
ag635
ag637
asS'dct:rights'
p700
(lp701
g34
asS'cpannotationschema:hascomponent'
p702
(lp703
g46
asS'dcterms:identifier'
p704
(lp705
g579
ag93
asS'asthma:defaultlanguage'
p706
(lp707
g399
asS'core:changenote'
p708
(lp709
g378
ag434
ag463
ag465
ag389
ag390
ag518
ag537
aS'NIF-Cell.owl'
p710
aS'NIF-Subcellular.owl'
p711
ag596
ag412
ag416
asS'dcterms:description'
p712
(lp713
g440
ag445
ag447
ag448
ag455
ag456
ag468
ag470
ag472
ag475
ag477
ag478
ag480
ag483
ag485
ag488
ag489
ag491
ag500
ag501
ag503
ag505
ag508
ag511
ag520
ag522
ag523
ag526
ag532
ag55
ag541
ag542
ag551
ag553
ag556
ag557
ag563
ag566
ag567
ag568
ag569
ag570
ag572
ag580
ag586
ag590
ag91
ag591
ag593
ag93
ag117
ag603
ag606
ag607
ag118
ag617
ag619
ag621
ag623
ag628
ag629
ag631
ag635
asS'oboinowl:hassubset'
p714
(lp715
S'cellular_component.owl.4'
p716
aS'sequence.owl.4'
p717
ag110
ag111
aS'cellular_component.owl.2'
p718
ag711
aS'sequence.owl.1'
p719
ag625
asS'oboinowl:treat-xrefs-as-reverse-genus-differentia'
p720
(lp721
g73
ag102
asS'dcterms:isrequiredby'
p722
(lp723
g88
asS'name'
p724
(lp725
g211
asS'omvmmi:origvocuri'
p726
(lp727
g121
ag122
ag123
ag125
ag133
ag138
ag139
ag142
ag143
ag146
ag148
ag153
ag159
ag160
ag163
ag165
ag175
ag176
ag179
ag183
ag184
ag194
ag197
ag206
ag215
ag219
ag220
ag221
ag230
ag232
ag253
ag256
ag259
ag262
ag265
ag266
ag267
ag269
ag273
ag275
ag276
ag282
ag284
ag288
ag290
ag296
ag297
ag311
ag324
ag325
ag332
ag335
ag344
ag353
ag357
ag360
ag363
ag365
ag366
ag367
ag370
asS'dcterms:type'
p728
(lp729
g435
ag440
ag445
ag447
ag448
ag455
ag456
ag467
ag468
ag470
ag472
ag475
ag477
ag478
ag480
ag482
ag483
ag485
ag488
ag489
ag491
ag493
ag496
ag497
ag500
ag501
ag502
ag503
ag504
ag505
ag508
ag511
ag520
ag521
ag522
ag523
ag526
ag532
ag533
ag538
ag541
ag542
ag543
ag545
ag550
ag551
ag553
ag556
ag557
ag558
ag559
ag563
ag564
ag566
ag567
ag568
ag569
ag570
ag572
ag573
ag580
ag581
ag584
ag586
ag587
ag590
ag591
ag593
ag603
ag604
ag606
ag607
ag617
ag619
ag621
ag623
ag628
ag629
ag631
ag635
ag637
asS'dcterms:issued'
p730
(lp731
g116
ag88
ag117
ag7
asS'dct:issued'
p732
(lp733
g34
ag39
ag616
asS'oboinowl:namespaceidrule'
p734
(lp735
S'hom.owl'
p736
aS'dermatology.owl'
p737
aS'fbsp.owl'
p738
aS'tao.owl'
p739
aS'spd.owl'
p740
aS'uo.owl'
p741
asS'dce:date'
p742
(lp743
S'AdaLab.owl'
p744
asS'dcterms:contributor'
p745
(lp746
g116
ag117
asS'dct:created'
p747
(lp748
g479
ag546
ag634
asS'dc:issued'
p749
(lp750
g64
ag70
ag512
ag78
ag577
ag87
ag578
ag598
ag614
ag620
ag103
ag626
asS'vaem:description'
p751
(lp752
g13
ag14
ag15
ag17
ag18
ag19
asS'omv:name'
p753
(lp754
g121
ag122
ag123
ag124
ag125
ag126
ag127
ag128
ag129
ag130
ag131
ag132
ag133
ag134
ag135
ag136
ag137
ag138
ag139
ag140
ag141
ag142
ag143
ag144
ag145
ag146
ag147
ag148
ag149
ag150
ag151
ag152
ag153
ag154
ag155
ag156
ag157
ag158
ag159
ag160
ag161
ag162
ag163
ag164
ag165
ag166
ag167
ag168
ag169
ag170
ag171
ag172
ag173
ag174
ag175
ag176
ag177
ag178
ag179
ag180
ag181
ag182
ag183
ag184
ag185
ag186
ag187
ag188
ag189
ag190
ag191
ag192
ag193
ag194
ag195
ag196
ag197
ag198
ag199
ag200
ag201
ag202
ag203
ag204
ag205
ag206
ag207
ag208
ag209
ag210
ag211
ag212
ag213
ag214
ag215
ag216
ag217
ag218
ag219
ag220
ag221
ag222
ag223
ag224
ag225
ag226
ag227
ag228
ag229
ag230
ag231
ag232
ag233
ag234
ag235
ag236
ag237
ag238
ag239
ag240
ag241
ag242
ag243
ag244
ag245
ag246
ag247
ag248
ag249
ag250
ag251
ag252
ag253
ag254
ag255
ag256
ag257
ag258
ag259
ag260
ag261
ag262
ag263
ag264
ag265
ag266
ag267
ag268
ag269
ag270
ag271
ag272
ag273
ag274
ag275
ag276
ag277
ag278
ag279
ag280
ag281
ag282
ag283
ag284
ag285
ag286
ag287
ag288
ag289
ag290
ag291
ag292
ag293
ag294
ag295
ag296
ag297
ag298
ag299
ag300
ag301
ag302
ag303
ag304
ag305
ag306
ag307
ag308
ag309
ag310
ag311
ag312
ag313
ag314
ag315
ag316
ag317
ag318
ag319
ag320
ag321
ag322
ag323
ag324
ag325
ag326
ag327
ag328
ag329
ag330
ag331
ag332
ag333
ag334
ag335
ag336
ag337
ag338
ag339
ag340
ag341
ag342
ag343
ag344
ag345
ag346
ag347
ag348
ag349
ag350
ag351
ag352
ag353
ag354
ag355
ag356
ag357
ag358
ag359
ag360
ag361
ag362
ag363
ag364
ag365
ag366
ag367
ag368
ag369
ag370
ag371
ag372
ag373
ag374
ag375
asS'voaf:relieson'
p755
(lp756
g55
asS'obo:default-relationship-id-prefix'
p757
(lp758
g110
ag111
asS'terms:creator'
p759
(lp760
S'SP_document_workflow_V3.0.owl'
p761
aS'bao_gpcr_v1.1.owl'
p762
aS'lexinfo.owl'
p763
ag653
aS'biomo.owl'
p764
aS'bibo.owl'
p765
aS'VoID_Extension_Schema.owl'
p766
asS'foaf:mbox'
p767
(lp768
g379
ag529
ag402
ag405
aS'bfo.owl'
p769
ag616
ag414
asS'contributing_author'
p770
(lp771
S'fma.owl'
p772
asS'omvmmi:origvocsyntaxformat'
p773
(lp774
g125
ag133
ag138
ag139
ag142
ag146
ag148
ag159
ag160
ag163
ag175
ag183
ag194
ag215
ag219
ag220
ag253
ag256
ag262
ag265
ag273
ag275
ag276
ag280
ag282
ag288
ag290
ag311
ag353
ag363
asS'creator'
p775
(lp776
g772
asS'nemo_annot:pref_label'
p777
(lp778
g3
ag4
asS'terms:contributor'
p779
(lp780
g761
ag763
ag653
ag766
asS'dc:coverage'
p781
(lp782
g61
ag446
ag401
asS'doap:svnrepository'
p783
(lp784
g73
ag102
asS'version'
p785
(lp786
S'ONLIRA_v106.owl'
p787
asS'dc:language'
p788
(lp789
g62
ag63
ag66
ag69
ag71
ag72
ag428
ag74
ag75
ag509
ag76
ag79
ag80
ag84
aS'collections.owl.1'
p790
ag85
ag86
ag88
ag94
ag95
ag97
ag99
ag613
ag101
asS'omvmmi:creditcitation'
p791
(lp792
g122
ag123
ag133
ag138
ag139
ag140
ag141
ag142
ag148
ag152
ag158
ag159
ag160
ag176
ag184
ag219
ag224
ag250
ag253
ag259
ag262
ag264
ag265
ag269
ag273
ag275
ag280
ag284
ag286
ag288
ag291
ag300
ag308
ag311
ag324
ag325
ag329
ag353
ag354
asS'dcat:downloadurl'
p793
(lp794
g91
asS'omv:reference'
p795
(lp796
g122
ag125
ag129
ag132
ag133
ag137
ag138
ag139
ag140
ag142
ag146
ag148
ag151
ag152
ag153
ag160
ag173
ag175
ag194
ag196
ag201
ag209
ag215
ag219
ag220
ag224
ag225
ag232
ag240
ag253
ag256
ag264
ag265
ag273
ag275
ag282
ag288
ag289
ag296
ag300
ag303
ag311
ag324
ag329
ag330
ag338
ag353
ag360
ag361
ag363
ag365
asS'patterns:createdby'
p797
(lp798
S'ancestro_inferred.owl'
p799
asS'cpannotationschema:hasintent'
p800
(lp801
g45
ag519
ag46
aS'participation.owl'
p802
ag47
ag48
aS'informationrealization1.owl'
p803
aS'timeinterval1.owl'
p804
asS'dcterms:isreferencedby'
p805
(lp806
g88
asS'dc:created'
p807
(lp808
g469
ag486
ag71
asS'dcterms:created'
p809
(lp810
g435
ag440
ag445
ag447
ag448
ag455
ag456
ag467
ag468
ag470
ag472
ag475
ag477
ag478
ag480
ag482
ag483
ag485
ag422
ag488
ag489
ag491
ag493
ag496
ag497
ag500
ag501
ag502
ag503
ag504
ag505
ag508
ag511
ag520
ag521
ag522
ag523
ag526
ag532
ag533
ag538
ag541
ag542
ag543
ag544
ag545
ag550
ag551
ag553
ag556
ag557
ag558
ag559
ag563
ag564
ag566
ag567
ag568
ag569
ag570
ag572
ag573
ag580
ag581
ag584
ag586
ag587
ag590
ag91
ag591
ag593
ag93
ag603
ag604
ag606
ag607
ag617
ag619
ag621
ag623
ag628
ag629
ag631
ag635
ag637
asS'primary_author_and_curator'
p811
(lp812
g772
asS'vaem:hasdisciplinescope'
p813
(lp814
g13
ag14
ag15
ag16
ag17
ag18
ag19
asS'oboinowl:pairwise-disjoint'
p815
(lp816
S'trak.owl'
p817
asS'owl:objectproperty'
p818
(lp819
g25
asS'oboinowl:treat-xrefs-as-equivalent'
p820
(lp821
g739
aS'vsao.owl'
p822
ag73
ag102
asS'oboother:idspace'
p823
(lp824
g625
asS'obo_annot:pendingactionnote'
p825
(lp826
g378
ag390
ag412
asS'vaem:specificity'
p827
(lp828
g13
ag14
ag15
ag17
ag18
ag19
asS'rdfs:seealso'
p829
(lp830
S'ddi.owl'
p831
ag421
ag457
ag64
ag383
aS'd2rq.rdf'
p832
ag385
aS'temporalAggregates.owl'
p833
ag387
ag479
ag388
ag422
ag428
ag35
ag517
ag524
ag116
aS'http'
p834
ag648
ag570
ag769
ag583
ag39
ag588
aS'Finance.owl'
p835
ag330
ag608
ag118
aS'time-entry.owl'
p836
aS'wikibaseOnto.owl'
p837
aS'content'
p838
ag414
aS'prov-o.owl'
p839
ag7
aS'data-gov-twc.rdf.1'
p840
aS'index.html.2'
p841
asS'oboinowl:subsetdef'
p842
(lp843
S'OMIT.owl'
p844
asS'j.1:defaultlanguage'
p845
(lp846
g28
asS'rdfs:range'
p847
(lp848
g13
ag25
asS'core:definition'
p849
(lp850
g389
ag392
ag394
ag416
asS'omvmmi:origvoclastmodified'
p851
(lp852
g220
asS'dct:modified'
p853
(lp854
g34
ag479
ag39
asS'omv:creationdate'
p855
(lp856
g121
ag122
ag123
ag124
ag125
ag126
ag127
ag128
ag129
ag130
ag131
ag132
ag133
ag134
ag135
ag136
ag137
ag138
ag139
ag140
ag141
ag142
ag143
ag144
ag145
ag146
ag147
ag148
ag149
ag150
ag151
ag152
ag153
ag154
ag155
ag156
ag157
ag158
ag159
ag160
ag161
ag162
ag163
ag164
ag165
ag166
ag167
ag168
ag169
ag170
ag171
ag172
ag173
ag174
ag175
ag176
ag177
ag178
ag179
ag180
ag181
ag182
ag183
ag184
ag185
ag186
ag187
ag188
ag189
ag190
ag191
ag192
ag193
ag194
ag195
ag196
ag197
ag198
ag199
ag200
ag201
ag202
ag203
ag204
ag205
ag206
ag207
ag208
ag209
ag210
ag211
ag212
ag213
ag214
ag215
ag216
ag217
ag218
ag219
ag220
ag221
ag222
ag223
ag224
ag225
ag226
ag227
ag228
ag229
ag230
ag231
ag232
ag233
ag234
ag235
ag236
ag237
ag238
ag239
ag240
ag241
ag242
ag243
ag244
ag245
ag246
ag247
ag248
ag249
ag250
ag251
ag252
ag253
ag254
ag255
ag256
ag257
ag258
ag259
ag260
ag261
ag262
ag263
ag264
ag265
ag266
ag267
ag268
ag269
ag270
ag271
ag272
ag273
ag274
ag275
ag276
ag277
ag278
ag279
ag280
ag281
ag282
ag283
ag284
ag285
ag286
ag287
ag288
ag289
ag290
ag291
ag292
ag293
ag294
ag295
ag296
ag297
ag298
ag299
ag300
ag301
ag302
ag303
ag304
ag305
ag306
ag307
ag308
ag309
ag310
ag311
ag312
ag313
ag314
ag315
ag316
ag317
ag318
ag319
ag320
ag321
ag322
ag323
ag324
ag325
ag326
ag327
ag328
ag329
ag330
ag331
ag332
ag333
ag334
ag335
ag336
ag337
ag338
ag339
ag340
ag341
ag342
ag343
ag344
ag345
ag346
ag347
ag348
ag349
ag350
ag351
ag352
ag353
ag354
ag355
ag356
ag357
ag358
ag359
ag360
ag361
ag362
ag363
ag364
ag365
ag366
ag367
ag368
ag369
ag370
ag371
ag372
ag373
ag374
ag375
asS'next_id'
p857
(lp858
g625
asS'owl:versioninfo'
p859
(lp860
g378
ag433
ag434
aS'ProfileHierarchy.owl'
p861
ag34
ag831
ag436
ag439
ag379
aS'MEDLINEPLUS.rdf'
p862
ag441
ag442
ag443
ag61
ag450
ag761
ag451
ag452
ag13
ag453
ag421
ag454
ag661
ag762
ag457
aS'foaf-dl.owl'
p863
aS'dliser.rdf'
p864
aS'amino acid - inferred.owl'
p865
ag62
ag458
aS'pml-provenance.owl'
p866
ag63
ag763
aS'dreggie-ont.owl'
p867
aS'provenance.owl'
p868
aS'ReiAnalysis.owl'
p869
ag662
ag460
aS'ReiAction.owl'
p870
ag380
aS'COSTART.rdf'
p871
ag381
ag64
ag382
ag461
ag462
ag383
ag384
aS'NotificationEntity.owl'
p872
ag463
ag464
ag465
ag466
ag385
ag386
aS'dblp.owl.2'
p873
ag471
aS'NPIs ontology v4.owl'
p874
aS'ObjectList.owl'
p875
aS'ClinicalTrialOntology.owl'
p876
ag474
ag31
ag387
aS'BodyLanguage.xml'
p877
ag697
ag45
aS'ogroup-v1.0.owl'
p878
ag388
ag481
ag663
aS'genpol.owl'
p879
aS'mvco11.owl'
p880
aS'owl_1_1.owl.10'
p881
aS'DOLCE-RL.owl'
p882
ag69
aS'CTCAE_4.03_2010-06-14.owl'
p883
aS'ISO-15926-2_2003_entityMembershipCandidates.xml'
p884
aS'Muni.owl'
p885
aS'ICD10CM.rdf'
p886
ag484
aS'Process.owl'
p887
ag486
ag799
aS'travel.owl'
p888
ag422
aS'family_example.owl'
p889
aS'rdfs.owl.2'
p890
aS'SpatialRelationsGFO-basicMappings.owl'
p891
aS'CellCultureOntology.owl'
p892
aS'mereology.owl'
p893
ag14
ag487
aS'DOLCE-LiteGFO-basicMappings.owl'
p894
aS'HCPCS.rdf'
p895
ag390
ag391
ag492
aS'MFOEM.owl'
p896
ag494
ag70
ag196
ag495
ag498
ag499
aS'MF.owl'
p897
aS'sbo.owl'
p898
ag653
ag72
ag428
ag506
ag74
aS'oboe.owl'
p899
ag507
ag213
ag75
ag423
aS'RPO_081112_owl.0'
p900
ag509
aS'irw.owl'
p901
aS'bao_vocabulary_result.owl'
p902
ag510
aS'questionnaire.owl'
p903
ag512
ag513
ag15
aS'd1-ECSO.owl'
p904
ag514
aS'gfo-basic.owl'
p905
ag515
ag516
aS'lexicon_core.rdf.owl'
p906
ag517
ag518
ag392
aS'BFOROSpatialRelationsMappings.owl'
p907
ag76
ag393
aS'19115_CI.xml'
p908
aS'ATC.rdf'
p909
aS'part.owl'
p910
aS'AdaLab-meta.owl'
p911
ag524
ag525
ag46
ag394
aS'NoNRCTontology1.0.owl.xml'
p912
aS'ontopic.owl'
p913
aS'epo.owl'
p914
ag664
ag764
aS'SensorBasis.owl'
p915
ag395
ag527
ag744
aS'phare.owl'
p916
ag528
ag665
aS'LMM_L2.owl'
p917
aS'TemporalRelationsBFOMerged.owl'
p918
aS'gfo.owl'
p919
ag529
aS'ontology-metadata.owl'
p920
ag397
ag530
ag531
ag398
aS'ReiDeontic.owl'
p921
ag534
ag535
aS'AI-RHEUM.rdf'
p922
aS'CRISP.rdf'
p923
ag536
ag666
aS'ICPC.rdf'
p924
ag537
ag3
aS'restaurant.owl'
p925
aS'RPO_081112_owl.0.owl'
p926
aS'BRO.owl'
p927
aS'ogc-gml.txt'
p928
ag78
aS'Expression.owl'
p929
ag400
aS'security.owl'
p930
ag79
aS'sxml'
p931
aS'RA_metadata.owl'
p932
aS'ubyCat1.owl'
p933
ag255
aS'obib_merged_inferred.owl'
p934
ag4
ag765
ag116
aS'ISO-15926-2_2003_entityMembership.xml'
p935
ag111
ag260
aS'deliveryContext.owl.1'
p936
ag802
ag546
ag47
ag547
ag834
aS'sse-p.owl'
p937
ag548
aS'faldo.rdf'
p938
aS'1.1'
p939
ag552
ag667
ag554
aS'Book.owl'
p940
aS'DOLCE-No-Quality-Qualia.owl'
p941
ag36
aS'DUL11.owl'
p942
ag80
aS'efo.owl'
p943
ag668
ag81
ag48
ag402
aS'PDQ.rdf'
p944
ag710
ag560
ag561
aS'DUL_3.22_NOTConsidered.owl'
p945
aS'enanomapper1.owl'
p946
ag562
aS'ICD10PCS.rdf'
p947
ag17
ag403
aS'DOLCE-LiteBFOMerged.owl'
p948
aS'BFOGFO-basicMerged.owl'
p949
aS'ISO-15926-2_2003_inverseRoles.xml'
p950
aS'SpatialRelationsGFOMerged.owl'
p951
ag83
ag84
aS'swrl.owl'
p952
aS'VANDF.rdf'
p953
ag787
ag404
ag711
ag405
ag571
ag28
ag574
aS'oboe-sbc.owl'
p954
ag790
ag576
ag85
ag86
ag577
aS'basicplan.owl'
p955
ag87
aS'ecrm_160714.owl'
p956
aS'DOLCE-LiteGFOMappings.owl'
p957
ag669
ag578
ag579
aS'FunctionalParticipationGFOMappings.owl'
p958
ag406
aS'BFOROTemporalRelationsMerged.owl'
p959
ag407
ag670
ag671
ag408
aS'OCRe.owl'
p960
ag585
aS'RDL.owl.crdownload.xml'
p961
ag22
ag39
aS'ICD9CM.rdf'
p962
ag589
aS'Service.owl.3'
p963
aS'agentrole.owl'
p964
aS'TemporalRelationsBFOMappings.owl'
p965
aS'bfo-continuants.owl'
p966
ag314
ag835
ag592
aS'vocab.rdf'
p967
ag409
ag18
ag594
ag410
ag803
ag655
aS'travel(2).owl'
p968
ag656
ag596
aS'PeriodicTable.owl.xml'
p969
ag325
ag597
ag93
ag599
ag600
ag601
ag602
ag94
ag117
ag95
aS'univ-bench.owl'
p970
aS'RXNORM.rdf'
p971
ag605
ag332
ag97
aS'sp'
p972
ag608
ag411
ag118
ag609
aS'questionnaire.owl.1'
p973
ag99
aS'ReiConstraint.owl'
p974
ag804
ag610
ag412
ag337
ag611
ag613
aS'BFOGFOMerged.owl'
p975
aS'BFOROGFOMerged.owl'
p976
aS'NoNRCTontology1.0.owl'
p977
ag614
ag615
ag413
ag838
ag620
ag344
ag101
aS'IOLite.owl'
p978
ag622
aS'FFO.owl'
p979
ag19
aS'SNMI.rdf'
p980
ag414
aS'LMM_L11.owl'
p981
aS'MSTDE-FRE.rdf'
p982
aS'DIKB_evidence_ontology_v1.7.owl'
p983
ag624
ag103
aS'ISO-15926-2_2003.xml'
p984
ag626
aS'privacy.owl'
p985
ag627
ag839
ag766
aS'dicom.owl'
p986
aS'BFORODOLCE-LiteMappings.owl'
p987
ag104
aS'cogat.owl'
p988
ag630
ag672
ag632
aS'HL7.rdf'
p989
ag415
aS'bao_complete.owl'
p990
aS'OMIM.rdf'
p991
aS'dolce-very-lite.owl'
p992
ag634
aS'WeatherOntology.owl'
p993
ag636
ag417
aS'pizza.owl'
p994
aS'geopolitical.owl'
p995
ag673
ag7
aS'BFOROFunctionalParticipationMerged.owl'
p996
ag638
ag418
ag674
ag107
ag840
ag640
asS'dc:date'
p997
(lp998
g121
ag434
ag122
ag123
ag124
ag125
ag126
ag127
ag128
ag438
ag439
ag129
ag379
ag130
ag60
ag61
ag131
ag132
ag133
ag134
ag135
ag453
ag136
ag454
ag661
ag137
ag138
ag762
ag139
ag140
ag141
ag142
ag143
ag144
ag62
ag458
ag145
ag146
ag147
ag148
ag63
ag149
ag150
ag151
ag152
ag380
ag153
ag154
ag381
ag155
ag156
ag157
ag384
ag464
ag386
ag65
ag158
ag159
ag160
ag471
ag161
ag162
ag163
ag164
ag165
ag166
ag167
ag67
ag387
aS'ontoneurolog-mental-state-assessment.owl'
p999
ag168
ag169
ag170
ag171
ag68
ag172
ag173
ag69
ag174
ag175
ag176
ag484
ag177
ag178
ag179
ag180
ag181
ag182
ag183
aS'ontovip.owl'
p1000
ag184
ag114
ag185
ag186
ag187
ag188
ag189
ag190
ag191
ag192
ag193
ag391
ag194
ag195
ag196
ag197
ag198
ag199
ag200
ag201
ag202
ag203
ag72
ag204
ag205
ag206
ag207
ag208
ag209
ag74
ag210
ag211
ag212
ag213
ag75
ag214
ag215
ag216
ag902
ag217
ag218
ag219
ag220
ag221
ag904
ag222
ag223
ag516
ag517
ag224
ag518
ag225
ag226
ag227
ag228
ag393
ag229
ag230
ag231
ag77
ag232
aS'ontoneurolog-dataset-processing.owl'
p1001
ag233
ag234
ag235
ag236
ag395
ag396
ag237
ag527
ag238
ag239
ag240
ag528
ag241
ag242
ag243
ag531
ag244
ag245
ag398
ag246
ag537
ag399
ag247
ag248
ag249
ag250
ag539
ag251
ag400
ag79
ag252
ag253
ag254
ag255
ag256
ag257
ag258
ag259
ag260
ag261
ag262
ag263
ag264
ag265
ag266
ag267
ag268
ag269
ag270
ag271
ag552
ag272
ag273
ag80
ag274
ag81
ag275
ag402
ag276
ag277
ag278
ag279
ag560
ag561
ag280
aS'ontoneurolog-mr-dataset-acquisition.owl'
p1002
ag281
ag282
ag283
ag284
ag403
ag285
ag82
ag286
ag287
ag288
ag289
ag290
ag291
ag84
ag292
ag293
ag404
ag294
ag405
ag295
ag296
ag297
ag298
ag575
ag790
ag299
ag300
ag301
ag576
ag85
ag86
ag302
ag303
ag579
ag406
ag304
ag305
ag306
ag307
ag308
ag309
ag408
ag89
ag90
ag583
ag310
ag311
ag312
ag313
ag314
ag315
ag316
ag592
ag317
ag318
ag409
ag319
ag320
ag92
ag321
ag322
ag410
ag595
ag596
ag323
ag324
ag325
ag597
ag599
ag326
ag327
ag328
ag329
ag94
ag330
ag96
ag605
ag331
ag332
ag97
ag333
ag608
ag411
ag334
ag335
ag99
ag336
ag100
ag610
ag337
ag611
ag338
ag339
ag340
ag341
ag342
ag615
ag618
ag413
ag343
ag344
ag101
ag345
ag346
ag347
ag348
ag349
ag350
ag414
ag351
ag352
ag353
ag624
ag354
ag355
ag630
ag356
ag357
ag358
ag359
ag632
ag105
aS'ontoolcoleModel.owl'
p1003
ag360
ag415
ag361
ag990
ag362
ag363
ag364
ag365
ag366
ag106
ag417
ag367
ag368
ag638
ag369
ag370
ag371
ag372
ag418
ag373
ag374
ag375
asS'oboinowl:format-version'
p1004
(lp1005
g844
ag552
aS'eol_v4__collaboration.owl'
p1006
asS'wob:rdfdocument'
p1007
(lp1008
g428
asS'oboinowl:hasdate'
p1009
(lp1010
g716
aS'psimi_instance_edit.owl'
p1011
aS'ro_bfo_bridge.owl.1'
p1012
ag717
ag718
ag719
aS'psimi_instance_edit.owl.1'
p1013
asS'terms:date'
p1014
(lp1015
g524
asS'vs:term_status'
p1016
(lp1017
g55
asS'webprotege:revision'
p1018
(lp1019
g639
asS'dc:rights'
p1020
(lp1021
g13
ag457
ag64
ag383
ag385
ag66
ag479
ag388
ag69
ag14
ag492
ag73
ag512
ag15
ag905
ag395
ag527
ag528
ag16
aS'vto.owl'
p1022
ag546
ag80
ag943
ag401
ag17
ag83
ag575
ag577
ag87
ag578
ag579
ag18
ag595
ag597
ag95
ag608
ag610
ag614
ag615
ag616
ag413
ag620
ag19
ag102
ag103
ag626
ag104
ag633
ag107
asS'dc11:date'
p1023
(lp1024
S'ontology.owl'
p1025
aS'ontology1.owl'
p1026
asS'omvmmi:contactrole'
p1027
(lp1028
g121
ag122
ag123
ag125
ag128
ag129
ag133
ag134
ag138
ag139
ag141
ag142
ag143
ag146
ag147
ag148
ag153
ag155
ag157
ag158
ag159
ag160
ag163
ag164
ag165
ag167
ag174
ag175
ag176
ag179
ag180
ag182
ag183
ag184
ag187
ag189
ag190
ag191
ag194
ag197
ag198
ag200
ag206
ag209
ag215
ag218
ag219
ag220
ag221
ag227
ag231
ag236
ag240
ag242
ag250
ag252
ag253
ag256
ag259
ag262
ag265
ag269
ag272
ag273
ag275
ag276
ag280
ag282
ag284
ag285
ag288
ag289
ag290
ag294
ag296
ag297
ag299
ag305
ag306
ag307
ag308
ag311
ag316
ag317
ag319
ag320
ag322
ag324
ag325
ag332
ag333
ag336
ag338
ag343
ag344
ag346
ag347
ag349
ag351
ag353
ag354
ag355
ag359
ag363
ag366
ag372
ag375
asS'core:historynote'
p1029
(lp1030
g392
asS'nemo_annot:synonym'
p1031
(lp1032
g3
ag4
asS'dct:title'
p1033
(lp1034
g35
aS'ochv.owl'
p1035
asS'vann:preferrednamespaceuri'
p1036
(lp1037
g34
ag435
ag440
ag445
ag447
ag448
ag761
ag455
ag456
ag763
ag467
ag468
ag470
ag472
ag475
ag477
ag478
ag480
ag482
ag483
ag485
ag488
ag489
ag491
ag492
ag493
ag70
ag496
ag497
ag500
ag653
ag501
ag502
ag503
ag504
ag505
ag508
ag511
ag512
ag520
ag521
ag522
ag523
ag526
ag532
ag533
ag55
ag538
ag78
ag540
ag541
ag542
ag543
ag545
ag550
ag551
ag553
ag556
ag81
ag557
ag558
ag559
ag563
ag564
ag566
ag567
ag83
ag568
ag569
ag570
ag572
ag573
ag577
ag578
ag580
ag581
ag584
ag586
ag587
ag39
ag590
ag591
ag593
ag598
ag603
ag604
ag606
ag607
ag118
ag614
ag615
ag616
ag617
ag619
ag620
ag621
ag623
ag626
ag628
ag629
ag631
ag635
ag637
asS'omv:usedontologyengineeringtool'
p1038
(lp1039
g122
ag123
ag125
ag126
ag130
ag132
ag133
ag134
ag135
ag136
ag137
ag138
ag140
ag144
ag145
ag147
ag148
ag149
ag151
ag152
ag153
ag155
ag156
ag158
ag159
ag160
ag161
ag162
ag165
ag171
ag172
ag173
ag176
ag177
ag178
ag180
ag181
ag182
ag184
ag185
ag186
ag187
ag188
ag189
ag190
ag191
ag194
ag195
ag198
ag199
ag200
ag201
ag203
ag208
ag210
ag211
ag212
ag214
ag218
ag219
ag221
ag223
ag224
ag225
ag226
ag227
ag228
ag229
ag231
ag232
ag235
ag236
ag238
ag240
ag242
ag243
ag246
ag248
ag250
ag252
ag254
ag258
ag259
ag262
ag264
ag265
ag267
ag268
ag269
ag270
ag271
ag272
ag274
ag275
ag276
ag277
ag278
ag279
ag281
ag282
ag283
ag284
ag285
ag287
ag288
ag290
ag293
ag298
ag300
ag301
ag304
ag305
ag307
ag309
ag310
ag311
ag312
ag315
ag316
ag318
ag319
ag320
ag321
ag322
ag324
ag326
ag328
ag329
ag331
ag333
ag334
ag335
ag336
ag338
ag339
ag340
ag342
ag343
ag346
ag347
ag348
ag349
ag350
ag351
ag353
ag354
ag358
ag359
ag360
ag361
ag362
ag364
ag366
ag367
ag368
ag369
ag370
ag372
ag375
asS'terms:license'
p1040
(lp1041
g761
ag764
ag943
ag766
asS'dct:creator'
p1042
(lp1043
g34
ag35
ag911
ag1035
ag40
asS'vaem:hasaspectscope'
p1044
(lp1045
g13
ag14
ag15
ag16
ag17
ag18
ag19
asS'dc:modified'
p1046
(lp1047
g1025
ag64
ag486
ag1026
ag70
ag78
ag540
ag83
ag598
ag103
asS'vaem:usesnonimportedresource'
p1048
(lp1049
g13
ag14
ag15
ag16
ag17
ag18
ag19
asS'terms:rights'
p1050
(lp1051
g763
ag653
ag524
ag766
asS'owl:imports'
p1052
(lp1053
g378
ag433
aS'XCTontologyvtemp2.owl'
p1054
ag434
ag861
aS'Policy.owl'
p1055
ag831
ag437
aS'study_protocol.owl'
p1056
ag379
ag862
aS'geno.owl'
p1057
aS'stuff.owl'
p1058
ag444
aS'iriterms.owl'
p1059
ag130
ag60
ag61
ag446
ag132
aS'ParasiteExperimentOntology_111910_External.owl'
p1060
ag450
ag451
ag13
ag421
ag454
ag661
ag762
ag62
ag145
aS'timezone-ont.owl'
p1061
ag147
ag459
ag866
ag763
ag868
ag150
ag460
ag151
aS'OBO_Tools_1.1.1'
p1062
ag871
ag382
ag383
aS'1471-2105-9-S6-S11-S1.owl'
p1063
aS'obo-foundry-core-full-import.owl.1'
p1064
ag51
ag872
aS'General_Merchandise_2009_TSD_Chicago_Low_Plug_Load_50%_Energy_Savings'
p1065
ag463
ag465
ag385
ag386
aS'roboearth.owl'
p1066
aS'testOntology.owl'
p1067
ag469
aS'cl.owl'
p1068
aS'FreeTime.owl'
p1069
aS'ContextLanguage.owl'
p1070
aS'matrCompound.owl'
p1071
ag161
aS'generic.owl'
p1072
aS'General_Merchandise_2009_TSD_Chicago_Low_Plug_Load_Baseline'
p1073
ag473
ag162
aS'Stanford:SettingsXmlExample'
p1074
ag876
aS'opendaprdf.xml'
p1075
ag474
aS'OntoFood.owl'
p1076
aS'PHAGE-schema_1.0.owl'
p1077
aS'Tm-xml-wiki.org'
p1078
ag67
ag999
aS'File:Company-LISTedTECH-2014-10-20.xml'
p1079
ag479
aS'phylogenetic_methods.owl'
p1080
ag45
ag68
aS'ECGOntologyv1.owl'
p1081
ag481
aS'cedexAuxilliary.owl.1'
p1082
ag173
aS'go-plus.owl.crdownload.xml'
p1083
ag881
ag883
aS'sciUnits.owl'
p1084
aS'DQOntology.owl'
p1085
ag389
ag884
aS'phys.owl'
p1086
ag886
aS'pma.owl'
p1087
ag177
ag887
aS'ISO-15926-2_2003_annotations.xml'
p1088
ag180
ag182
ag183
ag892
ag1000
ag893
ag14
aS'Action.owl'
p1089
aS'DSOBar.owl'
p1090
ag487
aS'hyper_ontology.owl.2'
p1091
ag895
ag188
aS'a7_group78.owl.xml'
p1092
ag189
ag191
ag490
ag390
aS'mads-ontology-20101119.owl'
p1093
ag391
ag896
aS'HPI.owl'
p1094
aS'TemporalRelationsGFOMerged.owl'
p1095
ag494
aS'PrF_UG_files_xml_support'
p1096
ag70
aS'gfo-bio.owl'
p1097
aS'math.owl'
p1098
ag897
ag200
aS'Geography.owl'
p1099
aS'General_Merchandise_2009_TSD_Miami_Low_Plug_Load_Baseline'
p1100
ag653
aS'obo-foundry-core-full-import.owl.2'
p1101
ag71
ag428
aS'NPOntology01.owl'
p1102
aS'vertebrate-gross-anatomy.owl.1'
p1103
ag506
ag899
ag507
aS'biolPlant.owl'
p1104
ag213
aS'General_Merchandise_2009_TSD_Miami_High_Plug_Load_50%_Energy_Savings'
p1105
ag423
aS'chemState.owl'
p1106
aS'matrRockIgneous.owl'
p1107
aS'General_Merchandise_2009_TSD_Chicago_High_Plug_Load_50%_Energy_Savings'
p1108
ag901
ag902
aS'Grocery_2009_TSD_Chicago_Baseline'
p1109
aS'ooevv_odp_0.0.4.owl'
p1110
aS'FamilyHealthHistory.owl'
p1111
ag512
ag513
ag15
ag904
aS'Atom.owl'
p1112
aS'rosetta.owl'
p1113
aS'XML2OWL'
p1114
aS'omit.owl'
p1115
aS'TFBS.owl'
p1116
ag518
aS'Grocery_2009_TSD_Miami_Baseline'
p1117
ag519
ag392
aS'to1.owl'
p1118
ag76
aS'CoalitionPolicy.owl'
p1119
aS'Grocery_2009_TSD_Miami_50%_Energy_Savings'
p1120
ag227
ag228
ag908
aS'ec-odp.owl'
p1121
aS'InheritanceProfile.owl'
p1122
aS'datatype.owl'
p1123
ag909
ag77
ag1001
ag911
ag524
ag46
ag394
ag912
ag913
ag764
aS'obo-foundry-core.owl'
p1124
ag395
ag396
ag238
ag744
ag528
ag917
ag918
ag529
aS'ContextVocabulary.owl'
p1125
ag534
aS'CancerChemopreventionOntology.owl'
p1126
ag922
ag923
ag924
ag3
aS'General_Merchandise_2009_TSD_Chicago_High_Plug_Load_Baseline'
p1127
ag927
aS'MODS_RDF_Ontology.rdf'
p1128
ag928
ag78
ag16
aS'pizzas2_7.owl'
p1129
ag79
aS'Grocery_2009_TSD_Chicago_50%_Energy_Savings'
p1130
ag931
ag933
ag255
ag4
aS'BioPortalMetadata.owl'
p1131
aS'History.owl'
p1132
ag935
ag260
aS'Pr4_UG_rv_On_RDF_XML_rend'
p1133
ag802
aS'ntdo.owl'
p1134
ag47
ag834
aS'ip4.owl'
p1135
aS'InformationOntology.owl'
p1136
ag937
aS'ppo.owl'
p1137
ag549
ag268
aS'workflowOntology.owl'
p1138
aS'matrElement.owl'
p1139
aS'ro.owl'
p1140
aS'tagging_vocabulary.owl'
p1141
aS'Pr4_UG_rv_On_OWL_XML_rend'
p1142
ag940
ag36
aS'oo.owl'
p1143
ag401
ag48
ag944
aS'spaceDistribution.owl'
p1144
ag278
ag710
ag560
ag946
ag947
ag1002
aS'ActionStatus.owl'
p1145
aS'CogPO12142010.owl'
p1146
ag283
aS'behavior.owl'
p1147
ag17
aS'lipid-classification-service-ontology.owl'
p1148
ag82
ag948
ag949
ag287
aS'obo.owl.2'
p1149
aS'link-obo.owl'
p1150
ag950
aS'Delegation.owl'
p1151
ag951
ag953
ag404
aS'propChemical.owl'
p1152
ag711
ag571
aS'spaceDirection.owl'
p1153
aS'cedexMeta.owl'
p1154
aS'PVOnto-v0.1.owl'
p1155
ag28
aS'MyOntoServiceFull_FallDetection.owl'
p1156
ag954
ag298
ag576
aS'matrRock.owl'
p1157
ag577
aS'human.owl'
p1158
ag955
ag87
ag88
ag304
ag959
aS'CRMgeo_v1.0.owl'
p1159
ag306
aS'Entity.owl'
p1160
ag582
ag307
aS'food.owl'
p1161
ag408
ag89
aS'oba.owl'
p1162
ag90
ag960
ag961
ag22
ag588
ag719
aS'General_Merchandise_2009_TSD_Miami_Low_Plug_Load_50%_Energy_Savings'
p1163
ag962
aS'space.owl'
p1164
ag964
aS'General_Merchandise_2009_TSD_Miami_High_Plug_Load_Baseline'
p1165
ag314
ag315
aS'matrMineral.owl'
p1166
ag409
ag92
ag18
aS'obo-foundry-core.owl.1'
p1167
ag594
ag803
aS'Amigo.owl'
p1168
ag595
ag655
aS'ontology_12.owl'
p1169
ag656
ag596
aS'sweetAll.owl'
p1170
ag597
ag93
ag599
ag600
ag602
aS'matr1.owl'
p1171
ag96
aS'opmo-20101012.owl'
p1172
ag971
ag605
aS'Coalition.owl'
p1173
ag331
ag608
ag98
ag411
aS'iribib.owl'
p1174
ag99
ag100
ag804
ag610
aS'BFORO.owl'
p1175
aS'matrOrganicCompound.owl'
p1176
ag612
ag339
ag975
ag342
ag976
ag977
ag614
ag615
ag616
aS'Actor.owl'
p1177
ag618
ag413
ag838
aS'XML_Tab_1.0.1'
p1178
aS'SpatialRelationsBFOMerged.owl'
p1179
ag620
aS'vivo-core-public-1.5.owl'
p1180
aS'ADW_ontology.owl'
p1181
ag978
ag347
ag348
ag40
aS'aero.owl'
p1182
ag19
ag350
ag980
ag414
ag981
ag982
ag983
ag102
aS'iricrosswalk.owl.1'
p1183
aS'OBO_Tools'
p1184
ag984
aS'FunctionalParticipationGFO-basicMerged.owl'
p1185
aS'matrNaturalResource.owl'
p1186
ag355
aS'ProPreO-060506.owl'
p1187
aS'Ontobio_01072013.owl'
p1188
ag104
aS'Support_RM.owl'
p1189
aS'caad.3.0.rdf.owl'
p1190
aS'Group.owl'
p1191
ag989
aS'context-logic.owl.1'
p1192
ag105
aS'GlycO_0_9.owl'
p1193
aS'Pr4_UG_rp_View_OBO_Tools'
p1194
aS'aaaaa.owl'
p1195
ag415
ag633
ag361
ag990
ag991
aS'topology.owl'
p1196
ag362
ag364
ag993
aS'XML_Tab.1'
p1197
ag106
ag416
aS'ethernet.owl'
p1198
ag417
aS'biolAnimal.owl'
p1199
ag996
ag369
aS'AIDSClinic002 (1).owl'
p1200
ag107
ag640
ag841
asS'chmo:has_format-version'
p1201
(lp1202
S'chmo.owl'
p1203
asS'oboinowl:treat-xrefs-as-has-subclass'
p1204
(lp1205
g73
ag102
asS'cc:licence'
p1206
(lp1207
g87
asS'omvmmi:origvockeywords'
p1208
(lp1209
g123
ag133
ag138
ag139
ag142
ag146
ag148
ag160
ag175
ag176
ag184
ag197
ag215
ag219
ag253
ag256
ag259
ag265
ag273
ag280
ag288
ag353
ag363
asS'dcterms:title'
p1210
(lp1211
g435
ag440
ag445
ag447
ag448
ag455
ag456
ag467
ag468
ag470
ag472
ag475
ag477
ag478
ag480
ag482
ag483
ag485
ag488
ag489
ag491
ag493
ag496
ag497
ag500
ag501
ag502
ag503
ag504
ag505
ag508
ag511
ag520
ag521
ag522
ag523
ag526
ag532
ag533
ag55
ag538
ag541
ag542
ag543
ag116
ag545
ag550
ag551
ag553
ag556
ag557
ag558
ag559
ag563
ag564
ag566
ag567
ag568
ag569
ag570
ag572
ag573
ag580
ag581
ag584
ag586
ag587
ag590
ag591
ag593
ag117
ag603
ag604
ag606
ag607
ag118
ag617
ag619
ag621
ag623
ag628
ag629
ag631
ag635
ag637
asS'skos:definition'
p1212
(lp1213
g64
ag911
ag744
ag531
asS'title'
p1214
(lp1215
S'rddl.owl'
p1216
asS'obo_annot:createddate'
p1217
(lp1218
g378
ag463
ag465
ag390
ag392
ag412
asS'cpannotationschema:isspecializationof'
p1219
(lp1220
g46
asS'rdf:description'
p1221
(lp1222
g25
ag1112
ag616
asS'terms:publisher'
p1223
(lp1224
g763
ag766
asS'voaf:propertynumber'
p1225
(lp1226
g55
asS'dct:description'
p1227
(lp1228
g35
ag1035
ag40
asS'dcterms:rights'
p1229
(lp1230
g117
asS'omvmmi:origmaintainercode'
p1231
(lp1232
g121
ag122
ag123
ag124
ag125
ag126
ag127
ag128
ag129
ag130
ag131
ag132
ag133
ag134
ag135
ag136
ag137
ag138
ag139
ag140
ag141
ag142
ag143
ag144
ag145
ag146
ag147
ag148
ag149
ag150
ag151
ag152
ag153
ag154
ag155
ag156
ag157
ag158
ag159
ag160
ag161
ag162
ag163
ag164
ag165
ag166
ag167
ag168
ag169
ag170
ag171
ag172
ag173
ag174
ag175
ag176
ag177
ag178
ag179
ag180
ag181
ag182
ag183
ag184
ag185
ag186
ag187
ag188
ag189
ag190
ag191
ag192
ag193
ag194
ag195
ag196
ag197
ag198
ag199
ag200
ag201
ag202
ag203
ag204
ag205
ag206
ag207
ag208
ag209
ag210
ag211
ag212
ag213
ag214
ag215
ag216
ag217
ag218
ag219
ag220
ag221
ag222
ag223
ag224
ag225
ag226
ag227
ag228
ag229
ag230
ag231
ag232
ag233
ag234
ag235
ag236
ag237
ag238
ag239
ag240
ag241
ag242
ag243
ag244
ag245
ag246
ag247
ag248
ag249
ag250
ag251
ag252
ag253
ag254
ag255
ag256
ag257
ag258
ag259
ag260
ag261
ag262
ag263
ag264
ag265
ag266
ag267
ag268
ag269
ag270
ag271
ag272
ag273
ag274
ag275
ag276
ag277
ag278
ag279
ag280
ag281
ag282
ag283
ag284
ag285
ag286
ag287
ag288
ag289
ag290
ag291
ag292
ag293
ag294
ag295
ag296
ag297
ag298
ag299
ag300
ag301
ag302
ag303
ag304
ag305
ag306
ag307
ag308
ag309
ag310
ag311
ag312
ag313
ag314
ag315
ag316
ag317
ag318
ag319
ag320
ag321
ag322
ag323
ag324
ag325
ag326
ag327
ag328
ag329
ag330
ag331
ag332
ag333
ag334
ag335
ag336
ag337
ag338
ag339
ag340
ag341
ag342
ag343
ag344
ag345
ag346
ag347
ag348
ag349
ag350
ag351
ag352
ag353
ag354
ag355
ag356
ag357
ag358
ag359
ag360
ag361
ag362
ag363
ag364
ag365
ag366
ag367
ag368
ag369
ag370
ag371
ag372
ag373
ag374
ag375
asS'prov:has_provenance'
p1233
(lp1234
g116
asS'specializationof'
p1235
(lp1236
g839
asS'rdfs:isdefinedby'
p1237
(lp1238
g874
ag512
ag110
ag55
ag111
ag834
ag577
ag578
ag579
ag769
ag835
ag614
ag838
ag620
ag414
ag625
ag626
ag1196
asS'oboinowl:saved-by'
p1239
(lp1240
S'pato.owl'
p1241
ag737
aS'rex.owl'
p1242
aS'pro_reasoned.owl'
p1243
aS'spatial.owl'
p1244
ag1203
aS'WSIO_beta2.owl'
p1245
aS'rat_strain.owl'
p1246
aS'dicty_anatomy.owl'
p1247
ag51
aS'fypo.owl'
p1248
ag738
aS'go.owl'
p1249
ag1083
aS'zeco.owl'
p1250
aS'measurement_method.owl'
p1251
ag739
aS'wbls.owl'
p1252
aS'trans.owl'
p1253
aS'plant-environment-ontology.owl'
p1254
aS'wbbt.owl'
p1255
ag822
aS'wbphenotype.owl'
p1256
aS'symp1.owl'
p1257
ag1115
aS'tto.owl'
p1258
ag1118
ag740
ag52
aS'pw.owl'
p1259
aS'RackMultipart20131205-31518-15igbu5.owl'
p1260
aS'zfs.owl'
p1261
aS'dpo.owl'
p1262
aS'vario.owl'
p1263
ag844
ag552
ag80
aS'experimental_condition.owl'
p1264
ag1006
aS'omp.owl'
p1265
aS'rs.owl'
p1266
ag1162
aS'so.owl'
p1267
aS'xco.owl'
p1268
aS'bila.owl'
p1269
ag741
aS'eco.owl'
p1270
aS'plant-environment-ontology.obo.owl'
p1271
asS'comment'
p1272
(lp1273
g469
asS'oboinowl:hasdefaultnamespace'
p1274
(lp1275
g716
ag1011
ag1012
ag717
ag718
ag719
ag1013
asS'wasrevisionof'
p1276
(lp1277
g839
asS'edamontology1:next_id'
p1278
(lp1279
g111
asS'oboinowl:hasversion'
p1280
(lp1281
S'FunctionalParticipationBFOMappings.owl'
p1282
asS'vann:preferrednamespaceprefix'
p1283
(lp1284
g34
ag435
ag440
ag445
ag447
ag448
ag761
ag455
ag456
ag763
ag467
ag468
ag470
ag472
ag475
ag477
ag478
ag480
ag482
ag483
ag485
ag488
ag489
ag491
ag492
ag493
ag70
ag496
ag497
ag500
ag653
ag501
ag502
ag503
ag504
ag505
ag508
ag511
ag512
ag520
ag521
ag522
ag523
ag524
ag526
ag532
ag533
ag55
ag538
ag78
ag540
ag541
ag542
ag543
ag545
ag550
ag551
ag553
ag556
ag81
ag557
ag558
ag559
ag563
ag564
ag566
ag567
ag83
ag568
ag569
ag570
ag572
ag573
ag577
ag87
ag578
ag579
ag580
ag581
ag584
ag586
ag587
ag39
ag590
ag591
ag593
ag598
ag603
ag604
ag606
ag607
ag608
ag118
ag614
ag615
ag616
ag617
ag619
ag620
ag621
ag40
ag623
ag626
ag628
ag629
ag631
ag635
ag637
asS'vaem:datecreated'
p1285
(lp1286
g13
ag14
ag15
ag16
ag17
ag18
ag19
asS'rdfs:domain'
p1287
(lp1288
g25
asS'dcterms:status'
p1289
(lp1290
g435
ag440
ag445
ag447
ag448
ag455
ag456
ag467
ag468
ag470
ag472
ag475
ag477
ag478
ag480
ag482
ag483
ag485
ag488
ag489
ag491
ag493
ag496
ag497
ag500
ag501
ag502
ag503
ag504
ag505
ag508
ag511
ag520
ag521
ag522
ag523
ag526
ag532
ag533
ag538
ag541
ag542
ag543
ag545
ag550
ag551
ag553
ag556
ag557
ag558
ag559
ag563
ag564
ag566
ag567
ag568
ag569
ag570
ag572
ag573
ag580
ag581
ag584
ag586
ag587
ag590
ag591
ag593
ag603
ag604
ag606
ag607
ag617
ag619
ag621
ag623
ag628
ag629
ag631
ag635
ag637
asS'dcat:landingpage'
p1291
(lp1292
g91
ag93
asS'j.0:editorialnote'
p1293
(lp1294
g28
asS'cpannotationschema:relatedcps'
p1295
(lp1296
g46
ag802
ag803
ag804
asS'dct:date'
p1297
(lp1298
g911
ag616
ag40
asS'foaf:primarytopic'
p1299
(lp1300
g653
asS'dct:publisher'
p1301
(lp1302
g34
asS'skos:preflabel'
p1303
(lp1304
g64
ag911
ag744
ag565
ag91
ag93
asS'skos:historynote'
p1305
(lp1306
g87
asS'dcterms:publisher'
p1307
(lp1308
g435
ag440
ag445
ag448
ag456
ag467
ag468
ag470
ag475
ag478
ag480
ag482
ag114
ag488
ag489
ag491
ag496
ag500
ag501
ag503
ag505
ag508
ag511
ag520
ag521
ag522
ag526
ag532
ag533
ag55
ag538
ag541
ag542
ag116
ag553
ag556
ag557
ag559
ag563
ag564
ag566
ag568
ag569
ag570
ag572
ag573
ag580
ag581
ag586
ag587
ag590
ag591
ag593
ag117
ag603
ag604
ag606
ag607
ag118
ag617
ag621
ag628
ag629
ag635
asS'dc:source'
p1309
(lp1310
g121
ag122
ag123
ag125
ag128
ag133
ag138
ag139
ag142
ag143
ag146
ag148
ag153
ag159
ag160
ag163
ag164
ag31
ag165
ag69
ag175
ag176
ag179
ag422
ag183
ag184
ag194
ag197
ag206
ag209
ag73
ag215
ag219
ag220
ag221
ag230
ag232
ag239
ag529
ag253
ag934
ag256
ag259
ag262
ag265
ag266
ag267
ag269
ag1140
ag273
ag80
ag275
ag276
ag282
ag284
ag288
ag290
ag84
ag296
ag297
aS'cmpo.owl'
p1311
ag88
ag308
ag311
ag595
ag324
ag325
ag95
ag332
ag335
ag344
ag102
ag353
ag357
ag360
ag363
ag365
ag366
ag367
ag370
asS'omvmmi:origvocversionid'
p1312
(lp1313
g139
ag142
ag163
ag194
ag220
ag253
ag262
ag273
ag276
ag280
ag282
ag290
ag305
ag308
ag316
ag324
asS'dct:available'
p1314
(lp1315
g34
asS'obo:remark'
p1316
(lp1317
g111
asS'rdfs:label'
p1318
(lp1319
g1025
ag862
ag716
ag61
ag761
ag451
ag13
ag25
ag863
ag866
ag63
ag763
aS'RackMultipart20131119-17178-uc75i6.xml'
p1320
ag662
ag871
ag383
ag1012
ag385
ag873
ag1071
ag874
ag717
ag878
ag388
ag69
aS'PoliticianStateOntology_03.owl'
p1321
ag886
aS'networkA.owl'
p1322
ag799
ag892
ag14
ag114
ag1026
ag895
ag492
ag896
ag494
ag898
ag71
ag428
ag74
ag899
ag211
ag75
ag1107
ag901
ag902
ag15
ag904
ag906
ag519
ag908
ag1121
ag909
ag913
ag115
ag665
ag917
ag529
ag398
ag534
ag922
ag923
ag924
ag16
ag79
ag932
ag933
ag544
ag116
ag802
ag47
ag547
aS'ontologie_toxnuc_20140817.owl'
p1323
ag834
ag937
ag1137
ag1139
ag667
ag36
ag942
ag80
aS'rdfcache.owl.1'
p1324
ag668
ag81
ag48
ag944
ag718
ag945
ag562
ag947
ag17
aS'oboInOwl.owl'
p1325
ag83
ag953
ag1152
ag954
ag790
ag85
ag86
ag1157
ag1158
aS'carads.owl'
p1326
ag1311
ag956
ag669
ag670
ag671
ag22
ag39
ag719
ag962
ag589
ag964
ag1166
ag835
ag91
ag18
ag803
ag595
ag655
ag656
ag1170
ag325
ag93
ag600
ag1171
ag94
aS'ds1.owl'
p1327
ag970
ag1172
ag971
ag97
ag972
ag118
ag837
ag1176
ag612
ag838
ag101
ag1180
ag978
ag40
ag19
ag980
ag981
ag982
ag1186
ag839
aS'RackMultipart20131119-17178-uc75i6.owl'
p1328
ag672
ag989
ag990
ag991
ag634
ag673
ag674
ag840
ag639
asS'obo_annot:modifieddate'
p1329
(lp1330
g378
ag463
ag465
ag390
ag392
ag412
asS'voaf:metadatavoc'
p1331
(lp1332
g55
asS'dcterms:format'
p1333
(lp1334
g116
asS'foaf:isprimarytopicof'
p1335
(lp1336
g116
asS'dc11:created'
p1337
(lp1338
g1025
ag1026
asS'obo:comment'
p1339
(lp1340
g896
asS'omvmmi:origvocdocumentationuri'
p1341
(lp1342
g123
ag125
ag133
ag138
ag139
ag142
ag146
ag148
ag155
ag159
ag160
ag163
ag175
ag176
ag183
ag184
ag187
ag194
ag197
ag215
ag219
ag220
ag253
ag256
ag259
ag262
ag265
ag273
ag275
ag276
ag282
ag288
ag290
ag296
ag311
ag325
ag353
ag359
ag363
ag375
asS'ns0:defaultlanguage'
p1343
(lp1344
g512
ag577
ag578
ag614
ag620
ag626
asS'dcterms:partof'
p1345
(lp1346
g435
ag440
ag445
ag447
ag448
ag455
ag456
ag467
ag468
ag470
ag472
ag475
ag477
ag478
ag480
ag482
ag483
ag485
ag488
ag489
ag491
ag493
ag496
ag497
ag500
ag501
ag502
ag503
ag504
ag505
ag508
ag511
ag520
ag521
ag522
ag523
ag526
ag532
ag533
ag538
ag541
ag542
ag543
ag545
ag550
ag551
ag553
ag556
ag557
ag558
ag559
ag563
ag564
ag566
ag567
ag568
ag569
ag570
ag572
ag573
ag580
ag581
ag584
ag586
ag587
ag590
ag591
ag593
ag603
ag604
ag606
ag607
ag617
ag619
ag621
ag623
ag628
ag629
ag631
ag635
ag637
asS'dc11:publisher'
p1347
(lp1348
g1025
ag1026
asS'foaf:organization'
p1349
(lp1350
g114
ag55
ag78
ag118
asS'oboother:default-relationship-id-prefix'
p1351
(lp1352
g625
asS'owl:incompatiblewith'
p1353
(lp1354
g906
ag3
ag4
ag116
asS'dcterms:language'
p1355
(lp1356
g116
asS'meta:bookmark'
p1357
(lp1358
g76
asS'oboinowl:subset'
p1359
(lp1360
g716
ag717
ag718
asS'dct:source'
p1361
(lp1362
g908
asS'dcterms:license'
p1363
(lp1364
g383
ag385
ag388
ag115
ag544
ag116
ag93
ag117
asS'relationship:idspace'
p1365
(lp1366
g552
asS'tool'
p1367
(lp1368
g211
asS'void:datadump'
p1369
(lp1370
g382
asS'owl:class'
p1371
(lp1372
g25
asS'oboother:remark'
p1373
(lp1374
g625
asS'dce:creator'
p1375
(lp1376
g744
asS'j.0:organization'
p1377
(lp1378
g81
asS'terms:title'
p1379
(lp1380
g761
ag762
ag763
ag653
ag524
ag765
ag766
asS'obo:format-version'
p1381
(lp1382
S'Exo-CSEOv1.2_BFO_FINAL_merged_2.owl'
p1383
ag943
asS'dc:license'
p1384
(lp1385
g433
ag379
ag450
ag451
ag459
ag464
ag386
ag1068
ag387
ag902
ag511
ag517
ag393
ag396
ag529
ag399
ag934
ag648
ag555
ag402
ag561
ag946
ag404
ag405
ag579
ag406
ag407
ag769
ag599
ag414
ag990
asS'foaf:homepage'
p1386
(lp1387
g435
ag440
ag379
ag445
ag447
ag448
ag455
ag456
ag467
ag468
ag470
ag472
ag475
ag477
ag478
ag480
ag482
ag483
ag485
ag488
ag489
ag491
ag493
ag496
ag497
ag500
ag501
ag502
ag503
ag504
ag505
ag73
ag508
ag511
ag520
ag521
ag522
ag523
ag524
ag526
ag529
ag532
ag533
ag538
ag541
ag542
ag543
ag116
ag545
ag1140
ag550
ag551
ag553
ag555
ag556
ag557
ag558
ag559
ag563
ag564
ag566
ag567
ag568
ag404
ag569
ag570
ag572
ag573
ag580
ag581
ag582
ag769
ag584
ag586
ag587
ag39
ag590
ag591
ag593
ag603
ag604
ag606
ag607
ag617
ag619
ag621
ag414
ag623
ag102
ag628
ag629
ag631
ag635
ag637
asS'technical_support'
p1388
(lp1389
g772
asS'omv:description'
p1390
(lp1391
g121
ag122
ag123
ag124
ag125
ag126
ag127
ag128
ag129
ag130
ag131
ag132
ag133
ag134
ag135
ag136
ag137
ag138
ag139
ag140
ag141
ag142
ag143
ag144
ag145
ag146
ag147
ag148
ag149
ag150
ag151
ag152
ag153
ag154
ag155
ag156
ag157
ag158
ag159
ag160
ag161
ag162
ag163
ag164
ag165
ag166
ag167
ag168
ag169
ag170
ag171
ag172
ag173
ag174
ag175
ag176
ag177
ag178
ag179
ag180
ag181
ag182
ag183
ag184
ag185
ag186
ag187
ag188
ag189
ag190
ag191
ag192
ag193
ag194
ag195
ag196
ag197
ag198
ag199
ag200
ag201
ag202
ag203
ag204
ag205
ag206
ag207
ag208
ag209
ag210
ag211
ag212
ag213
ag214
ag215
ag216
ag217
ag218
ag219
ag220
ag221
ag222
ag223
ag224
ag225
ag226
ag227
ag228
ag229
ag230
ag231
ag232
ag233
ag234
ag235
ag236
ag237
ag238
ag239
ag240
ag241
ag242
ag243
ag244
ag245
ag246
ag247
ag248
ag249
ag250
ag251
ag252
ag253
ag254
ag255
ag256
ag257
ag258
ag259
ag260
ag261
ag262
ag263
ag264
ag265
ag266
ag267
ag268
ag269
ag270
ag271
ag272
ag273
ag274
ag275
ag276
ag277
ag278
ag279
ag280
ag281
ag282
ag283
ag284
ag285
ag286
ag287
ag288
ag289
ag290
ag291
ag292
ag293
ag294
ag295
ag296
ag297
ag298
ag299
ag300
ag301
ag302
ag303
ag304
ag305
ag306
ag307
ag308
ag309
ag310
ag311
ag312
ag313
ag314
ag315
ag316
ag317
ag318
ag319
ag320
ag321
ag322
ag323
ag324
ag325
ag326
ag327
ag328
ag329
ag330
ag331
ag332
ag333
ag334
ag335
ag336
ag337
ag338
ag339
ag340
ag341
ag342
ag343
ag344
ag345
ag346
ag347
ag348
ag349
ag350
ag351
ag352
ag353
ag354
ag355
ag356
ag357
ag358
ag359
ag360
ag361
ag362
ag363
ag364
ag365
ag366
ag367
ag368
ag369
ag370
ag371
ag372
ag373
ag374
ag375
asS'vaem:hasdomainscope'
p1392
(lp1393
g13
ag14
ag15
ag16
ag17
ag18
ag19
asS'doap:mailing-list'
p1394
(lp1395
g73
ag102
asS'cpannotationschema:hasunittest'
p1396
(lp1397
g46
asS'oboinowl:comment'
p1398
(lp1399
g552
asS'voaf:specializes'
p1400
(lp1401
g55
asS'terms:isreferencedby'
p1402
(lp1403
g73
ag102
asS'owl:versioniri'
p1404
(lp1405
g1241
ag34
ag736
ag1242
ag13
ag1243
ag762
ag1203
ag1245
ag1246
ag381
ag64
ag51
ag1068
ag1248
aS'sibo.owl'
p1406
ag473
ag738
ag1249
aS'rxno.owl'
p1407
ag878
ag1083
ag1251
ag739
ag1252
ag1253
ag14
ag1255
ag822
aS'cio.owl'
p1408
ag73
ag1256
ag1257
ag512
aS'envo.owl'
p1409
ag15
ag515
ag1115
ag517
ag1118
ag740
ag1259
ag524
aS'plana.owl'
p1410
ag914
ag764
ag1261
aS'neuDIGs.rdf'
p1411
ag529
aS'agro.owl'
p1412
ag1262
ag16
ag934
ag1263
aS'olatdv.owl'
p1413
ag116
ag1022
ag549
ag1140
ag648
ag555
ag401
ag1264
ag1147
ag17
ag1265
ag1266
ag577
ag1311
ag578
ag579
ag406
ag407
ag582
ag769
ag1267
ag1268
ag18
ag1269
ag741
ag1270
ag117
aS'PxOmetazoa.owl.crdownload.xml'
p1414
ag608
ag611
ag614
ag616
ag620
aS'pdumdv.owl'
p1415
ag772
ag19
ag102
ag626
ag627
ag839
ag990
ag993
aS'lifestyle.owl'
p1416
aS'taxrank1.owl'
p1417
asS'dce:subject'
p1418
(lp1419
g744
asS'cpannotationschema:scenarios'
p1420
(lp1421
g519
ag46
ag802
ag48
ag803
ag804
asS'cpannotationschema:extractedfrom'
p1422
(lp1423
g45
ag802
ag47
ag48
ag803
ag804
asS'oboinowl:date'
p1424
(lp1425
g1241
ag736
ag737
ag1242
ag1243
ag1244
ag1245
ag1246
ag817
ag1247
ag1248
ag738
ag1249
aS'gene_ontology_ext.owl'
p1426
ag1083
ag1250
ag1251
ag739
ag1252
ag1253
ag1254
ag1255
ag822
aS'upheno.owl'
p1427
ag1256
ag1257
ag1115
ag1258
ag740
ag52
ag1259
ag1260
ag1261
ag1262
ag1263
ag844
ag80
ag1264
ag1006
ag1265
ag1266
ag1162
ag1267
ag1268
ag1269
ag741
ag1270
ag1271
asS'owl:backwardcompatiblewith'
p1428
(lp1429
g116
ag615
asS'omvmmi:hasresourcetype'
p1430
(lp1431
g122
ag124
ag125
ag126
ag128
ag129
ag130
ag132
ag133
ag134
ag135
ag136
ag137
ag138
ag139
ag140
ag142
ag144
ag145
ag146
ag147
ag148
ag149
ag150
ag151
ag152
ag153
ag155
ag156
ag158
ag159
ag160
ag161
ag162
ag164
ag165
ag171
ag172
ag173
ag175
ag177
ag178
ag180
ag181
ag182
ag185
ag186
ag187
ag188
ag189
ag190
ag191
ag194
ag195
ag196
ag197
ag198
ag199
ag200
ag201
ag203
ag208
ag209
ag210
ag211
ag212
ag214
ag215
ag218
ag219
ag220
ag223
ag224
ag225
ag226
ag227
ag228
ag229
ag231
ag232
ag235
ag236
ag238
ag239
ag240
ag242
ag243
ag244
ag246
ag248
ag249
ag250
ag252
ag253
ag254
ag255
ag256
ag258
ag260
ag262
ag264
ag265
ag266
ag267
ag268
ag269
ag270
ag271
ag272
ag273
ag274
ag275
ag276
ag277
ag278
ag279
ag281
ag282
ag283
ag284
ag285
ag287
ag288
ag289
ag290
ag293
ag296
ag297
ag298
ag300
ag301
ag303
ag304
ag305
ag306
ag307
ag308
ag310
ag311
ag312
ag314
ag315
ag316
ag318
ag319
ag320
ag321
ag324
ag325
ag328
ag329
ag330
ag331
ag333
ag334
ag335
ag336
ag338
ag339
ag340
ag341
ag342
ag343
ag346
ag347
ag348
ag349
ag350
ag351
ag353
ag354
ag356
ag358
ag359
ag360
ag361
ag362
ag363
ag364
ag365
ag366
ag367
ag368
ag369
ag370
ag372
ag374
ag375
asS'terms:identifier'
p1432
(lp1433
g512
ag577
ag578
ag614
ag620
ag626
asS'dcterms:lastmodified'
p1434
(lp1435
g544
asS'obo:iao_0000117'
p1436
(lp1437
g1411
asS'obo:iao_0000116'
p1438
(lp1439
g380
ag384
ag386
ag387
ag517
ag393
ag400
ag769
ag611
ag417
asS'omvmmi:contact'
p1440
(lp1441
g121
ag122
ag123
ag125
ag128
ag129
ag133
ag134
ag138
ag139
ag140
ag141
ag142
ag143
ag146
ag148
ag152
ag155
ag157
ag159
ag160
ag163
ag164
ag167
ag174
ag175
ag176
ag179
ag180
ag183
ag184
ag187
ag189
ag190
ag194
ag197
ag198
ag206
ag209
ag215
ag219
ag220
ag221
ag224
ag225
ag227
ag240
ag242
ag250
ag252
ag253
ag256
ag259
ag262
ag264
ag265
ag269
ag272
ag273
ag275
ag276
ag280
ag282
ag284
ag285
ag288
ag289
ag290
ag294
ag296
ag297
ag299
ag300
ag304
ag305
ag306
ag307
ag308
ag311
ag315
ag316
ag317
ag319
ag320
ag322
ag325
ag329
ag332
ag338
ag343
ag344
ag353
ag354
ag355
ag359
ag362
ag363
ag366
ag369
ag372
ag375
asS'omvmmi:origvocmanager'
p1442
(lp1443
g121
ag122
ag123
ag125
ag128
ag129
ag133
ag138
ag139
ag141
ag142
ag146
ag147
ag148
ag153
ag155
ag157
ag159
ag160
ag163
ag165
ag167
ag174
ag175
ag176
ag178
ag180
ag182
ag183
ag184
ag187
ag189
ag190
ag191
ag194
ag198
ag200
ag206
ag207
ag209
ag215
ag218
ag219
ag220
ag221
ag225
ag227
ag230
ag231
ag233
ag236
ag240
ag242
ag250
ag252
ag253
ag256
ag259
ag262
ag265
ag266
ag269
ag272
ag273
ag275
ag276
ag280
ag282
ag284
ag285
ag288
ag289
ag290
ag294
ag296
ag297
ag304
ag305
ag306
ag307
ag308
ag311
ag315
ag316
ag317
ag319
ag320
ag322
ag324
ag332
ag333
ag336
ag338
ag343
ag346
ag347
ag349
ag351
ag353
ag354
ag355
ag359
ag360
ag362
ag363
ag366
ag369
ag372
ag375
asS'vaem:hasrole'
p1444
(lp1445
g13
ag14
ag15
ag16
ag17
ag18
ag19
asS'omv:acronym'
p1446
(lp1447
g121
ag122
ag123
ag124
ag125
ag126
ag127
ag128
ag129
ag130
ag131
ag132
ag133
ag134
ag135
ag136
ag137
ag138
ag139
ag140
ag141
ag142
ag143
ag144
ag145
ag146
ag147
ag148
ag149
ag150
ag151
ag152
ag153
ag154
ag155
ag156
ag157
ag158
ag159
ag160
ag161
ag162
ag163
ag164
ag165
ag166
ag167
ag168
ag169
ag170
ag171
ag172
ag173
ag174
ag175
ag176
ag177
ag178
ag179
ag180
ag181
ag182
ag183
ag184
ag185
ag186
ag187
ag188
ag189
ag190
ag191
ag192
ag193
ag194
ag195
ag196
ag197
ag198
ag199
ag200
ag201
ag202
ag203
ag204
ag205
ag206
ag207
ag208
ag209
ag210
ag211
ag212
ag213
ag214
ag215
ag216
ag217
ag218
ag219
ag220
ag221
ag222
ag223
ag224
ag225
ag226
ag227
ag228
ag229
ag230
ag231
ag232
ag233
ag234
ag235
ag236
ag237
ag238
ag239
ag240
ag241
ag242
ag243
ag244
ag245
ag246
ag247
ag248
ag249
ag250
ag251
ag252
ag253
ag254
ag255
ag256
ag257
ag258
ag259
ag260
ag261
ag262
ag263
ag264
ag265
ag266
ag267
ag268
ag269
ag270
ag271
ag272
ag273
ag274
ag275
ag276
ag277
ag278
ag279
ag280
ag281
ag282
ag283
ag284
ag285
ag286
ag287
ag288
ag289
ag290
ag291
ag292
ag293
ag294
ag295
ag296
ag297
ag298
ag299
ag300
ag301
ag302
ag303
ag304
ag305
ag306
ag307
ag308
ag309
ag310
ag311
ag312
ag313
ag314
ag315
ag316
ag317
ag318
ag319
ag320
ag321
ag322
ag323
ag324
ag325
ag326
ag327
ag328
ag329
ag330
ag331
ag332
ag333
ag334
ag335
ag336
ag337
ag338
ag339
ag340
ag341
ag342
ag343
ag344
ag345
ag346
ag347
ag348
ag349
ag350
ag351
ag352
ag353
ag354
ag355
ag356
ag357
ag358
ag359
ag360
ag361
ag362
ag363
ag364
ag365
ag366
ag367
ag368
ag369
ag370
ag371
ag372
ag373
ag374
ag375
asS'acetext:acetext'
p1448
(lp1449
g66
asS'vaem:intent'
p1450
(lp1451
g13
ag14
ag19
asS'rdfs:comment'
p1452
(lp1453
g433
ag434
ag861
ag1055
ag34
ag831
ag437
ag1056
ag438
ag379
ag862
ag1057
ag441
ag716
ag442
ag443
ag1058
aS'SensorOntology20090320.owl.xml'
p1454
ag1059
ag61
ag446
ag1011
ag450
ag451
ag1242
ag1243
ag25
ag421
ag1244
aS'out15.owl'
p1455
ag762
aS'ReiPolicy.owl'
p1456
ag457
ag863
ag864
ag865
ag1061
ag459
ag866
ag63
ag763
ag867
ag869
ag1245
ag1320
ag870
ag871
aS'CoDAMoS_context.owl'
p1457
ag381
ag64
ag462
ag383
ag1012
ag872
ag463
ag465
ag466
ag385
ag1066
ag833
ag873
ag1068
ag1248
ag874
ag875
ag876
ag474
ag476
ag1249
ag877
aS'OntoWAWO+.owl'
p1458
ag1426
ag479
ag717
ag878
ag388
ag481
ag879
ag880
aS'statistics.owl'
p1459
ag1083
ag881
ag882
ag883
aS'OntoKBCF1301new.owl'
p1460
aS'terms.rdf'
p1461
ag884
ag885
ag886
ag887
ag1088
aS'family.owl'
p1462
ag1322
ag799
ag888
ag1252
ag890
ag1089
ag487
ag894
aS'BFOROGFO-basicMappings.owl'
p1463
ag895
aS'collections.owl.16'
p1464
ag1255
ag492
ag896
ag1095
ag494
ag1097
ag495
ag498
ag499
ag897
ag898
ag428
ag1103
ag506
ag73
ag74
aS'STO.owl'
p1465
ag899
ag507
ag75
ag423
ag509
ag901
ag902
aS'Normalisation-demo-hormones-01-01.owl'
p1466
ag510
ag513
ag1409
ag904
ag514
ag1112
ag515
ag906
ag1115
ag517
aS'KB_Bio_101.owl'
p1467
ag1258
ag518
ag519
ag907
ag76
ag1121
ag1122
ag909
ag910
ag46
ag913
ag914
ag764
ag395
ag396
ag115
ag916
ag528
ag917
ag918
ag919
ag529
ag530
ag398
ag921
ag534
ag535
ag922
ag923
ag1412
ag924
ag537
ag925
aS'leo.owl'
p1468
ag928
ag78
ag929
ag1262
aS'TemporalRelationsGFO-basicMappings.owl'
p1469
ag930
ag79
ag931
ag932
ag933
ag934
ag1263
ag544
ag1413
ag116
ag935
ag111
ag936
ag802
ag547
ag1323
ag834
aS'biopax-level2.owl'
p1470
ag937
ag548
ag1282
ag549
ag1140
ag554
ag940
ag941
ag648
ag36
ag942
ag555
ag80
ag1324
ag943
aS'functions.owl.2'
p1471
aS'Breast cell line ontology.owl'
p1472
ag654
ag944
aS'DebianDpkgDist.owl'
p1473
ag718
ag561
ag945
ag946
ag562
ag947
ag1145
ag948
ag1325
ag949
ag1149
ag289
ag951
ag84
ag952
ag953
ag787
ag711
ag571
aS'biopax-level3.owl'
p1474
ag574
ag1265
ag954
ag575
ag576
ag85
ag86
ag955
ag1326
ag956
ag957
ag579
ag406
ag959
ag1160
ag769
ag1161
ag1162
ag960
aS'food1.owl'
p1475
ag585
aS'contacts'
p1476
ag22
aS'bca00030.owl'
p1477
ag39
ag588
ag719
ag962
ag963
ag965
ag966
ag835
ag594
ag741
ag595
ag655
ag968
ag656
ag596
ag969
ag325
ag597
ag598
ag1270
ag600
ag601
aS'obo.owl.1'
p1478
aS'study_design.owl'
p1479
ag94
ag330
ag1327
ag970
ag971
ag97
ag1414
ag972
ag608
ag411
ag1174
ag118
ag609
aS'venom_ontology.xml'
p1480
ag836
ag837
ag974
ag804
ag610
ag1175
ag611
ag612
ag613
aS'SpatialRelationsBFOMappings.owl'
p1481
ag1013
ag975
ag976
ag615
ag616
ag1177
ag618
ag413
ag838
ag1179
ag101
ag978
ag1415
ag622
ag772
ag1182
ag980
ag981
ag982
ag983
ag102
ag103
ag984
ag1185
ag985
ag839
aS'skeleton.owl'
p1482
ag986
ag987
ag1328
ag104
ag1189
ag672
ag1191
ag989
aS'citygml2.0.owl'
p1483
ag1195
ag415
ag633
ag990
ag991
ag992
ag1196
ag993
ag636
ag994
ag995
ag7
ag1417
ag996
ag840
ag639
ag640
asS'oboinowl:hasoboformatversion'
p1484
(lp1485
g1241
ag736
ag737
ag1242
ag1243
ag1244
ag1203
ag1245
ag1246
ag817
aS'NMOSp.owl'
p1486
ag1247
ag51
ag1248
ag738
ag1249
ag1426
ag1407
ag1083
ag1250
ag1251
ag739
ag1252
ag1253
ag1254
ag1255
ag822
ag1427
ag1408
ag1256
ag1257
ag1115
ag1258
ag1118
ag740
ag52
ag1259
ag1260
ag1410
ag1261
ag1262
ag1263
ag1413
ag1264
ag1265
ag1266
aS'OntoBiootope_BioNLP-ST-2016.owl'
p1487
ag1162
ag1267
ag1268
ag1269
ag741
ag1270
ag1415
ag1271
ag1417
asS'terms:modified'
p1488
(lp1489
g763
ag492
ag653
ag512
ag577
ag578
ag614
ag620
ag626
asS'omv:version'
p1490
(lp1491
g122
ag124
ag125
ag126
ag129
ag130
ag132
ag133
ag134
ag135
ag137
ag138
ag139
ag140
ag142
ag144
ag145
ag146
ag147
ag148
ag149
ag151
ag152
ag155
ag156
ag159
ag160
ag161
ag162
ag172
ag173
ag175
ag177
ag178
ag180
ag182
ag186
ag187
ag188
ag189
ag190
ag191
ag194
ag197
ag198
ag199
ag200
ag201
ag203
ag208
ag211
ag215
ag218
ag219
ag220
ag224
ag225
ag227
ag228
ag229
ag231
ag235
ag236
ag238
ag240
ag242
ag243
ag244
ag249
ag250
ag252
ag253
ag254
ag256
ag258
ag262
ag264
ag265
ag268
ag269
ag270
ag271
ag272
ag273
ag274
ag275
ag278
ag279
ag281
ag282
ag283
ag284
ag285
ag287
ag288
ag289
ag290
ag293
ag296
ag298
ag300
ag301
ag303
ag304
ag305
ag307
ag310
ag311
ag312
ag315
ag316
ag318
ag319
ag320
ag321
ag324
ag329
ag330
ag331
ag333
ag334
ag336
ag338
ag339
ag340
ag341
ag342
ag343
ag346
ag347
ag348
ag349
ag350
ag351
ag353
ag354
ag358
ag359
ag361
ag362
ag363
ag364
ag365
ag366
ag367
ag368
ag369
ag372
ag374
ag375
asS'voag:hascatalogentry'
p1492
(lp1493
g14
ag15
ag17
ag18
ag19
asS'prism:doi'
p1494
(lp1495
g91
ag93
asS'oboinowl:treat-xrefs-as-is_a'
p1496
(lp1497
g51
ag73
ag52
ag102
asS'dc:title'
p1498
(lp1499
g378
ag433
ag434
ag128
ag34
ag436
ag437
ag439
ag379
ag444
ag60
ag61
ag446
ag449
ag13
ag421
ag454
ag661
ag457
ag62
ag63
ag380
ag64
ag382
ag383
ag384
ag832
ag463
ag465
ag385
ag386
ag469
ag66
ag163
ag164
ag31
ag166
ag67
ag476
ag387
aS'Skin Physiology Ontology 2.0.owl'
p1500
ag168
ag479
ag68
ag878
ag388
ag1083
ag69
ag1461
ag389
ag885
ag484
ag179
ag422
ag14
ag490
ag390
ag192
ag391
ag492
ag896
ag494
ag70
ag897
ag71
ag72
ag209
ag73
ag74
ag75
ag423
ag217
ag512
ag15
ag518
ag392
ag76
ag393
ag77
ag233
ag234
ag525
ag394
ag395
ag396
ag237
ag527
ag239
ag528
ag110
ag397
ag531
ag244
ag398
ag537
ag399
ag539
ag78
ag400
ag540
ag79
ag934
ag544
ag111
ag546
ag266
ag1140
ag939
ag80
ag401
ag81
ag402
ag710
ag560
ag17
ag403
ag82
ag83
ag84
ag404
ag711
ag405
ag28
ag296
ag297
ag575
ag790
ag85
ag86
ag577
ag87
ag88
ag578
ag579
ag406
ag407
ag582
ag308
ag1161
ag408
ag89
ag90
ag583
ag588
ag592
ag409
ag92
ag18
ag594
ag410
ag596
ag597
ag598
ag94
ag95
ag96
ag1172
ag605
ag97
ag608
ag98
ag411
ag99
ag100
ag610
ag412
ag614
ag615
ag616
ag413
ag620
ag101
ag19
ag414
ag102
ag352
ag624
ag103
ag625
ag626
ag104
ag630
ag357
ag105
ag415
ag633
ag634
ag106
ag416
ag417
ag7
ag418
ag107
ag640
asS'cpannotationschema:hasconsequences'
p1501
(lp1502
g519
ag46
ag802
ag47
ag48
ag803
ag804
asS'dct:hasformat'
p1503
(lp1504
g616
asS'obo:date'
p1505
(lp1506
g110
ag111
asS'vaem:namespaceprefix'
p1507
(lp1508
g13
ag14
ag15
ag17
ag18
ag19
asS'j.0:defaultlanguage'
p1509
(lp1510
g1101
ag1124
ag412
ag416
asS'owl:namedindividual'
p1511
(lp1512
g25
asS'doap:gitrepository'
p1513
(lp1514
g73
ag102
asS'oboinowl:default-namespace'
p1515
(lp1516
g1241
ag736
ag737
ag1242
ag1243
ag1244
ag1245
ag1246
ag817
ag1247
ag51
ag1248
ag1406
ag738
ag1249
ag1426
ag1407
ag1083
ag1250
ag1251
ag739
ag1252
ag1253
ag1254
ag1255
ag822
ag1427
ag1408
ag73
ag1256
ag1257
ag1409
ag1115
ag1258
ag1118
ag740
ag52
ag1259
ag1260
ag1261
ag1262
ag1263
ag1413
ag1264
ag1265
ag1266
ag1311
ag1162
ag1267
ag1268
ag1269
ag741
ag1270
ag1415
ag102
ag1271
ag1417
asS'j.0:imports'
p1517
(lp1518
g104
asS'doap:version'
p1519
(lp1520
g110
ag111
ag625
asS'rdf:property'
p1521
(lp1522
g13
asS'j.0:license'
p1523
(lp1524
g938
asS'doc:version'
p1525
(lp1526
g1216
asS'ns0:license'
p1527
(lp1528
g36
asS'dc:identifier'
p1529
(lp1530
g62
ag479
ag69
ag492
ag72
ag76
ag398
ag80
ag84
ag601
ag95
ag99
ag630
ag107
asS'owl:unionof'
p1531
(lp1532
g25
asS'doap:bug-database'
p1533
(lp1534
g73
ag102
asS'vaem:hascatalogentry'
p1535
(lp1536
g13
ag16
asS'terms:created'
p1537
(lp1538
g761
asS'dc:format'
p1539
(lp1540
g437
ag379
ag421
ag62
ag63
ag380
ag384
ag832
ag386
ag476
ag387
ag69
ag391
ag494
ag71
ag72
ag74
ag75
ag423
ag76
ag393
ag395
ag396
ag110
ag400
ag79
ag111
ag80
ag402
ag403
ag84
ag404
ag405
ag790
ag85
ag86
ag406
ag407
ag408
ag410
ag94
ag95
ag97
ag99
ag413
ag101
ag414
ag625
ag630
ag633
ag417
ag418
ag107
asS'note'
p1541
(lp1542
g906
asS'cito:citesasauthority'
p1543
(lp1544
g579
asS'cpannotationschema:coversrequirements'
p1545
(lp1546
g519
ag46
ag802
ag47
ag48
ag803
ag804
asS'omv:keywords'
p1547
(lp1548
g121
ag122
ag123
ag124
ag125
ag129
ag132
ag133
ag135
ag137
ag138
ag139
ag140
ag141
ag142
ag144
ag146
ag147
ag148
ag149
ag152
ag155
ag156
ag159
ag160
ag163
ag165
ag167
ag168
ag172
ag174
ag175
ag176
ag178
ag180
ag182
ag183
ag184
ag186
ag187
ag190
ag191
ag192
ag194
ag197
ag199
ag200
ag201
ag206
ag207
ag208
ag215
ag218
ag219
ag220
ag221
ag224
ag229
ag231
ag233
ag234
ag236
ag242
ag243
ag250
ag252
ag253
ag256
ag259
ag264
ag265
ag269
ag270
ag271
ag272
ag273
ag274
ag275
ag280
ag281
ag282
ag284
ag286
ag288
ag289
ag290
ag291
ag293
ag294
ag296
ag300
ag305
ag306
ag310
ag311
ag312
ag316
ag317
ag319
ag320
ag321
ag322
ag324
ag329
ag330
ag331
ag332
ag333
ag334
ag335
ag336
ag339
ag340
ag341
ag344
ag347
ag349
ag351
ag353
ag354
ag355
ag359
ag361
ag363
ag365
ag368
ag372
ag374
ag375
asS'ontoneo:ontoneo_1000000'
p1549
(lp1550
g529
asS'skos:altlabel'
p1551
(lp1552
g379
ag64
ag911
ag744
ag91
ag93
asS'owl:ontology'
p1553
(lp1554
g866
ag479
ag884
ag887
ag1088
ag1097
ag1123
ag395
ag935
ag1150
ag595
ag655
ag656
ag413
asS'dc:description'
p1555
(lp1556
g378
ag121
ag122
ag123
ag124
ag125
ag126
ag127
ag128
ag34
ag436
ag439
ag129
ag379
ag130
ag131
ag132
ag449
ag133
ag134
ag135
ag136
ag421
ag454
ag137
ag138
ag139
ag457
ag140
ag141
ag142
ag143
ag144
ag62
ag145
ag146
ag147
ag148
ag149
ag150
ag151
ag152
ag380
ag153
ag154
ag381
ag155
ag64
ag382
ag156
ag157
ag384
ag832
ag464
ag386
ag158
ag159
ag160
ag161
ag162
ag163
ag164
ag165
ag166
ag167
ag387
ag1500
ag168
ag169
ag170
ag171
ag172
ag878
ag173
ag174
ag175
ag176
ag484
ag177
ag178
ag179
ag180
ag422
ag181
ag182
ag183
ag184
ag185
ag186
ag187
ag188
ag189
ag190
ag191
ag490
ag390
ag192
ag193
ag391
ag492
ag194
ag195
ag70
ag196
ag197
ag198
ag199
ag200
ag201
ag202
ag203
ag72
ag204
ag205
ag206
ag207
ag208
ag209
ag73
ag210
ag211
ag212
ag213
ag423
ag214
ag215
ag216
ag217
ag218
ag219
ag512
ag220
ag221
ag222
ag223
ag905
ag224
ag225
ag76
ag226
ag227
ag228
ag393
ag229
ag230
ag231
ag232
ag233
ag524
ag234
ag525
ag235
ag236
ag395
ag396
ag237
ag238
ag239
ag240
ag528
ag241
ag242
ag243
ag397
ag244
ag245
ag398
ag246
ag399
ag247
ag248
ag249
ag250
ag539
ag251
ag400
ag252
ag253
ag254
ag255
ag544
ag256
ag116
ag257
ag258
ag259
ag260
ag261
ag262
ag546
ag263
ag264
ag265
ag266
ag267
ag268
ag269
ag270
ag1140
ag271
ag939
ag552
ag272
ag273
ag80
ag401
ag274
ag81
ag275
ag402
ag276
ag277
ag278
ag279
ag560
ag561
ag280
ag281
ag282
ag283
ag284
ag403
ag285
ag286
ag287
ag288
ag289
ag290
ag291
ag83
ag292
ag293
ag404
ag294
ag405
ag295
ag296
ag297
ag298
ag575
ag299
ag300
ag301
ag577
ag87
ag302
ag88
ag303
ag578
ag579
ag406
ag304
ag305
ag306
ag407
ag582
ag307
ag308
ag309
ag1161
ag408
ag310
ag311
ag312
ag313
ag588
ag314
ag315
ag316
ag592
ag317
ag318
ag409
ag319
ag320
ag321
ag322
ag410
ag323
ag324
ag325
ag597
ag598
ag599
ag326
ag327
ag601
ag328
ag329
ag602
ag330
ag605
ag331
ag332
ag333
ag608
ag334
ag335
ag99
ag336
ag610
ag412
ag337
ag338
ag339
ag340
ag341
ag342
ag614
ag615
ag413
ag343
ag620
ag344
ag345
ag346
ag347
ag348
ag349
ag350
ag414
ag351
ag102
ag352
ag353
ag624
ag103
ag626
ag354
ag355
ag104
ag630
ag356
ag357
ag358
ag359
ag360
ag633
ag361
ag634
ag362
ag363
ag364
ag365
ag366
ag417
ag367
ag7
ag368
ag369
ag370
ag371
ag372
ag418
ag107
ag373
ag374
ag375
asS'dc:contributor'
p1557
(lp1558
g378
ag433
ag122
ag123
ag125
ag128
ag438
ag129
ag60
ag61
ag132
ag451
ag133
ag13
ag134
ag135
ag453
ag661
ag137
ag138
ag139
ag457
ag140
ag141
ag142
ag458
ag146
ag147
ag148
ag63
ag152
ag380
ag381
ag382
ag383
ag157
ag384
ag832
ag385
ag386
ag469
ag159
ag160
ag471
ag473
ag163
ag164
ag31
ag165
ag166
ag167
ag387
ag1500
ag999
ag168
ag68
ag388
ag69
ag174
ag175
ag389
ag176
ag484
ag178
ag486
ag179
ag182
ag183
ag1000
ag184
ag14
ag186
ag188
ag190
ag390
ag492
ag896
ag194
ag195
ag70
ag197
ag198
ag897
ag199
ag201
ag71
ag206
ag207
ag208
ag209
ag73
ag74
ag210
ag75
ag215
ag218
ag219
ag512
ag220
ag904
ag515
ag516
ag517
ag224
ag392
ag76
ag393
ag231
ag77
ag1001
ag233
ag394
ag914
ag236
ag395
ag396
ag527
ag239
ag242
ag243
ag529
ag397
ag534
ag539
ag78
ag400
ag16
ag79
ag252
ag253
ag934
ag256
ag116
ag259
ag262
ag1323
ag264
ag265
ag266
ag269
ag272
ag273
ag648
ag555
ag80
ag274
ag275
ag276
ag560
ag946
ag562
ag280
ag1002
ag282
ag283
ag284
ag403
ag82
ag288
ag289
ag290
ag83
ag84
ag404
ag294
ag28
ag296
ag297
ag790
ag300
ag85
ag86
ag577
ag1311
ag578
ag579
ag406
ag305
ag407
ag307
ag769
ag308
ag89
ag90
ag310
ag311
ag312
ag592
ag317
ag319
ag92
ag595
ag325
ag597
ag598
ag600
ag329
ag94
ag330
ag95
ag96
ag1172
ag605
ag331
ag332
ag97
ag333
ag411
ag335
ag336
ag100
ag610
ag412
ag337
ag611
ag339
ag341
ag614
ag615
ag616
ag413
ag620
ag344
ag101
ag346
ag347
ag1182
ag19
ag349
ag414
ag351
ag102
ag353
ag626
ag354
ag357
ag632
ag105
ag633
ag361
ag363
ag365
ag106
ag416
ag638
ag418
ag374
asS'omvmmi:creditrequired'
p1559
(lp1560
g121
ag122
ag123
ag124
ag125
ag126
ag127
ag128
ag129
ag130
ag131
ag132
ag133
ag134
ag135
ag136
ag137
ag138
ag139
ag140
ag141
ag142
ag143
ag144
ag145
ag146
ag147
ag148
ag149
ag150
ag151
ag152
ag153
ag154
ag155
ag156
ag157
ag158
ag159
ag160
ag161
ag162
ag163
ag164
ag165
ag166
ag167
ag168
ag169
ag170
ag171
ag172
ag173
ag174
ag175
ag176
ag177
ag178
ag179
ag180
ag181
ag182
ag183
ag184
ag185
ag186
ag187
ag188
ag189
ag190
ag191
ag192
ag193
ag194
ag195
ag196
ag197
ag198
ag199
ag200
ag201
ag202
ag203
ag204
ag205
ag206
ag207
ag208
ag209
ag210
ag211
ag212
ag213
ag214
ag215
ag216
ag217
ag218
ag219
ag220
ag221
ag222
ag223
ag224
ag225
ag226
ag227
ag228
ag229
ag230
ag231
ag232
ag233
ag234
ag235
ag236
ag237
ag238
ag239
ag240
ag241
ag242
ag243
ag244
ag245
ag246
ag247
ag248
ag249
ag250
ag251
ag252
ag253
ag254
ag255
ag256
ag257
ag258
ag259
ag260
ag261
ag262
ag263
ag264
ag265
ag266
ag267
ag268
ag269
ag270
ag271
ag272
ag273
ag274
ag275
ag276
ag277
ag278
ag279
ag280
ag281
ag282
ag283
ag284
ag285
ag286
ag287
ag288
ag289
ag290
ag291
ag292
ag293
ag294
ag295
ag296
ag297
ag298
ag299
ag300
ag301
ag302
ag303
ag304
ag305
ag306
ag307
ag308
ag309
ag310
ag311
ag312
ag313
ag314
ag315
ag316
ag317
ag318
ag319
ag320
ag321
ag322
ag323
ag324
ag325
ag326
ag327
ag328
ag329
ag330
ag331
ag332
ag333
ag334
ag335
ag336
ag337
ag338
ag339
ag340
ag341
ag342
ag343
ag344
ag345
ag346
ag347
ag348
ag349
ag350
ag351
ag352
ag353
ag354
ag355
ag356
ag357
ag358
ag359
ag360
ag361
ag362
ag363
ag364
ag365
ag366
ag367
ag368
ag369
ag370
ag371
ag372
ag373
ag374
ag375
asS'description'
p1561
(lp1562
g211
ag1216
asS'vaem:acronym'
p1563
(lp1564
g13
ag14
ag15
ag17
ag18
ag19
asS'terms:issued'
p1565
(lp1566
g763
ag492
ag653
ag766
asS'dc11:creator'
p1567
(lp1568
g1025
ag1026
asS'swivt:creationdate'
p1569
(lp1570
g1062
ag1065
ag1073
ag1074
ag1078
ag1079
ag1096
ag1100
ag1105
ag1108
ag1109
ag1114
ag1117
ag1120
ag1127
ag1130
ag1133
ag1142
ag1163
ag1165
ag1178
ag1184
ag1194
ag1197
asS'terms:description'
p1571
(lp1572
g761
ag763
ag653
ag765
ag766
asS'oboinowl:next-id'
p1573
(lp1574
g1245
asS'birn_annot:curationstatus'
p1575
(lp1576
g415
asS'oboinowl:auto-generated-by'
p1577
(lp1578
g1241
ag737
ag1242
ag1243
ag1244
ag1246
ag1247
ag1248
ag738
ag1249
ag1083
ag1250
ag1251
ag739
ag1252
ag1253
ag1254
ag1255
ag822
ag1256
ag1115
ag1258
ag740
ag52
ag1259
ag1260
ag1261
ag1262
ag1263
ag844
ag80
ag1264
ag1265
ag1266
ag1162
ag1267
ag1268
ag1269
ag741
ag1270
ag1271
asS'dc:type'
p1579
(lp1580
g536
asS'rdfs:subclassof'
p1581
(lp1582
g25
asS'pav:version'
p1583
(lp1584
g91
ag93
asS'efo:creator'
p1585
(lp1586
g892
ag943
asS'asthma:creator'
p1587
(lp1588
g399
asS'spin:imports'
p1589
(lp1590
g938
asS'oboinowl:data-version'
p1591
(lp1592
g739
asS'oboinowl:savedby'
p1593
(lp1594
g716
ag1011
ag1012
ag717
ag110
ag111
ag718
ag719
ag1013
ag625
asS'protege:defaultlanguage'
p1595
(lp1596
g378
ag831
ag61
ag381
ag1064
ag876
ag387
ag389
ag1087
ag390
aS'SitBAC1_3.owl'
p1597
ag509
ag515
ag517
ag392
ag394
ag395
ag396
ag529
ag920
ag648
ag84
ag579
ag406
ag1167
ag611
ag413
ag414
asS'oboother:date'
p1598
(lp1599
g625
asS'ns:license'
p1600
(lp1601
g763
ag78
ag81
asS'uri'
p1602
(lp1603
g211
asS'foaf:person'
p1604
(lp1605
g421
ag422
ag114
ag70
ag428
ag524
ag55
ag39
ag118
asS'nemo_annot:modified_date'
p1606
(lp1607
g3
ag4
asS'core:editorialnote'
p1608
(lp1609
g378
ag389
ag390
ag412
ag416
asS'omvmmi:shortnameuri'
p1610
(lp1611
g122
ag125
ag126
ag129
ag132
ag133
ag134
ag135
ag136
ag137
ag138
ag140
ag144
ag145
ag147
ag152
ag153
ag154
ag155
ag159
ag160
ag161
ag162
ag163
ag165
ag166
ag168
ag169
ag170
ag178
ag179
ag180
ag181
ag182
ag183
ag185
ag186
ag187
ag189
ag190
ag191
ag192
ag193
ag194
ag195
ag198
ag200
ag201
ag202
ag203
ag204
ag208
ag211
ag212
ag213
ag214
ag216
ag217
ag218
ag219
ag222
ag224
ag225
ag227
ag229
ag231
ag232
ag233
ag234
ag235
ag236
ag237
ag240
ag241
ag242
ag243
ag245
ag247
ag248
ag250
ag251
ag252
ag254
ag257
ag258
ag261
ag262
ag264
ag269
ag270
ag271
ag274
ag275
ag279
ag282
ag283
ag284
ag285
ag286
ag289
ag290
ag291
ag292
ag293
ag295
ag299
ag300
ag301
ag302
ag305
ag307
ag309
ag311
ag312
ag313
ag316
ag317
ag318
ag319
ag320
ag321
ag323
ag324
ag326
ag327
ag328
ag329
ag331
ag332
ag333
ag334
ag335
ag336
ag338
ag339
ag340
ag344
ag345
ag346
ag347
ag349
ag351
ag352
ag354
ag358
ag359
ag361
ag366
ag367
ag368
ag371
ag372
ag373
ag375
asS'oboinowl:synonymtypedef'
p1612
(lp1613
g844
asS'oboinowl:remark'
p1614
(lp1615
g739
ag822
ag844
ag552
ag1147
asS'oboinowl:default-relationship-id-prefix'
p1616
(lp1617
g1245
asS'omvmmi:temporarymmirole'
p1618
(lp1619
g121
ag122
ag123
ag125
ag129
ag133
ag138
ag139
ag140
ag141
ag142
ag143
ag146
ag147
ag148
ag152
ag153
ag155
ag157
ag158
ag159
ag160
ag163
ag165
ag167
ag168
ag175
ag176
ag179
ag180
ag182
ag183
ag184
ag187
ag189
ag190
ag191
ag192
ag194
ag197
ag198
ag200
ag207
ag215
ag218
ag219
ag220
ag221
ag224
ag227
ag230
ag231
ag233
ag234
ag236
ag240
ag242
ag250
ag252
ag253
ag256
ag259
ag262
ag264
ag265
ag266
ag269
ag272
ag273
ag275
ag276
ag280
ag282
ag284
ag285
ag288
ag290
ag294
ag296
ag299
ag300
ag302
ag305
ag306
ag307
ag311
ag316
ag317
ag319
ag320
ag322
ag324
ag329
ag333
ag336
ag338
ag343
ag346
ag347
ag349
ag351
ag352
ag353
ag354
ag355
ag359
ag360
ag363
ag366
ag372
ag375
asS'dcterms:modified'
p1620
(lp1621
g435
ag440
ag445
ag447
ag448
ag455
ag456
ag467
ag468
ag470
ag472
ag475
ag477
ag478
ag480
ag482
ag483
ag485
ag422
ag114
ag488
ag489
ag491
ag493
ag496
ag497
ag500
ag501
ag502
ag503
ag504
ag505
ag508
ag511
ag520
ag521
ag522
ag523
ag526
ag115
ag532
ag533
ag55
ag538
ag541
ag542
ag543
ag116
ag545
ag550
ag551
ag553
ag556
ag557
ag558
ag559
ag563
ag564
ag566
ag567
ag568
ag569
ag570
ag572
ag573
ag87
ag88
ag579
ag580
ag581
ag584
ag586
ag587
ag590
ag91
ag591
ag967
ag593
ag117
ag603
ag604
ag606
ag607
ag118
ag617
ag619
ag621
ag623
ag628
ag629
ag631
ag635
ag995
ag7
ag637
asS'oboinowl:property-value'
p1622
(lp1623
g1162
as.