(dp0
S'rdfs:comment'
p1
(lp2
S'bfo-continuants.owl'
p3
aS'BFOGFOMappings.owl'
p4
aS'BFOGFO-basicMappings.owl'
p5
asS'omv:version'
p6
(lp7
S'areatype'
p8
aS'bctd'
p9
aS'ActionType'
p10
aS'animal_acoustic_telemetry'
p11
aS'authority'
p12
aS'assumption'
p13
aS'ANZRC_Codes'
p14
aS'active_acoustic_metadata'
p15
aS'atmospheric'
p16
asS'omvmmi:origvocdocumentationuri'
p17
(lp18
g8
ag13
ag14
asS'omv:reference'
p19
(lp20
g8
ag10
ag13
ag15
asS'dc:title'
p21
(lp22
S'bfo-1.1-el.owl'
p23
asS'dc:language'
p24
(lp25
g23
asS'dc:publisher'
p26
(lp27
g23
asS'omvmmi:contactrole'
p28
(lp29
g8
ag9
ag11
ag12
ag13
ag14
ag15
asS'dc:format'
p30
(lp31
g23
asS'omv:hascreator'
p32
(lp33
S'AtmosphericHydrologicSynthesis'
p34
ag8
ag9
ag10
ag11
aS'AquaBiologicalCompound'
p35
aS'AquaBioCore'
p36
aS'AtmosphericHydrologicCompound'
p37
ag12
ag13
aS'AtmosphericHydrologicCore'
p38
ag14
ag15
ag16
aS'architectureConcept'
p39
asS'dc:source'
p40
(lp41
g8
ag9
ag23
ag13
ag14
ag15
ag39
asS'omvmmi:origvocversionid'
p42
(lp43
g8
ag11
ag13
ag15
asS'omvmmi:hascontentcreator'
p44
(lp45
g8
ag9
ag10
ag11
ag12
ag13
ag14
ag15
ag16
ag39
asS'dc:creator'
p46
(lp47
g34
ag8
ag9
ag10
ag11
ag35
ag36
ag37
ag12
ag23
ag13
ag38
ag14
ag15
ag16
ag39
asS'omv:creationdate'
p48
(lp49
g34
ag8
ag9
ag10
ag11
ag35
ag36
ag37
ag12
ag13
ag38
ag14
ag15
ag16
ag39
asS'omv:hascontributor'
p50
(lp51
g8
ag9
ag10
ag12
ag13
ag14
asS'owl:versioninfo'
p52
(lp53
g3
ag4
ag5
ag23
asS'omv:keywords'
p54
(lp55
g8
ag9
ag10
ag11
ag13
ag14
ag15
asS'dc:date'
p56
(lp57
g34
ag8
ag9
ag10
ag11
ag35
ag36
ag37
ag12
ag13
ag38
ag14
ag15
ag16
ag39
asS'dc:description'
p58
(lp59
g34
ag8
ag9
ag10
ag11
ag35
ag36
ag37
ag12
ag13
ag38
ag14
ag15
ag16
ag39
asS'omv:documentation'
p60
(lp61
g8
ag9
ag10
ag11
ag13
ag14
asS'dc:contributor'
p62
(lp63
g8
ag9
ag10
ag12
ag23
ag13
ag14
asS'omv:uri'
p64
(lp65
g34
ag8
ag9
ag10
ag11
ag35
ag36
ag37
ag12
ag13
ag38
ag14
ag15
ag16
ag39
asS'omvmmi:creditrequired'
p66
(lp67
g34
ag8
ag9
ag10
ag11
ag35
ag36
ag37
ag12
ag13
ag38
ag14
ag15
ag16
ag39
asS'owl:imports'
p68
(lp69
g16
asS'omvmmi:origvocdescriptivename'
p70
(lp71
g8
ag11
ag13
ag14
ag15
asS'omvmmi:origvoclastmodified'
p72
(lp73
g8
asS'omv:usedontologyengineeringtool'
p74
(lp75
g9
ag10
ag11
ag12
ag15
ag16
ag39
asS'omv:description'
p76
(lp77
g34
ag8
ag9
ag10
ag11
ag35
ag36
ag37
ag12
ag13
ag38
ag14
ag15
ag16
ag39
asS'omvmmi:temporarymmirole'
p78
(lp79
g8
ag9
ag10
ag11
ag13
ag14
ag15
asS'omvmmi:origvocuri'
p80
(lp81
g8
ag9
ag13
ag14
ag15
ag39
asS'omvmmi:origvockeywords'
p82
(lp83
g13
ag14
asS'dc:identifier'
p84
(lp85
g23
asS'omvmmi:hasresourcetype'
p86
(lp87
g8
ag9
ag10
ag11
ag12
ag13
ag14
ag15
ag16
ag39
asS'omvmmi:creditcitation'
p88
(lp89
g9
ag10
ag13
ag15
asS'omv:name'
p90
(lp91
g34
ag8
ag9
ag10
ag11
ag35
ag36
ag37
ag12
ag13
ag38
ag14
ag15
ag16
ag39
asS'omvmmi:shortnameuri'
p92
(lp93
g34
ag9
ag10
ag11
ag35
ag36
ag37
ag12
ag38
ag15
asS'omvmmi:origmaintainercode'
p94
(lp95
g34
ag8
ag9
ag10
ag11
ag35
ag36
ag37
ag12
ag13
ag38
ag14
ag15
ag16
ag39
asS'omvmmi:contact'
p96
(lp97
g8
ag9
ag10
ag11
ag12
ag13
ag14
ag16
asS'omvmmi:origvocsyntaxformat'
p98
(lp99
g8
ag13
asS'dc:rights'
p100
(lp101
g23
asS'omv:acronym'
p102
(lp103
g34
ag8
ag9
ag10
ag11
ag35
ag36
ag37
ag12
ag13
ag38
ag14
ag15
ag16
ag39
asS'omvmmi:origvocmanager'
p104
(lp105
g8
ag9
ag11
ag13
ag15
ag16
as.