(lp0
(S'owl:versioninfo'
p1
I8
tp2
a(S'rdfs:comment'
p3
I7
tp4
a(S'dc:creator'
p5
I5
tp6
a(S'dc:title'
p7
I3
tp8
a(S'dc:date'
p9
I3
tp10
a(S'owl:imports'
p11
I3
tp12
a(S'dc:language'
p13
I2
tp14
a(S'dc:identifier'
p15
I2
tp16
a(S'dc:description'
p17
I2
tp18
a(S'rdfs:label'
p19
I2
tp20
a(S'dc:type'
p21
I1
tp22
a(S'vann:preferrednamespaceprefix'
p23
I1
tp24
a(S'owl:priorVersion'
p25
I1
tp26
a(S'dc:publisher'
p27
I1
tp28
a(S'dct:publisher'
p29
I1
tp30
a(S'dc:subject'
p31
I1
tp32
a(S'dc:source'
p33
I1
tp34
a(S'dct:available'
p35
I1
tp36
a(S'dct:modified'
p37
I1
tp38
a(S'dc:format'
p39
I1
tp40
a(S'owl:priorversion'
p41
I1
tp42
a(S'cc:license'
p43
I1
tp44
a(S'owl:versioniri'
p45
I1
tp46
a(S'dc:rights'
p47
I1
tp48
a(S'dc:contributor'
p49
I1
tp50
a(S'rdfs:seeAlso'
p51
I1
tp52
a(S'vann:preferrednamespaceuri'
p53
I1
tp54
a(S'dct:rights'
p55
I1
tp56
a(S'terms:title'
p57
I1
tp58
a(S'owl:versionInfo'
p59
I1
tp60
a(S'dc:license'
p61
I1
tp62
a(S'dct:contributor'
p63
I1
tp64
a(S'dct:creator'
p65
I1
tp66
a(S'dct:issued'
p67
I1
tp68
a(S'rdf:type'
p69
I1
tp70
a(S'terms:description'
p71
I1
tp72
a(S'terms:creator'
p73
I1
tp74
a.