(dp0
S'nemo_annot:created_date'
p1
(lp2
S'RackMultipart20131021-23110-1vlki4d.xml'
p3
asS'owl:deprecated'
p4
(lp5
S'specimen.rdf'
p6
asS'obo:is_metadata_tag'
p7
(lp8
S'DIAB_v90rb.owl'
p9
asS'foaf:mbox_sha1sum'
p10
(lp11
S'iwsearch.owl.2'
p12
asS'dct:source'
p13
(lp14
S'19115_CI.xml'
p15
asS'j.0:historynote'
p16
(lp17
S'NIF-Dysfunction.owl.1'
p18
asS'rdf:comment'
p19
(lp20
S'omiabis.owl'
p21
asS'dct:contributor'
p22
(lp23
S'core.1'
p24
aS'dispediaCoreComplete.xml'
p25
asS'j.15:defaultlanguage'
p26
(lp27
S'ImagePhenotype.owl'
p28
asS'cpannotationschema:hasauthor'
p29
(lp30
S'controlflow.owl'
p31
aS'timeindexedsituation.owl'
p32
aS'situation.owl'
p33
asS'dc:modified'
p34
(lp35
S'nihss.owl'
p36
aS'fiesta-iot.owl'
p37
aS'SmartHomeWeather.owl'
p38
aS'rsctx.rdf'
p39
aS'CWMO-042.owl'
p40
aS'ns.1'
p41
asS'oboinowl:treat-xrefs-as-genus-differentia'
p42
(lp43
S'po.owl'
p44
aS'flopo-inferred.owl'
p45
asS'oboother:date'
p46
(lp47
S'EDAM_1.16.owl'
p48
asS'oboother:idspace'
p49
(lp50
g48
asS'dc:publisher'
p51
(lp52
S'EMOF.owl'
p53
aS'NMR.owl'
p54
aS'event'
p55
aS'index.html.6'
p56
ag36
aS'genont.owl.rdf'
p57
aS'tok.owl'
p58
aS'MaHCO.owl'
p59
aS'RDFBase.owl'
p60
aS'Alzheimer Ontology v15R-xml_merged.owl'
p61
ag38
aS'bonedysplasia.owl'
p62
aS'daml-time'
p63
aS'index.html.7'
p64
aS'index.html.13'
p65
aS'dco.owl'
p66
aS'QVT.owl'
p67
ag39
aS'index.html.5'
p68
aS'HuPSON_v092013_merged.owl'
p69
aS'MOF.owl'
p70
aS'device'
p71
ag40
aS'autism-merged.owl'
p72
aS'index.html.14'
p73
aS'index.html.9'
p74
aS'classi.rdf'
p75
aS'BasicActions.owl'
p76
aS'EssentialOCL.owl'
p77
aS'eol.owl'
p78
aS'PrimitiveTypes.owl'
p79
aS'ms2o_core.owl'
p80
aS'index.html.10'
p81
aS'bfo-1.1-el.owl'
p82
aS'UML2-Super-MDL-041007.owl'
p83
aS'index.html.8'
p84
aS'document13.owl'
p85
aS'place'
p86
aS'Kernel.owl'
p87
aS'index.html.12'
p88
aS'biotop.owl'
p89
aS'ext.owl'
p90
aS'tmo.owl'
p91
aS'odm_2006_04_03_kludge.owl'
p92
aS'RDFWeb.owl'
p93
ag6
asS'obo:idspace'
p94
(lp95
S'BioMedicalTopics.owl'
p96
aS'swo.owl'
p97
asS'dcterms:creator'
p98
(lp99
S'marinetlo.owl'
p100
aS'mixsterms_owl.rdf'
p101
aS'pav.owl'
p102
ag78
ag80
asS'omv:hascreator'
p103
(lp104
S'instrument.1'
p105
aS'species'
p106
aS'instituteCodes'
p107
aS'op1'
p108
aS'ooidatalevel'
p109
aS'definition'
p110
aS'qualityFlag'
p111
aS'noaa-waves'
p112
aS'resourcetype'
p113
aS'weather_climate'
p114
aS'Equipment'
p115
aS'INSAT3DM'
p116
aS'prododata'
p117
aS'authority'
p118
aS'resourceType'
p119
aS'ti'
p120
aS'INSAT3DDPV'
p121
aS'rptdata'
p122
aS'assumption'
p123
aS'MethodType'
p124
aS'term'
p125
aS'quantity'
p126
aS'habitatclassification'
p127
aS'mvco'
p128
aS'MapSeaVoxPlatforms2IOOSandRDIPlatforms'
p129
aS'udunits2-accepted'
p130
aS'phytopia_mapping'
p131
aS'weatherData'
p132
aS'historyEventType'
p133
aS'devontssn'
p134
aS'map_ioos_cf'
p135
aS'SiteType'
p136
aS'WaterQualityCore2'
p137
aS'harmonicConstituents'
p138
aS'platform.1'
p139
aS'usjgofs_hydro'
p140
aS'testQ2ODemo'
p141
aS'WoRMS'
p142
aS'bottleqc'
p143
aS'NVSDevicesToTRDIOntology'
p144
aS'INSAT3DM.1'
p145
aS'qualityFlag.4'
p146
aS'fnmoc'
p147
aS'flag.2'
p148
aS'qualityFlag.2'
p149
aS'parameter.7'
p150
aS'qualityFlag.5'
p151
aS'SubstrateHydrologicCore'
p152
aS'WaterQualityCompound'
p153
aS'ocaican'
p154
aS'mvco_processing'
p155
aS'ioos_core_cf_map'
p156
aS'device.1'
p157
aS'udunits2-derived'
p158
aS'instruments.1'
p159
aS'coordinate'
p160
aS'ODMTT'
p161
aS'general'
p162
aS'observation_mapping'
p163
aS'map-oca'
p164
aS'ecological_mapping'
p165
aS'sensor.1'
p166
aS'qvalue'
p167
aS'coa'
p168
aS'OOI_Platform'
p169
aS'waterLevel'
p170
aS'instrument_mapping'
p171
aS'platform_map_ioos_mmi'
p172
aS'properties'
p173
aS'pigment_mapping'
p174
aS'qualityFlag_soft'
p175
aS'SurfHydrosyn'
p176
aS'noaadatalevels'
p177
aS'COMPSPC'
p178
aS'cdm'
p179
aS'ANZRC_Codes'
p180
aS'mappingcategory'
p181
aS'data_products'
p182
aS'enivronmental_mapping'
p183
aS'tagging_exchange_standards_v1'
p184
aS'SurfaceHydrologicCore'
p185
aS'pigments2'
p186
aS'parameter.6'
p187
aS'usglobec'
p188
aS'devterm'
p189
aS'qcFlag'
p190
aS'parent'
p191
aS'rdi'
p192
aS'properties.1'
p193
aS'tool'
p194
aS'flag'
p195
aS'general.1'
p196
aS'flag.1'
p197
aS'udunits2-common'
p198
aS'LandCompound'
p199
aS'qualityFlag.1'
p200
aS'pigments'
p201
aS'chladata'
p202
aS'areatype'
p203
aS'platformCodes'
p204
aS'OceanCore'
p205
aS'test'
p206
aS'OrganizationType'
p207
aS'societal_areas'
p208
aS'ooiReferenceConcept'
p209
aS'param2cat'
p210
aS'wave'
p211
aS'biological'
p212
aS'indexterm'
p213
aS'ecology'
p214
aS'def'
p215
aS'qualityFlag.6'
p216
aS'qualityFlag_hard'
p217
aS'sector'
p218
aS'observations'
p219
aS'qualityFlag_tq'
p220
aS'dm'
p221
aS'cmecs'
p222
aS'parameter.2'
p223
aS'AquaBiologicalCompound'
p224
aS'platform'
p225
aS'science'
p226
aS'parameter.3'
p227
aS'AquaBioCore'
p228
aS'cyberinfrastructureConcept'
p229
aS'WaterQuality'
p230
aS'reference'
p231
aS'studyFootprinting'
p232
aS'samplingfeaturetype'
p233
aS'AtmosphericHydrologicSynthesis'
p234
aS'swe_element_type'
p235
aS'object'
p236
aS'INSAT3DDPV.1'
p237
aS'thesaurus'
p238
aS'udunits2-prefixes'
p239
aS'OceanSynthesis'
p240
aS'OA'
p241
aS'datatype'
p242
aS'thesaurus.2'
p243
aS'OceanCompound'
p244
aS'ionrole'
p245
aS'MarineOrganism'
p246
aS'ActionType'
p247
aS'CalCOFI_stationid'
p248
aS'parameter.5'
p249
aS'ceiConcept'
p250
aS'map_ioos_ioos'
p251
aS'bctd'
p252
aS'cchhg_product_type'
p253
aS'MXP'
p254
aS'whoiCruiseID'
p255
aS'operator'
p256
aS'sites'
p257
aS'nutrient'
p258
aS'informationResource'
p259
aS'icancoa'
p260
aS'water_quality'
p261
aS'MIOOSSEC'
p262
aS'parameter.8'
p263
aS'historyEventList'
p264
aS'featuretype'
p265
aS'platform_mapping'
p266
aS'pctd'
p267
aS'category'
p268
aS'qcTests'
p269
aS'SFH'
p270
aS'castdata'
p271
aS'datalevel.1'
p272
aS'qcCategory'
p273
aS'AtmosphericHydrologicCore'
p274
aS'models'
p275
aS'parameter_provisional'
p276
aS'keyword'
p277
aS'juvenilerockfish'
p278
aS'gts'
p279
aS'current.3'
p280
aS'identifier_parameter_program'
p281
aS'SamplingFeatureType'
p282
aS'_map'
p283
aS'qualityFlag.3'
p284
aS'cfonmap'
p285
aS'map_core_variable'
p286
aS'passive_acoustic_metadata'
p287
aS'multibeam'
p288
aS'platform_map'
p289
aS'noaa-tide-current'
p290
aS'Test'
p291
aS'instruments'
p292
aS'Prodo_Cast'
p293
aS'platforms'
p294
aS'SubstrateHydrologicCompound'
p295
aS'thesaurus.1'
p296
aS'atmospheric'
p297
aS'animal_acoustic_telemetry'
p298
aS'eqtorientation'
p299
aS'organization'
p300
aS'ooiionroles'
p301
aS'marine_biogeography'
p302
aS'process'
p303
aS'waveQChard'
p304
aS'SurfaceHydrologicCompound'
p305
aS'active_acoustic_metadata'
p306
aS'instruments_v3'
p307
aS'systemtype'
p308
aS'LandCore'
p309
aS'parameter.4'
p310
aS'SamplingFeatureGeotype'
p311
aS'vine'
p312
aS'science_mapping'
p313
aS'sensor.2'
p314
aS'physical'
p315
aS'platforms.1'
p316
aS'qcflag'
p317
aS'taxonomy'
p318
aS'om'
p319
aS'core_variable'
p320
aS'parent_mapping'
p321
aS'glossary'
p322
aS'CN2.owl'
p323
aS'optical'
p324
aS'category.1'
p325
aS'platform.2'
p326
aS'SubstrateHydrologicSyn'
p327
aS'SFM'
p328
aS'phytopia_species_mapping'
p329
aS'water_property'
p330
aS'observableProperty'
p331
aS'pathogen'
p332
aS'environmental_interactions'
p333
aS'qualityFlag_aq'
p334
aS'bottledata'
p335
aS'relationshiptype'
p336
aS'device_map'
p337
aS'mmiorr'
p338
aS'ctdfield'
p339
aS'MCFS'
p340
aS'CO-OPSqcFlags'
p341
aS'instrument'
p342
aS'MVCOtoCFswell'
p343
aS'map_societal_areas'
p344
aS'udunits2-base'
p345
aS'sensor'
p346
aS'parameter'
p347
aS'parameter.1'
p348
aS'octr'
p349
aS'software'
p350
aS'map_category'
p351
aS'architectureConcept'
p352
aS'LandSynthesis'
p353
aS'datalevel'
p354
aS'AtmosphericHydrologicCompound'
p355
aS'ComputerNetworks'
p356
aS'datum'
p357
asS'dc:subject'
p358
(lp359
S'BIRNLex-OBO-UBO.owl.1'
p360
ag112
aS'ONSTR.owl'
p361
ag28
ag53
ag55
aS'INO.owl'
p362
aS'webService.owl'
p363
aS'PANDA.owl'
p364
aS'odnae_merged.owl'
p365
aS'oae.owl'
p366
ag147
ag59
aS'brucellosis_merged.owl'
p367
ag60
aS'NIF-Function.owl'
p368
ag162
aS'BIRNLex-OBO-UBO.owl.2'
p369
aS'ohmi.owl'
p370
ag63
ag192
aS'birnlex.owl'
p371
ag66
aS'ocvdae-merged.owl'
p372
ag67
aS'nif.owl'
p373
aS'OBI.owl.1'
p374
ag222
aS'OntoPneumo_20110511.owl'
p375
aS'asthma_v1.3.owl'
p376
aS'clo_merged.owl'
p377
aS'cdao.owl'
p378
ag249
aS'ogg-mm.owl'
p379
ag18
ag70
ag71
aS'ogsf.owl'
p380
aS'ogg.owl'
p381
aS'NIF-Dysfunction.owl'
p382
ag278
ag279
aS'obcs_merged_inferred.owl'
p383
ag290
aS'hino.owl'
p384
ag76
ag77
aS'MGEDOntology.owl'
p385
ag79
aS'ovae_merged.owl'
p386
ag83
aS'CNO_05.owl'
p387
ag86
ag87
aS'BIRNLex-OBO-UBO.owl.3'
p388
aS'OBI.owl.3'
p389
ag89
aS'vo.owl'
p390
ag91
ag339
ag92
aS'SAO.owl'
p391
ag93
aS'NIF-Function.owl.1'
p392
aS'RoleO.owl'
p393
aS'RackMultipart20131202-9185-1thvxyu.xml'
p394
asS'foaf:maker'
p395
(lp396
S'problem-oriented-medical-record.owl'
p397
aS'ns'
p398
asS'j.0:definition'
p399
(lp400
g18
asS'wasrevisionof'
p401
(lp402
S'prov-o.owl'
p403
asS'omvmmi:hascontentcreator'
p404
(lp405
g106
ag107
ag108
ag109
ag110
ag112
ag113
ag114
ag116
ag117
ag118
ag119
ag120
ag121
ag122
ag123
ag124
ag126
ag128
ag129
ag130
ag131
ag132
ag133
ag134
ag135
ag136
ag138
ag139
ag141
ag142
ag143
ag144
ag145
ag147
ag148
ag154
ag155
ag156
ag158
ag159
ag160
ag161
ag163
ag164
ag165
ag167
ag168
ag169
ag170
ag171
ag172
ag173
ag174
ag177
ag178
ag179
ag180
ag181
ag182
ag183
ag184
ag186
ag191
ag192
ag193
ag194
ag195
ag197
ag198
ag201
ag202
ag203
ag204
ag206
ag207
ag208
ag209
ag210
ag211
ag212
ag214
ag215
ag218
ag219
ag221
ag222
ag223
ag225
ag226
ag227
ag229
ag231
ag232
ag233
ag235
ag236
ag237
ag238
ag239
ag241
ag242
ag243
ag245
ag247
ag248
ag249
ag250
ag251
ag252
ag253
ag254
ag255
ag256
ag257
ag258
ag259
ag260
ag261
ag262
ag264
ag265
ag266
ag267
ag268
ag270
ag271
ag272
ag275
ag278
ag279
ag280
ag282
ag283
ag285
ag286
ag287
ag288
ag289
ag290
ag291
ag292
ag293
ag294
ag296
ag297
ag298
ag300
ag301
ag302
ag303
ag304
ag306
ag307
ag308
ag310
ag311
ag312
ag313
ag315
ag316
ag317
ag318
ag320
ag321
ag322
ag323
ag324
ag325
ag328
ag329
ag330
ag331
ag332
ag333
ag335
ag336
ag338
ag340
ag341
ag342
ag343
ag344
ag345
ag346
ag347
ag348
ag349
ag350
ag351
ag352
ag354
ag356
ag357
asS'dc:creator'
p406
(lp407
g360
aS'oostt.owl'
p408
ag105
aS'OBO_annotation_properties.owl.5'
p409
ag106
ag107
ag108
ag109
ag110
ag111
ag112
aS'meo_v07.owl'
p410
aS'ngsonto2016_innuendo.owl'
p411
aS'chem2bio2rdf.owl'
p412
aS'GRO_v0.5.owl'
p413
ag113
ag361
ag28
aS'DetectionMechanisms.owl'
p414
aS'Anatomy.owl'
p415
aS'iridl.owl'
p416
ag114
ag53
ag54
ag115
aS'gsontology.owl'
p417
ag116
aS'bim_beta.owl'
p418
aS'regenbase_vocabulary.owl'
p419
aS'dideo.owl'
p420
ag117
aS'SDO-merged.owl'
p421
ag118
ag119
aS'onto.rdf.2'
p422
ag120
ag397
aS'orderedlistontology.owl'
p423
ag121
ag122
ag123
aS'gfvo_bioportal.xml'
p424
ag124
ag125
ag126
ag127
ag128
ag55
aS'onto.rdf.3'
p425
ag129
ag130
ag131
aS'dron-full.owl'
p426
ag132
ag56
ag133
ag134
aS'TEO.owl'
p427
ag135
ag136
ag362
aS'elseweb-edac.owl'
p428
ag137
ag363
ag138
ag36
ag364
aS'neli.rdf'
p429
aS'PatientCharacteristics.owl'
p430
ag139
ag140
ag365
aS'vico_merged.owl'
p431
aS'BIRNLex_annotation_properties.owl'
p432
aS'Medication.owl'
p433
ag366
ag57
ag141
ag142
ag58
ag143
aS'onto.rdf.12'
p434
ag144
aS'demlab.owl'
p435
aS'duo.owl'
p436
ag145
ag146
ag147
aS'Person.owl'
p437
ag21
ag148
ag149
ag150
ag59
aS'vessels_GT_GRT_ISSCFV_v1_2.owl'
p438
ag367
ag151
ag152
ag153
ag154
ag60
ag155
aS'ContributingFactors-Hazards.owl'
p439
ag156
ag61
ag157
ag158
ag368
ag159
aS'OntolUrgences_v3.0.4.owl'
p440
ag160
ag161
ag162
ag163
ag164
ag165
ag166
ag167
ag168
aS'ActionsToReduceRisk.owl'
p441
ag169
ag170
ag171
ag172
ag173
ag174
aS'idoden_beta0.15b.owl'
p442
ag369
ag175
ag176
ag370
ag37
aS'typon.xml'
p443
ag177
ag178
ag38
ag179
ag180
aS'Furniture.owl'
p444
aS'Countries.owl'
p445
ag181
aS'OrganizationalOutcomes.owl'
p446
ag182
ag183
ag184
ag185
ag62
ag186
ag63
ag187
ag188
ag12
ag189
ag190
ag191
ag192
aS'IncidentCharacteristic.owl'
p447
ag64
ag193
aS'PatientSafetyIncident.owl'
p448
ag194
ag195
ag196
ag65
ag197
ag198
ag199
aS'sopharm2.2.owl'
p449
ag200
aS'expression.owl'
p450
ag201
ag202
aS'MitigatingFactors.owl'
p451
aS'elseweb-lifemapper-parameters.owl'
p452
aS'Outcomes.owl'
p453
ag203
ag204
ag205
aS'Clothing.owl'
p454
ag206
aS'opl.owl'
p455
aS'onto.rdf.8'
p456
aS'ido-merged.owl'
p457
ag207
aS'OBO_annotation_properties.owl.2'
p458
aS'ObjectWithStates.owl'
p459
ag371
aS'poro.owl'
p460
ag208
ag66
ag209
ag210
ag211
ag372
ag212
ag213
ag214
ag67
ag215
ag216
ag217
aS'msv.owl'
p461
ag373
ag218
ag219
ag374
ag220
aS'Menelas-Top-20130715.owl'
p462
ag221
ag222
ag223
aS'2014-05-21-datacite-0_6_4_1.owl'
p463
ag224
ag225
ag96
ag226
aS'ontoneo.owl'
p464
ag375
aS'PDO_ver0.7.owl'
p465
ag227
ag228
aS'CPR.owl'
p466
aS'AmelioratingActions.owl'
p467
ag229
aS'OBO_annotation_properties.owl.1'
p468
ag230
ag231
ag232
ag233
aS'hrdo.owl'
p469
ag234
ag39
ag377
ag68
ag235
ag236
ag237
ag238
ag239
ag102
ag240
ag241
ag97
ag242
ag243
ag244
ag245
ag378
aS'pgxo.owl'
p470
aS'contextdescriptor.owl'
p471
ag246
ag247
ag248
ag249
aS'PatientOutcomes.owl'
p472
aS'pdro.owl'
p473
ag250
ag251
ag252
ag253
ag254
aS'CBO.owl'
p474
ag255
aS'HospitalEquipment.owl'
p475
ag256
aS'bcgo_merged_inferred.owl'
p476
ag69
ag257
ag258
ag379
ag18
ag259
ag260
ag261
ag262
aS'flu.owl'
p477
aS'ico_merged.owl'
p478
aS'ogms.owl'
p479
ag263
ag264
ag265
ag266
ag267
aS'pathLex.owl'
p480
ag268
ag70
ag269
ag270
ag271
ag71
ag272
ag273
ag40
ag72
ag274
ag275
ag380
ag276
ag381
aS'vso.owl'
p481
ag277
ag382
ag278
aS'UnitsOntology-SDO.owl'
p482
ag279
ag280
ag281
ag282
ag283
ag73
ag74
ag75
ag284
ag285
aS'elseweb-data.owl'
p483
ag286
ag287
ag288
ag383
ag289
ag290
ag291
ag384
ag76
ag77
aS'gni.owl'
p484
ag292
aS'Activity.owl'
p485
ag293
ag294
ag295
aS'mod-ontology-09092016.owl'
p486
ag296
ag297
ag298
aS'internano.owl'
p487
ag299
ag300
ag385
ag301
ag302
ag79
aS'ODGI.owl'
p488
ag303
ag304
ag386
aS'OBO_annotation_properties.owl.4'
p489
ag305
ag306
ag307
aS'2014-05-21-SCoRO-1_8_4_1.owl'
p490
ag41
aS'ego.owl'
p491
ag308
ag309
aS'omrse.owl'
p492
aS'npo-2011-12-08_inferred.owl'
p493
ag310
ag311
aS'OGI.owl'
p494
ag81
ag312
ag82
ag83
aS'OntoDT.owl'
p495
ag313
ag314
ag84
ag315
ag85
ag387
ag316
ag317
aS'InferredAnatomyv3.owl'
p496
ag86
ag318
ag87
aS'2014-05-22-cito-2_6_3.owl'
p497
ag388
ag319
aS'ohd.owl'
p498
ag320
ag321
ag322
ag323
ag324
aS'elseweb-lifemapper.owl'
p499
aS'2016-04-19-fabio-1_9_2.owl'
p500
aS'orges.owl'
p501
aS'animals.owl'
p502
ag389
ag325
aS'elseweb-mappings.owl'
p503
ag326
ag88
ag327
ag89
ag328
ag329
aS'Detection.owl'
p504
ag330
ag331
ag332
ag390
ag333
ag90
ag334
ag335
aS'CSSO_ver0.6.owl'
p505
ag48
aS'elseweb-modelling.owl'
p506
aS'ordo_orphanet.owl'
p507
ag336
ag337
ag91
ag338
ag339
ag340
ag341
aS'onto.rdf.10'
p508
ag92
aS'BIRNLex_annotation_properties.owl.1'
p509
ag342
ag391
aS'CVRG_EPOntology.owl'
p510
ag343
ag344
ag345
ag346
ag347
ag348
ag93
aS'BuildingStructure.owl'
p511
ag392
ag393
ag349
ag6
ag350
aS'onto.rdf.7'
p512
ag351
ag352
ag353
ag354
ag394
ag355
ag356
aS'OBO_annotation_properties.owl'
p513
ag357
asS'dct:license'
p514
(lp515
S'copyrightonto.owl'
p516
asS'smw:exportdate'
p517
(lp518
S'iceci.owl'
p519
asS'omv:hascontributor'
p520
(lp521
g106
ag107
ag109
ag113
ag116
ag117
ag118
ag119
ag121
ag122
ag123
ag124
ag125
ag126
ag130
ag131
ag132
ag136
ag140
ag142
ag143
ag146
ag148
ag149
ag150
ag151
ag157
ag158
ag159
ag161
ag162
ag165
ag166
ag167
ag169
ag171
ag173
ag177
ag178
ag180
ag181
ag182
ag184
ag189
ag190
ag191
ag193
ag198
ag201
ag202
ag203
ag207
ag214
ag216
ag219
ag225
ag226
ag235
ag236
ag239
ag242
ag245
ag247
ag248
ag249
ag252
ag255
ag256
ag257
ag258
ag259
ag263
ag265
ag266
ag267
ag271
ag272
ag276
ag278
ag279
ag282
ag287
ag289
ag292
ag293
ag294
ag299
ag301
ag307
ag311
ag312
ag313
ag314
ag315
ag317
ag318
ag319
ag321
ag323
ag326
ag328
ag329
ag331
ag333
ag335
ag336
ag339
ag343
ag345
ag347
ag356
asS'obo:iao_0000412'
p522
(lp523
S'iao-merged.owl'
p524
asS'version'
p525
(lp526
S'ONLIRA_v106.owl'
p527
asS'owl:priorversion'
p528
(lp529
g415
ag430
ag433
ag58
ag437
ag438
ag439
ag61
ag444
ag445
aS'dogont.owl'
p530
ag447
ag448
ag454
ag66
ag463
ag464
ag102
ag472
ag474
ag475
aS'philosurfical.owl'
p531
ag40
ag485
aS'swoogle.owl'
p532
aS'wob.owl.1'
p533
ag497
ag500
ag511
asS'cc:license'
p534
(lp535
S'PO2_Core.owl'
p536
aS'news.owl'
p537
ag428
ag435
aS'BIOREFINERY.owl'
p538
ag38
ag530
ag452
aS'DURUM_WHEAT.owl'
p539
aS'conference.owl'
p540
aS'TRANSMAT.owl'
p541
ag471
aS'person.owl'
p542
aS'contact.owl'
p543
aS'photo.owl'
p544
ag483
aS'publication.owl'
p545
aS'assertion.owl'
p546
ag499
ag503
ag506
aS'project.owl'
p547
asS'nemo_annot:curator'
p548
(lp549
g3
asS'void:databrowse'
p550
(lp551
g364
asS'j.14:modifieddate'
p552
(lp553
g28
asS'foaf:page'
p554
(lp555
g96
ag39
ag97
ag48
asS'omv:documentation'
p556
(lp557
g105
ag106
ag107
ag109
ag113
ag117
ag122
ag123
ag124
ag126
ag130
ag132
ag136
ag142
ag143
ag146
ag148
ag149
ag150
ag151
ag158
ag159
ag161
ag166
ag167
ag175
ag177
ag180
ag189
ag190
ag198
ag200
ag202
ag203
ag204
ag207
ag213
ag216
ag217
ag218
ag233
ag235
ag236
ag239
ag242
ag245
ag247
ag248
ag249
ag252
ag256
ag258
ag265
ag267
ag271
ag272
ag276
ag282
ag285
ag293
ag298
ag301
ag311
ag312
ag314
ag317
ag323
ag326
ag334
ag335
ag336
ag338
ag342
ag345
ag347
ag356
asS'omv:uri'
p558
(lp559
g105
ag106
ag107
ag108
ag109
ag110
ag111
ag112
ag113
ag114
ag115
ag116
ag117
ag118
ag119
ag120
ag121
ag122
ag123
ag124
ag125
ag126
ag127
ag128
ag129
ag130
ag131
ag132
ag133
ag134
ag135
ag136
ag137
ag138
ag139
ag140
ag141
ag142
ag143
ag144
ag145
ag146
ag147
ag148
ag149
ag150
ag151
ag152
ag153
ag154
ag155
ag156
ag157
ag158
ag159
ag160
ag161
ag162
ag163
ag164
ag165
ag166
ag167
ag168
ag169
ag170
ag171
ag172
ag173
ag174
ag175
ag176
ag177
ag178
ag179
ag180
ag181
ag182
ag183
ag184
ag185
ag186
ag187
ag188
ag189
ag190
ag191
ag192
ag193
ag194
ag195
ag196
ag197
ag198
ag199
ag200
ag201
ag202
ag203
ag204
ag205
ag206
ag207
ag208
ag209
ag210
ag211
ag212
ag213
ag214
ag215
ag216
ag217
ag218
ag219
ag220
ag221
ag222
ag223
ag224
ag225
ag226
ag227
ag228
ag229
ag230
ag231
ag232
ag233
ag234
ag235
ag236
ag237
ag238
ag239
ag240
ag241
ag242
ag243
ag244
ag245
ag246
ag247
ag248
ag249
ag250
ag251
ag252
ag253
ag254
ag255
ag256
ag257
ag258
ag259
ag260
ag261
ag262
ag263
ag264
ag265
ag266
ag267
ag268
ag269
ag270
ag271
ag272
ag273
ag274
ag275
ag276
ag277
ag278
ag279
ag280
ag281
ag282
ag283
ag284
ag285
ag286
ag287
ag288
ag289
ag290
ag291
ag292
ag293
ag294
ag295
ag296
ag297
ag298
ag299
ag300
ag301
ag302
ag303
ag304
ag305
ag306
ag307
ag308
ag309
ag310
ag311
ag312
ag313
ag314
ag315
ag316
ag317
ag318
ag319
ag320
ag321
ag322
ag323
ag324
ag325
ag326
ag327
ag328
ag329
ag330
ag331
ag332
ag333
ag334
ag335
ag336
ag337
ag338
ag339
ag340
ag341
ag342
ag343
ag344
ag345
ag346
ag347
ag348
ag349
ag350
ag351
ag352
ag353
ag354
ag355
ag356
ag357
asS'omvmmi:origvocdescriptivename'
p560
(lp561
g107
ag109
ag117
ag122
ag123
ag126
ag132
ag138
ag142
ag143
ag146
ag159
ag166
ag167
ag170
ag177
ag180
ag202
ag203
ag236
ag242
ag248
ag256
ag258
ag259
ag263
ag265
ag271
ag272
ag287
ag293
ag298
ag306
ag335
ag341
ag357
asS'foaf:name'
p562
(lp563
g435
ag398
ag12
ag501
asS'b807e4-4286-46f3-89f6-f67df1657fdc:efo_0000009'
p564
(lp565
S'experimental_design_ontology_1.0.owl'
p566
asS'rdf:type'
p567
(lp568
g75
asS'cpannotationschema:hascomponent'
p569
(lp570
g32
asS'dcterms:identifier'
p571
(lp572
g80
asS'asthma:defaultlanguage'
p573
(lp574
g376
asS'core:changenote'
p575
(lp576
g360
ag409
ag432
ag368
ag369
ag458
ag468
aS'NIF-Cell.owl'
p577
aS'NIF-Subcellular.owl'
p578
ag489
ag388
ag509
ag392
asS'dcterms:description'
p579
(lp580
g100
ag78
ag80
asS'oboinowl:hassubset'
p581
(lp582
S'cellular_component.owl.4'
p583
aS'sequence.owl.4'
p584
ag96
ag97
aS'cellular_component.owl.2'
p585
ag578
aS'sequence.owl.1'
p586
ag48
asS'oboinowl:treat-xrefs-as-reverse-genus-differentia'
p587
(lp588
g90
asS'next_id'
p589
(lp590
g48
asS'name'
p591
(lp592
g194
asS'omvmmi:origvocuri'
p593
(lp594
g105
ag106
ag107
ag109
ag117
ag122
ag123
ag126
ag127
ag130
ag132
ag142
ag143
ag146
ag148
ag158
ag159
ag162
ag166
ag167
ag177
ag180
ag189
ag198
ag202
ag203
ag204
ag213
ag215
ag236
ag239
ag242
ag245
ag248
ag249
ag250
ag252
ag256
ag258
ag259
ag265
ag267
ag271
ag272
ag278
ag279
ag293
ag306
ag307
ag314
ag317
ag326
ag335
ag339
ag342
ag345
ag347
ag348
ag349
ag352
asS'oboinowl:rgdformat-version'
p595
(lp596
S'vt.owl'
p597
asS'dcterms:issued'
p598
(lp599
S'ontology.owl'
p600
ag100
ag102
ag6
asS'owl:ontologyiri'
p601
(lp602
g600
asS'oboinowl:namespaceidrule'
p603
(lp604
S'fbsp.owl'
p605
aS'tao.owl'
p606
aS'spd.owl'
p607
aS'uo.owl'
p608
asS'dcterms:contributor'
p609
(lp610
g100
ag102
asS'j.18:changenote'
p611
(lp612
g28
asS'dc:issued'
p613
(lp614
g428
ag36
ag37
ag38
ag452
ag39
ag75
ag483
ag41
ag499
ag503
ag506
asS'dcat:downloadurl'
p615
(lp616
g78
asS'omv:name'
p617
(lp618
g105
ag106
ag107
ag108
ag109
ag110
ag111
ag112
ag113
ag114
ag115
ag116
ag117
ag118
ag119
ag120
ag121
ag122
ag123
ag124
ag125
ag126
ag127
ag128
ag129
ag130
ag131
ag132
ag133
ag134
ag135
ag136
ag137
ag138
ag139
ag140
ag141
ag142
ag143
ag144
ag145
ag146
ag147
ag148
ag149
ag150
ag151
ag152
ag153
ag154
ag155
ag156
ag157
ag158
ag159
ag160
ag161
ag162
ag163
ag164
ag165
ag166
ag167
ag168
ag169
ag170
ag171
ag172
ag173
ag174
ag175
ag176
ag177
ag178
ag179
ag180
ag181
ag182
ag183
ag184
ag185
ag186
ag187
ag188
ag189
ag190
ag191
ag192
ag193
ag194
ag195
ag196
ag197
ag198
ag199
ag200
ag201
ag202
ag203
ag204
ag205
ag206
ag207
ag208
ag209
ag210
ag211
ag212
ag213
ag214
ag215
ag216
ag217
ag218
ag219
ag220
ag221
ag222
ag223
ag224
ag225
ag226
ag227
ag228
ag229
ag230
ag231
ag232
ag233
ag234
ag235
ag236
ag237
ag238
ag239
ag240
ag241
ag242
ag243
ag244
ag245
ag246
ag247
ag248
ag249
ag250
ag251
ag252
ag253
ag254
ag255
ag256
ag257
ag258
ag259
ag260
ag261
ag262
ag263
ag264
ag265
ag266
ag267
ag268
ag269
ag270
ag271
ag272
ag273
ag274
ag275
ag276
ag277
ag278
ag279
ag280
ag281
ag282
ag283
ag284
ag285
ag286
ag287
ag288
ag289
ag290
ag291
ag292
ag293
ag294
ag295
ag296
ag297
ag298
ag299
ag300
ag301
ag302
ag303
ag304
ag305
ag306
ag307
ag308
ag309
ag310
ag311
ag312
ag313
ag314
ag315
ag316
ag317
ag318
ag319
ag320
ag321
ag322
ag323
ag324
ag325
ag326
ag327
ag328
ag329
ag330
ag331
ag332
ag333
ag334
ag335
ag336
ag337
ag338
ag339
ag340
ag341
ag342
ag343
ag344
ag345
ag346
ag347
ag348
ag349
ag350
ag351
ag352
ag353
ag354
ag355
ag356
ag357
asS'obo:default-relationship-id-prefix'
p619
(lp620
g96
ag97
asS'terms:creator'
p621
(lp622
S'SP_document_workflow_V3.0.owl'
p623
aS'bao_gpcr_v1.1.owl'
p624
ag530
aS'biomo.owl'
p625
aS'VoID_Extension_Schema.owl'
p626
asS'foaf:mbox'
p627
(lp628
g361
ag464
ag379
ag381
ag501
ag390
asS'omvmmi:origvocsyntaxformat'
p629
(lp630
g109
ag117
ag122
ag123
ag126
ag130
ag132
ag142
ag143
ag146
ag158
ag166
ag177
ag198
ag202
ag203
ag236
ag239
ag245
ag248
ag256
ag258
ag259
ag263
ag265
ag271
ag272
ag293
ag335
ag345
asS'nemo_annot:pref_label'
p631
(lp632
g3
asS'terms:contributor'
p633
(lp634
g623
ag530
ag626
asS'dc:coverage'
p635
(lp636
g54
ag417
ag378
asS'foaf:isprimarytopicof'
p637
(lp638
g102
asS'creator'
p639
(lp640
S'fma.owl'
p641
asS'omvmmi:creditcitation'
p642
(lp643
g106
ag107
ag117
ag122
ag123
ag124
ag125
ag126
ag132
ag136
ag141
ag142
ag143
ag159
ag167
ag202
ag207
ag233
ag236
ag242
ag245
ag247
ag248
ag252
ag256
ag258
ag263
ag267
ag269
ag271
ag273
ag282
ag290
ag293
ag306
ag307
ag311
ag335
ag336
asS'dct:created'
p644
(lp645
g450
asS'omv:reference'
p646
(lp647
g106
ag109
ag113
ag116
ag117
ag121
ag122
ag123
ag124
ag126
ag130
ag132
ag135
ag136
ag143
ag156
ag158
ag177
ag179
ag184
ag192
ag198
ag202
ag203
ag207
ag208
ag215
ag223
ag236
ag239
ag247
ag248
ag256
ag258
ag265
ag271
ag278
ag282
ag285
ag293
ag306
ag311
ag312
ag320
ag335
ag342
ag343
ag345
ag347
asS'patterns:createdby'
p648
(lp649
S'ancestro_inferred.owl'
p650
asS'cpannotationschema:hasintent'
p651
(lp652
S'informationrealization.owl'
p653
ag31
ag32
ag459
ag33
aS'participation.owl'
p654
aS'timeinterval.owl'
p655
asS'dc:created'
p656
(lp657
g62
asS'acetext:acetext'
p658
(lp659
g58
asS'obo_annot:pendingactionnote'
p660
(lp661
g360
ag369
ag388
asS'obo:comment'
p662
(lp663
S'MFOEM.owl'
p664
asS'rdfs:seealso'
p665
(lp666
S'ddi.owl'
p667
ag397
ag424
ag36
ag435
ag367
ag398
ag12
ag24
ag457
ag102
aS'http'
p668
ag471
ag524
ag484
aS'Finance.owl'
p669
ag312
aS'time-entry.owl'
p670
aS'content'
p671
ag390
ag403
ag6
aS'data-gov-twc.rdf.1'
p672
asS'oboinowl:subsetdef'
p673
(lp674
S'OMIT.owl'
p675
asS'j.1:defaultlanguage'
p676
(lp677
g18
asS'nemo_annot:modified_date'
p678
(lp679
g3
asS'core:definition'
p680
(lp681
g368
ag371
ag373
ag382
ag392
asS'omvmmi:origvoclastmodified'
p682
(lp683
g203
asS'omv:creationdate'
p684
(lp685
g105
ag106
ag107
ag108
ag109
ag110
ag111
ag112
ag113
ag114
ag115
ag116
ag117
ag118
ag119
ag120
ag121
ag122
ag123
ag124
ag125
ag126
ag127
ag128
ag129
ag130
ag131
ag132
ag133
ag134
ag135
ag136
ag137
ag138
ag139
ag140
ag141
ag142
ag143
ag144
ag145
ag146
ag147
ag148
ag149
ag150
ag151
ag152
ag153
ag154
ag155
ag156
ag157
ag158
ag159
ag160
ag161
ag162
ag163
ag164
ag165
ag166
ag167
ag168
ag169
ag170
ag171
ag172
ag173
ag174
ag175
ag176
ag177
ag178
ag179
ag180
ag181
ag182
ag183
ag184
ag185
ag186
ag187
ag188
ag189
ag190
ag191
ag192
ag193
ag194
ag195
ag196
ag197
ag198
ag199
ag200
ag201
ag202
ag203
ag204
ag205
ag206
ag207
ag208
ag209
ag210
ag211
ag212
ag213
ag214
ag215
ag216
ag217
ag218
ag219
ag220
ag221
ag222
ag223
ag224
ag225
ag226
ag227
ag228
ag229
ag230
ag231
ag232
ag233
ag234
ag235
ag236
ag237
ag238
ag239
ag240
ag241
ag242
ag243
ag244
ag245
ag246
ag247
ag248
ag249
ag250
ag251
ag252
ag253
ag254
ag255
ag256
ag257
ag258
ag259
ag260
ag261
ag262
ag263
ag264
ag265
ag266
ag267
ag268
ag269
ag270
ag271
ag272
ag273
ag274
ag275
ag276
ag277
ag278
ag279
ag280
ag281
ag282
ag283
ag284
ag285
ag286
ag287
ag288
ag289
ag290
ag291
ag292
ag293
ag294
ag295
ag296
ag297
ag298
ag299
ag300
ag301
ag302
ag303
ag304
ag305
ag306
ag307
ag308
ag309
ag310
ag311
ag312
ag313
ag314
ag315
ag316
ag317
ag318
ag319
ag320
ag321
ag322
ag323
ag324
ag325
ag326
ag327
ag328
ag329
ag330
ag331
ag332
ag333
ag334
ag335
ag336
ag337
ag338
ag339
ag340
ag341
ag342
ag343
ag344
ag345
ag346
ag347
ag348
ag349
ag350
ag351
ag352
ag353
ag354
ag355
ag356
ag357
asS'j.18:historynote'
p686
(lp687
g28
asS'owl:versioninfo'
p688
(lp689
g360
ag408
ag409
aS'ubyCat.owl'
p690
aS'ProfileHierarchy.owl'
p691
ag667
ag410
ag413
ag600
ag361
ag28
ag414
ag415
ag54
ag419
ag623
ag420
ag421
ag422
ag397
ag423
ag536
ag624
ag424
aS'foaf-dl.owl'
p692
aS'amino acid - inferred.owl'
p693
ag55
ag425
aS'pml-provenance.owl'
p694
ag56
aS'dreggie-ont.owl'
p695
ag537
ag427
ag362
ag428
ag363
ag36
ag364
ag429
ag430
ag365
aS'NotificationEntity.owl'
p696
ag431
ag432
ag433
ag366
aS'dblp.owl.2'
p697
ag434
aS'NPIs ontology v4.owl'
p698
aS'ObjectList.owl'
p699
ag435
aS'ClinicalTrialOntology.owl'
p700
aS'mvco.owl'
p701
ag437
ag21
ag367
ag653
ag566
ag31
ag439
ag538
aS'genpol.owl'
p702
aS'DOLCE-RL.owl'
p703
ag61
aS'CTCAE_4.03_2010-06-14.owl'
p704
aS'ISO-15926-2_2003_entityMembershipCandidates.xml'
p705
ag440
ag650
aS'travel.owl'
p706
ag398
aS'SpatialRelationsGFO-basicMappings.owl'
p707
aS'CellCultureOntology.owl'
p708
ag32
aS'mereology.owl'
p709
ag441
aS'Process.owl.5'
p710
aS'DOLCE-LiteGFO-basicMappings.owl'
p711
ag100
ag369
ag370
ag37
ag664
ag443
ag38
ag179
ag444
ag445
ag446
aS'MF.owl'
p712
ag530
aS'sbo.owl'
p713
ag63
ag12
ag447
ag64
aS'oboe.owl'
p714
ag448
ag196
ag65
aS'RPO_081112_owl.0'
p715
ag449
aS'irw.owl'
p716
ag450
ag451
aS'questionnaire.owl'
p717
ag452
ag453
aS'd1-ECSO.owl'
p718
ag454
aS'gfo-basic.owl'
p719
ag455
ag456
aS'lexicon_core.rdf.owl'
p720
ag457
ag458
ag371
aS'BFOROSpatialRelationsMappings.owl'
p721
ag66
ag372
ag15
aS'part.owl'
p722
aS'AdaLab-meta.owl'
p723
ag461
ag373
ag33
aS'NoNRCTontology1.0.owl.xml'
p724
aS'ontopic.owl'
p725
aS'epo.owl'
p726
ag539
ag625
aS'SensorBasis.owl'
p727
ag374
ag462
aS'AdaLab.owl'
p728
aS'phare.owl'
p729
ag463
ag540
aS'LMM_L2.owl'
p730
aS'TemporalRelationsBFOMerged.owl'
p731
aS'gfo.owl'
p732
ag464
aS'ontology-metadata.owl'
p733
ag375
ag465
ag466
ag467
ag541
ag468
aS'BRO.owl'
p734
ag39
aS'Expression.owl'
p735
ag377
ag68
aS'sxml'
p736
aS'RA_metadata.owl'
p737
ag238
aS'obib_merged_inferred.owl'
p738
ag3
ag102
aS'ISO-15926-2_2003_entityMembership.xml'
p739
ag97
ag243
aS'deliveryContext.owl.1'
p740
ag654
ag470
ag668
ag471
aS'sse-p.owl'
p741
ag472
aS'enanomapper.owl'
p742
ag474
ag542
ag475
aS'DOLCE-No-Quality-Qualia.owl'
p743
ag25
ag69
aS'efo.owl'
p744
ag543
ag379
ag18
ag577
ag477
ag478
ag479
aS'DOLCE-LiteBFOMerged.owl'
p745
aS'BFOGFO-basicMerged.owl'
p746
aS'ISO-15926-2_2003_inverseRoles.xml'
p747
ag71
aS'SpatialRelationsGFOMerged.owl'
p748
ag40
ag72
aS'swrl.owl'
p749
ag527
ag655
ag380
ag578
ag381
ag481
ag482
aS'oboe-sbc.owl'
p750
aS'collections.owl.1'
p751
ag73
ag74
aS'basicplan.owl'
p752
ag75
aS'DOLCE-LiteGFOMappings.owl'
p753
ag544
ag483
aS'FunctionalParticipationGFOMappings.owl'
p754
aS'BFOROTemporalRelationsMerged.owl'
p755
ag383
ag545
ag546
ag384
aS'OCRe.owl'
p756
ag485
aS'RDL.owl.crdownload.xml'
p757
ag486
aS'Service.owl.3'
p758
aS'agentrole.owl'
p759
aS'TemporalRelationsBFOMappings.owl'
p760
aS'bfo-continuants.owl'
p761
ag296
ag669
ag487
aS'vocab.rdf'
p762
ag385
ag488
ag386
ag532
aS'travel(2).owl'
p763
ag533
ag489
aS'PeriodicTable.owl.xml'
p764
ag307
ag490
ag80
ag491
ag492
ag493
aS'LMM_L1.owl'
p765
ag494
ag81
ag82
aS'univ-bench.owl'
p766
ag495
ag314
ag84
aS'sp'
p767
ag387
ag496
aS'questionnaire.owl.1'
p768
ag86
ag497
ag388
ag319
ag498
aS'BFOGFOMerged.owl'
p769
aS'BFOROGFOMerged.owl'
p770
ag499
ag500
ag389
ag671
ag503
ag326
ag88
ag89
aS'IOLite.owl'
p771
ag504
aS'FFO.owl'
p772
ag390
aS'DIKB_evidence_ontology_v1.7.owl'
p773
ag505
aS'ISO-15926-2_2003.xml'
p774
ag506
aS'privacy.owl'
p775
ag507
ag403
ag626
aS'dicom.owl'
p776
aS'BFORODOLCE-LiteMappings.owl'
p777
ag91
ag508
ag509
ag391
aS'bao_complete.owl'
p778
aS'dolce-very-lite.owl'
p779
aS'WeatherOntology.owl'
p780
ag511
ag393
aS'pizza.owl'
p781
aS'geopolitical.owl'
p782
ag6
aS'BFOROFunctionalParticipationMerged.owl'
p783
ag512
ag394
ag547
ag672
ag513
asS'dc:date'
p784
(lp785
g105
ag409
ag106
ag107
ag108
ag109
ag110
ag111
ag112
ag412
ag413
ag113
ag361
ag28
ag114
ag53
ag54
ag115
ag116
ag117
ag118
ag119
ag422
ag120
ag423
ag536
ag121
ag122
ag624
ag123
ag124
ag125
ag126
ag127
ag128
ag55
ag425
ag129
ag130
ag131
ag132
ag56
ag133
ag134
ag135
ag136
ag362
ag137
ag363
ag138
ag139
ag140
ag365
ag431
ag366
ag57
ag141
ag142
ag143
ag434
ag144
ag145
ag146
ag147
ag148
ag149
ag150
ag59
ag367
aS'ontoneurolog-mental-state-assessment.owl'
p786
ag151
ag152
ag153
ag154
ag60
ag155
ag156
ag61
ag157
ag158
ag159
ag440
ag160
ag161
ag162
ag163
ag164
ag165
ag166
aS'ontovip.owl'
p787
ag167
ag168
ag169
ag170
ag171
ag172
ag173
ag174
ag175
ag176
ag370
ag177
ag178
ag179
ag180
ag181
ag182
ag183
ag184
ag185
ag186
ag63
ag187
ag188
ag189
ag190
ag191
ag192
ag64
ag193
ag194
ag195
ag196
ag65
ag197
ag198
ag199
ag200
ag201
ag202
ag203
ag204
ag718
ag205
ag206
ag456
ag457
ag207
ag458
ag208
ag209
ag210
ag211
ag372
ag212
ag213
ag214
ag67
ag215
aS'ontoneurolog-dataset-processing.owl'
p788
ag216
ag217
ag218
ag219
ag374
ag220
ag462
ag221
ag222
ag223
ag463
ag224
ag225
ag226
ag465
ag227
ag228
ag229
ag468
ag376
ag230
ag231
ag232
ag233
ag469
ag234
ag377
ag68
ag235
ag236
ag237
ag238
ag239
ag240
ag241
ag242
ag243
ag244
ag245
ag471
ag246
ag247
ag248
ag249
ag250
ag251
ag252
ag253
ag254
ag474
ag255
ag256
ag69
ag257
ag258
ag379
ag259
ag260
ag261
ag262
ag477
ag478
ag479
ag263
aS'ontoneurolog-mr-dataset-acquisition.owl'
p789
ag264
ag265
ag266
ag267
ag268
ag70
ag269
ag270
ag271
ag71
ag272
ag273
ag72
ag274
ag275
ag380
ag276
ag381
ag277
ag278
ag279
ag280
ag751
ag281
ag282
ag283
ag73
ag74
ag284
ag285
ag286
ag287
ag288
ag289
ag290
ag291
ag384
ag76
ag77
ag484
ag292
ag293
ag294
ag295
ag296
ag297
ag298
ag487
ag299
ag300
ag385
ag301
ag302
ag79
ag303
ag304
ag386
ag489
ag305
ag306
ag307
ag490
ag491
ag308
ag309
ag310
ag311
ag81
ag312
ag83
ag495
ag313
ag314
ag84
ag315
ag387
ag316
ag317
ag86
ag318
ag87
ag497
ag319
ag498
ag320
ag321
ag322
ag323
ag324
ag500
ag502
ag389
ag325
ag326
ag88
ag327
ag328
ag329
ag330
ag331
ag332
ag390
ag333
ag334
ag335
ag505
ag336
ag337
ag338
ag339
ag340
ag341
ag508
ag92
aS'ontoolcoleModel.owl'
p790
ag342
ag391
ag343
ag778
ag344
ag345
ag346
ag347
ag348
ag93
ag393
ag349
ag350
ag512
ag351
ag352
ag353
ag354
ag394
ag355
ag356
ag357
asS'oboinowl:format-version'
p791
(lp792
g675
ag474
aS'eol_v4__collaboration.owl'
p793
asS'wob:rdfdocument'
p794
(lp795
g12
asS'vann:preferrednamespaceuri'
p796
(lp797
g623
ag428
ag37
ag38
ag530
ag452
ag39
ag40
ag483
ag41
ag499
ag500
ag501
ag503
ag506
asS'dcterms:publisher'
p798
(lp799
g100
ag102
asS'contributing_author'
p800
(lp801
g641
asS'dc:rights'
p802
(lp803
g424
ag428
ag36
ag58
ag61
ag37
ag452
ag719
ag374
ag462
ag463
aS'vto.owl'
p804
ag378
ag471
ag69
ag744
ag40
ag75
ag483
ag490
ag82
ag497
ag499
ag500
ag501
ag389
ag503
ag89
ag90
ag506
ag91
ag510
asS'oboinowl:treat-xrefs-as-equivalent'
p805
(lp806
g606
aS'vsao.owl'
p807
ag90
asS'omvmmi:contactrole'
p808
(lp809
g105
ag106
ag107
ag109
ag112
ag113
ag117
ag118
ag122
ag123
ag125
ag126
ag127
ag130
ag131
ag132
ag138
ag140
ag141
ag142
ag143
ag146
ag147
ag148
ag150
ag157
ag158
ag159
ag162
ag163
ag165
ag166
ag167
ag170
ag172
ag173
ag174
ag177
ag180
ag181
ag183
ag189
ag192
ag198
ag201
ag202
ag203
ag204
ag210
ag214
ag219
ag223
ag225
ag233
ag235
ag236
ag239
ag242
ag245
ag248
ag252
ag255
ag256
ag258
ag259
ag263
ag265
ag267
ag268
ag271
ag272
ag276
ag278
ag279
ag281
ag287
ag288
ag289
ag290
ag293
ag298
ag299
ag301
ag302
ag304
ag306
ag307
ag314
ag315
ag318
ag320
ag325
ag326
ag328
ag329
ag331
ag333
ag335
ag336
ag337
ag341
ag345
ag348
ag354
ag357
asS'core:historynote'
p810
(lp811
g371
ag382
asS'nemo_annot:synonym'
p812
(lp813
g3
asS'dct:title'
p814
(lp815
g24
aS'ochv.owl'
p816
asS'oboinowl:hasdate'
p817
(lp818
g583
aS'psimi_instance_edit.owl'
p819
aS'ro_bfo_bridge.owl.1'
p820
ag584
ag585
ag586
aS'psimi_instance_edit.owl.1'
p821
asS'omv:usedontologyengineeringtool'
p822
(lp823
g106
ag107
ag109
ag110
ag114
ag116
ag117
ag118
ag119
ag120
ag121
ag122
ag124
ag128
ag129
ag131
ag132
ag133
ag135
ag136
ag138
ag139
ag141
ag142
ag143
ag144
ag145
ag148
ag154
ag155
ag156
ag159
ag160
ag161
ag163
ag164
ag165
ag167
ag168
ag169
ag170
ag171
ag172
ag173
ag174
ag177
ag178
ag181
ag182
ag183
ag184
ag186
ag191
ag193
ag194
ag195
ag197
ag201
ag202
ag204
ag206
ag207
ag208
ag209
ag210
ag211
ag212
ag214
ag215
ag218
ag219
ag221
ag223
ag225
ag226
ag229
ag231
ag233
ag235
ag237
ag241
ag242
ag245
ag247
ag248
ag250
ag251
ag252
ag253
ag254
ag255
ag257
ag258
ag259
ag260
ag261
ag262
ag264
ag265
ag266
ag267
ag268
ag270
ag271
ag272
ag275
ag280
ag282
ag283
ag286
ag287
ag289
ag291
ag292
ag293
ag294
ag297
ag298
ag300
ag301
ag302
ag303
ag304
ag306
ag308
ag310
ag311
ag313
ag315
ag316
ag317
ag318
ag320
ag321
ag322
ag324
ag325
ag328
ag329
ag330
ag331
ag332
ag333
ag335
ag336
ag340
ag341
ag342
ag343
ag344
ag346
ag348
ag349
ag350
ag351
ag352
ag354
ag357
asS'dct:creator'
p824
(lp825
g24
ag723
ag516
ag816
asS'oboinowl:subset'
p826
(lp827
g583
ag584
ag585
asS'terms:rights'
p828
(lp829
g435
ag530
ag626
asS'owl:imports'
p830
(lp831
g360
ag408
aS'XCTontologyvtemp2.owl'
p832
ag409
ag690
ag691
aS'Policy.owl'
p833
ag667
ag411
aS'study_protocol.owl'
p834
ag361
ag28
aS'geno.owl'
p835
aS'stuff.owl'
p836
ag416
aS'iriterms.owl'
p837
ag114
ag53
ag54
aS'ProPreO-052206.owl'
p838
ag417
ag116
aS'ParasiteExperimentOntology_111910_External.owl'
p839
ag419
ag420
ag397
ag423
ag536
ag624
ag55
ag129
ag131
ag426
ag694
aS'to.owl'
p840
ag134
ag427
ag135
ag428
ag364
aS'1471-2105-9-S6-S11-S1.owl'
p841
aS'obo-foundry-core-full-import.owl.1'
p842
ag44
ag696
ag432
ag366
aS'testOntology.owl'
p843
aS'cl.owl'
p844
aS'FreeTime.owl'
p845
aS'ContextLanguage.owl'
p846
aS'matrCompound.owl'
p847
ag144
aS'generic.owl'
p848
ag435
ag436
ag145
ag700
aS'opendaprdf.xml'
p849
ag437
aS'OntoFood.owl'
p850
ag59
ag653
ag786
aS'phylogenetic_methods.owl'
p851
ag31
ag60
aS'ECGOntologyv1.owl'
p852
ag439
aS'cedexAuxilliary.owl.1'
p853
ag156
aS'go-plus.owl.crdownload.xml'
p854
ag704
aS'sciUnits.owl'
p855
aS'DQOntology.owl'
p856
ag368
ag705
aS'phys.owl'
p857
aS'pma.owl'
p858
ag160
aS'ISO-15926-2_2003_annotations.xml'
p859
ag163
ag165
ag166
ag708
ag32
ag787
ag709
aS'Action.owl'
p860
aS'DSOBar.owl'
p861
ag441
ag710
aS'hyper_ontology.owl.2'
p862
ag171
aS'a7_group78.owl.xml'
p863
ag172
ag174
ag442
ag369
ag370
ag664
aS'HPI.owl'
p864
aS'TemporalRelationsGFOMerged.owl'
p865
ag443
ag38
aS'gfo-bio.owl'
p866
aS'math.owl'
p867
ag712
ag183
aS'Geography.owl'
p868
ag530
aS'obo-foundry-core-full-import.owl.2'
p869
ag62
ag12
aS'NPOntology01.owl'
p870
aS'vertebrate-gross-anatomy.owl.1'
p871
ag447
ag714
ag448
aS'biolPlant.owl'
p872
ag196
aS'chemState.owl'
p873
aS'matrRockIgneous.owl'
p874
ag716
aS'ooevv_odp_0.0.4.owl'
p875
aS'FamilyHealthHistory.owl'
p876
ag452
ag453
ag718
aS'Atom.owl'
p877
aS'omit.owl'
p878
aS'TFBS.owl'
p879
ag458
ag459
ag371
ag460
ag66
aS'CoalitionPolicy.owl'
p880
ag210
ag211
ag15
aS'InheritanceProfile.owl'
p881
aS'datatype.owl'
p882
ag67
ag788
ag723
ag373
ag33
ag724
ag725
ag625
aS'obo-foundry-core.owl'
p883
ag374
ag221
ag728
ag463
ag730
ag731
ag464
aS'ContextVocabulary.owl'
p884
aS'Place.owl'
p885
ag466
aS'CancerChemopreventionOntology.owl'
p886
ag516
ag734
aS'MODS_RDF_Ontology.rdf'
p887
ag39
aS'pizzas2_7.owl'
p888
ag68
ag736
ag238
ag3
aS'BioPortalMetadata.owl'
p889
aS'History.owl'
p890
ag739
ag243
aS'gfo-bio.owl.1'
p891
ag654
aS'ntdo.owl'
p892
aS'sequence.owl'
p893
ag378
ag668
ag471
aS'ip4.owl'
p894
aS'InformationOntology.owl'
p895
ag741
aS'ppo.owl'
p896
ag473
ag251
aS'workflowOntology.owl'
p897
aS'matrElement.owl'
p898
aS'tagging_vocabulary.owl'
p899
ag742
ag25
aS'oo.owl'
p900
ag18
aS'spaceDistribution.owl'
p901
ag261
ag577
ag477
ag479
ag789
aS'ActionStatus.owl'
p902
aS'CogPO12142010.owl'
p903
ag266
aS'behavior.owl'
p904
aS'lipid-classification-service-ontology.owl'
p905
ag70
ag745
ag746
ag270
aS'obo.owl.2'
p906
aS'link-obo.owl'
p907
ag747
aS'Delegation.owl'
p908
ag748
ag655
ag380
aS'propChemical.owl'
p909
ag578
ag481
aS'spaceDirection.owl'
p910
aS'cedexMeta.owl'
p911
aS'PVOnto-v0.1.owl'
p912
aS'MyOntoServiceFull_FallDetection.owl'
p913
ag750
ag280
aS'matrRock.owl'
p914
aS'human.owl'
p915
ag752
ag75
ag286
ag755
ag288
aS'Entity.owl'
p916
ag289
aS'food.owl'
p917
ag384
ag76
aS'oba.owl'
p918
ag77
ag756
aS'chem.owl'
p919
ag757
ag586
aS'space.owl'
p920
ag759
ag296
ag297
aS'matrMineral.owl'
p921
ag385
ag79
aS'obo-foundry-core.owl.1'
p922
ag488
aS'Amigo.owl'
p923
ag532
aS'ontology_12.owl'
p924
ag533
ag489
aS'sweetAll.owl'
p925
ag490
ag80
ag491
ag492
ag765
ag494
ag83
aS'opmo-20101012.owl'
p926
ag495
aS'Coalition.owl'
p927
ag313
ag85
ag387
aS'iribib.owl'
p928
ag86
ag87
ag497
aS'BFORO.owl'
p929
aS'matrOrganicCompound.owl'
p930
ag321
ag769
ag324
ag770
ag499
ag500
ag501
aS'Actor.owl'
p931
ag502
ag389
ag671
aS'SpatialRelationsBFOMerged.owl'
p932
ag503
ag89
ag771
ag329
ag330
aS'aero.owl'
p933
ag332
ag390
ag773
ag90
aS'iricrosswalk.owl.1'
p934
ag774
aS'FunctionalParticipationGFO-basicMerged.owl'
p935
aS'matrNaturalResource.owl'
p936
ag337
aS'ProPreO-060506.owl'
p937
aS'Ontobio_01072013.owl'
p938
ag91
aS'Support_RM.owl'
p939
aS'caad.3.0.rdf.owl'
p940
aS'Group.owl'
p941
aS'context-logic.owl.1'
p942
ag92
aS'GlycO_0_9.owl'
p943
ag509
aS'aaaaa.owl'
p944
ag391
ag510
ag343
ag778
aS'topology.owl'
p945
ag344
ag346
ag780
ag93
ag392
aS'ethernet.owl'
p946
ag393
aS'biolAnimal.owl'
p947
ag783
ag351
aS'AIDSClinic002 (1).owl'
p948
ag513
asS'meta:bookmark'
p949
(lp950
g66
asS'j.3:curationstatus'
p951
(lp952
g28
asS'cc:licence'
p953
(lp954
g75
asS'omvmmi:origvockeywords'
p955
(lp956
g107
ag117
ag122
ag123
ag126
ag130
ag132
ag143
ag158
ag159
ag167
ag180
ag198
ag202
ag236
ag239
ag242
ag248
ag256
ag263
ag271
ag335
ag345
asS'dcterms:title'
p957
(lp958
g100
ag102
asS'skos:definition'
p959
(lp960
g36
ag723
ag728
ag465
asS'title'
p961
(lp962
S'rddl.owl'
p963
asS'obo_annot:createddate'
p964
(lp965
g360
ag432
ag369
ag371
ag388
ag509
asS'cpannotationschema:isspecializationof'
p966
(lp967
g32
asS'rdf:description'
p968
(lp969
g877
ag501
asS'terms:publisher'
p970
(lp971
g626
asS'dct:description'
p972
(lp973
g24
ag516
ag816
asS'dcterms:rights'
p974
(lp975
g100
asS'omvmmi:origmaintainercode'
p976
(lp977
g105
ag106
ag107
ag108
ag109
ag110
ag111
ag112
ag113
ag114
ag115
ag116
ag117
ag118
ag119
ag120
ag121
ag122
ag123
ag124
ag125
ag126
ag127
ag128
ag129
ag130
ag131
ag132
ag133
ag134
ag135
ag136
ag137
ag138
ag139
ag140
ag141
ag142
ag143
ag144
ag145
ag146
ag147
ag148
ag149
ag150
ag151
ag152
ag153
ag154
ag155
ag156
ag157
ag158
ag159
ag160
ag161
ag162
ag163
ag164
ag165
ag166
ag167
ag168
ag169
ag170
ag171
ag172
ag173
ag174
ag175
ag176
ag177
ag178
ag179
ag180
ag181
ag182
ag183
ag184
ag185
ag186
ag187
ag188
ag189
ag190
ag191
ag192
ag193
ag194
ag195
ag196
ag197
ag198
ag199
ag200
ag201
ag202
ag203
ag204
ag205
ag206
ag207
ag208
ag209
ag210
ag211
ag212
ag213
ag214
ag215
ag216
ag217
ag218
ag219
ag220
ag221
ag222
ag223
ag224
ag225
ag226
ag227
ag228
ag229
ag230
ag231
ag232
ag233
ag234
ag235
ag236
ag237
ag238
ag239
ag240
ag241
ag242
ag243
ag244
ag245
ag246
ag247
ag248
ag249
ag250
ag251
ag252
ag253
ag254
ag255
ag256
ag257
ag258
ag259
ag260
ag261
ag262
ag263
ag264
ag265
ag266
ag267
ag268
ag269
ag270
ag271
ag272
ag273
ag274
ag275
ag276
ag277
ag278
ag279
ag280
ag281
ag282
ag283
ag284
ag285
ag286
ag287
ag288
ag289
ag290
ag291
ag292
ag293
ag294
ag295
ag296
ag297
ag298
ag299
ag300
ag301
ag302
ag303
ag304
ag305
ag306
ag307
ag308
ag309
ag310
ag311
ag312
ag313
ag314
ag315
ag316
ag317
ag318
ag319
ag320
ag321
ag322
ag323
ag324
ag325
ag326
ag327
ag328
ag329
ag330
ag331
ag332
ag333
ag334
ag335
ag336
ag337
ag338
ag339
ag340
ag341
ag342
ag343
ag344
ag345
ag346
ag347
ag348
ag349
ag350
ag351
ag352
ag353
ag354
ag355
ag356
ag357
asS'prov:has_provenance'
p978
(lp979
g102
asS'dcterms:bibliographiccitation'
p980
(lp981
g37
asS'specializationof'
p982
(lp983
g403
asS'rdfs:isdefinedby'
p984
(lp985
g428
ag698
ag452
ag96
ag97
ag668
ag483
ag669
ag499
ag671
ag503
ag390
ag48
ag506
ag945
asS'oboinowl:saved-by'
p986
(lp987
S'chmo.owl'
p988
ag840
ag44
ag605
aS'go.owl'
p989
ag854
aS'zeco.owl'
p990
ag606
aS'wbls.owl'
p991
aS'trans.owl'
p992
aS'wbbt.owl'
p993
ag807
aS'wbphenotype.owl'
p994
ag878
aS'tto.owl'
p995
ag607
ag45
aS'pw.owl'
p996
aS'zfs.owl'
p997
ag597
aS'dpo.owl'
p998
aS'vario.owl'
p999
ag675
ag474
ag69
ag793
aS'omp.owl'
p1000
aS'rs.owl'
p1001
ag918
aS'xco.owl'
p1002
aS'bila.owl'
p1003
ag608
aS'plant-environment-ontology.obo.owl'
p1004
asS'doap:gitrepository'
p1005
(lp1006
g90
asS'oboinowl:hasdefaultnamespace'
p1007
(lp1008
g583
ag819
ag820
ag584
ag585
ag586
ag821
asS'dct:issued'
p1009
(lp1010
g501
asS'edamontology1:next_id'
p1011
(lp1012
g97
asS'oboinowl:hasversion'
p1013
(lp1014
S'FunctionalParticipationBFOMappings.owl'
p1015
asS'vann:preferrednamespaceprefix'
p1016
(lp1017
g600
ag623
ag428
ag435
ag37
ag38
ag530
ag452
ag516
ag39
ag471
ag40
ag75
ag483
ag41
ag499
ag500
ag501
ag503
ag506
asS'dc:language'
p1018
(lp1019
g55
ag56
ag58
ag61
ag62
ag63
ag12
ag64
ag65
ag449
ag66
ag68
ag69
ag71
ag72
ag751
ag73
ag74
ag81
ag82
ag84
ag86
ag88
asS'dcat:landingpage'
p1020
(lp1021
g78
ag80
asS'doap:svnrepository'
p1022
(lp1023
g90
asS'j.0:editorialnote'
p1024
(lp1025
g18
asS'cpannotationschema:relatedcps'
p1026
(lp1027
g653
ag32
ag654
ag655
asS'foaf:primarytopic'
p1028
(lp1029
g530
asS'skos:historynote'
p1030
(lp1031
g75
asS'terms:date'
p1032
(lp1033
g435
asS'dc:source'
p1034
(lp1035
g105
ag106
ag107
ag109
ag112
ag117
ag122
ag123
ag126
ag127
ag130
ag132
ag142
ag143
ag146
ag147
ag21
ag148
ag61
ag158
ag159
ag162
ag398
ag166
ag167
ag177
ag180
ag189
ag192
ag198
ag202
ag203
ag204
ag213
ag215
ag222
ag464
ag236
ag738
ag239
ag242
ag245
ag248
ag249
ag250
ag252
ag256
ag69
ag258
ag259
ag265
ag267
ag271
ag272
ag72
ag278
ag279
aS'cmpo.owl'
p1036
ag290
ag293
ag306
ag307
ag82
ag314
ag317
ag326
ag90
ag335
ag339
ag342
ag345
ag347
ag348
ag349
ag352
asS'omvmmi:origvocversionid'
p1037
(lp1038
g123
ag126
ag146
ag177
ag203
ag236
ag245
ag256
ag259
ag263
ag265
ag272
ag287
ag290
ag298
ag306
asS'terms:license'
p1039
(lp1040
g623
ag625
ag744
ag626
asS'obo:remark'
p1041
(lp1042
g97
asS'rdfs:label'
p1043
(lp1044
g690
ag600
ag583
ag54
ag623
ag420
ag692
ag694
ag56
aS'RackMultipart20131119-17178-uc75i6.xml'
p1045
ag537
ag820
ag697
ag847
ag698
ag653
ag584
ag61
aS'PoliticianStateOntology_03.owl'
p1046
aS'networkA.owl'
p1047
ag650
ag708
ag37
ag664
ag443
ag713
ag62
ag12
ag64
ag714
ag194
ag65
ag874
aS'ds.owl.1'
p1048
ag716
ag450
ag718
ag720
ag459
ag15
ag33
ag725
ag101
ag540
ag730
ag464
ag466
ag516
ag68
ag737
ag102
ag654
ag470
aS'ontologie_toxnuc_20140817.owl'
p1049
ag668
ag741
ag896
ag898
ag542
ag25
ag69
aS'rdfcache.owl.1'
p1050
ag543
ag585
aS'oboInOwl.owl'
p1051
ag40
ag909
ag750
ag751
ag73
ag74
ag914
ag1036
ag544
ag545
ag546
ag586
ag486
ag759
ag921
ag669
ag78
ag532
ag533
ag925
ag307
ag80
ag492
ag765
ag81
ag766
ag926
ag84
ag767
ag930
ag671
ag88
ag771
ag936
ag403
ag778
ag547
ag672
asS'obo_annot:modifieddate'
p1052
(lp1053
g360
ag432
ag369
ag371
ag388
ag509
asS'doap:mailing-list'
p1054
(lp1055
g90
asS'dcterms:format'
p1056
(lp1057
g102
asS'skos:preflabel'
p1058
(lp1059
g36
ag723
ag728
ag480
ag78
ag80
asS'terms:identifier'
p1060
(lp1061
g428
ag452
ag483
ag499
ag503
ag506
asS'omvmmi:origvocdocumentationuri'
p1062
(lp1063
g107
ag109
ag117
ag122
ag123
ag126
ag130
ag132
ag138
ag142
ag143
ag146
ag158
ag159
ag166
ag167
ag170
ag177
ag180
ag198
ag202
ag203
ag236
ag239
ag242
ag245
ag248
ag256
ag258
ag259
ag265
ag271
ag272
ag278
ag293
ag307
ag335
ag341
ag345
ag357
asS'ns0:defaultlanguage'
p1064
(lp1065
g428
ag452
ag483
ag499
ag503
ag506
asS'foaf:organization'
p1066
(lp1067
g39
asS'oboother:default-relationship-id-prefix'
p1068
(lp1069
g48
asS'owl:incompatiblewith'
p1070
(lp1071
g720
ag3
ag102
asS'j.18:editorialnote'
p1072
(lp1073
g28
asS'dct:date'
p1074
(lp1075
g723
ag516
ag501
asS'dcterms:license'
p1076
(lp1077
g100
ag101
ag102
ag80
asS'relationship:idspace'
p1078
(lp1079
g474
asS'tool'
p1080
(lp1081
g194
asS'void:datadump'
p1082
(lp1083
g364
asS'oboother:remark'
p1084
(lp1085
g48
asS'dce:creator'
p1086
(lp1087
g728
asS'terms:title'
p1088
(lp1089
g623
ag624
ag435
ag530
ag626
asS'obo:format-version'
p1090
(lp1091
S'Exo-CSEOv1.2_BFO_FINAL_merged_2.owl'
p1092
ag744
asS'dc:license'
p1093
(lp1094
g408
ag361
ag419
ag420
ag426
ag431
ag366
ag844
ag367
ag457
ag372
ag464
ag376
ag738
ag742
ag524
ag476
ag379
ag478
ag380
ag381
ag383
ag491
ag390
ag778
asS'foaf:homepage'
p1095
(lp1096
g361
ag435
ag460
ag464
ag102
ag476
ag380
ag390
ag90
asS'technical_support'
p1097
(lp1098
g641
asS'omv:description'
p1099
(lp1100
g105
ag106
ag107
ag108
ag109
ag110
ag111
ag112
ag113
ag114
ag115
ag116
ag117
ag118
ag119
ag120
ag121
ag122
ag123
ag124
ag125
ag126
ag127
ag128
ag129
ag130
ag131
ag132
ag133
ag134
ag135
ag136
ag137
ag138
ag139
ag140
ag141
ag142
ag143
ag144
ag145
ag146
ag147
ag148
ag149
ag150
ag151
ag152
ag153
ag154
ag155
ag156
ag157
ag158
ag159
ag160
ag161
ag162
ag163
ag164
ag165
ag166
ag167
ag168
ag169
ag170
ag171
ag172
ag173
ag174
ag175
ag176
ag177
ag178
ag179
ag180
ag181
ag182
ag183
ag184
ag185
ag186
ag187
ag188
ag189
ag190
ag191
ag192
ag193
ag194
ag195
ag196
ag197
ag198
ag199
ag200
ag201
ag202
ag203
ag204
ag205
ag206
ag207
ag208
ag209
ag210
ag211
ag212
ag213
ag214
ag215
ag216
ag217
ag218
ag219
ag220
ag221
ag222
ag223
ag224
ag225
ag226
ag227
ag228
ag229
ag230
ag231
ag232
ag233
ag234
ag235
ag236
ag237
ag238
ag239
ag240
ag241
ag242
ag243
ag244
ag245
ag246
ag247
ag248
ag249
ag250
ag251
ag252
ag253
ag254
ag255
ag256
ag257
ag258
ag259
ag260
ag261
ag262
ag263
ag264
ag265
ag266
ag267
ag268
ag269
ag270
ag271
ag272
ag273
ag274
ag275
ag276
ag277
ag278
ag279
ag280
ag281
ag282
ag283
ag284
ag285
ag286
ag287
ag288
ag289
ag290
ag291
ag292
ag293
ag294
ag295
ag296
ag297
ag298
ag299
ag300
ag301
ag302
ag303
ag304
ag305
ag306
ag307
ag308
ag309
ag310
ag311
ag312
ag313
ag314
ag315
ag316
ag317
ag318
ag319
ag320
ag321
ag322
ag323
ag324
ag325
ag326
ag327
ag328
ag329
ag330
ag331
ag332
ag333
ag334
ag335
ag336
ag337
ag338
ag339
ag340
ag341
ag342
ag343
ag344
ag345
ag346
ag347
ag348
ag349
ag350
ag351
ag352
ag353
ag354
ag355
ag356
ag357
asS'primary_author_and_curator'
p1101
(lp1102
g641
asS'cpannotationschema:hasunittest'
p1103
(lp1104
g32
asS'oboinowl:comment'
p1105
(lp1106
g474
asS'oboinowl:treat-xrefs-as-has-subclass'
p1107
(lp1108
g90
asS'doc:version'
p1109
(lp1110
g963
asS'owl:versioniri'
p1111
(lp1112
g600
ag624
ag988
ag840
ag428
ag363
ag36
aS'taxrank.owl'
p1113
ag44
ag844
ag435
aS'sibo.owl'
p1114
ag436
ag605
ag989
aS'rxno.owl'
p1115
ag854
ag606
ag991
ag992
ag100
ag993
ag807
aS'cio.owl'
p1116
ag994
ag452
ag455
ag878
ag457
ag460
ag607
ag996
aS'plana.owl'
p1117
ag726
ag625
ag997
ag464
aS'agro.owl'
p1118
ag998
ag738
ag999
aS'olatdv.owl'
p1119
ag102
ag804
ag378
ag471
ag473
ag524
ag476
ag904
ag1000
ag1001
ag1036
ag483
ag383
ag1002
ag1003
ag608
aS'PxOmetazoa.owl.crdownload.xml'
p1120
ag498
ag499
ag501
ag503
aS'pdumdv.owl'
p1121
ag641
ag90
ag506
ag507
ag403
ag778
ag780
aS'lifestyle.owl'
p1122
asS'dce:subject'
p1123
(lp1124
g728
asS'cpannotationschema:scenarios'
p1125
(lp1126
g653
ag32
ag459
ag33
ag654
ag655
asS'cpannotationschema:extractedfrom'
p1127
(lp1128
g653
ag31
ag33
ag654
ag655
asS'oboinowl:date'
p1129
(lp1130
g605
ag989
ag854
ag990
ag606
ag991
ag992
ag993
ag807
aS'upheno.owl'
p1131
ag994
ag878
ag995
ag607
ag45
ag996
ag997
ag597
ag998
ag999
ag675
ag69
ag793
ag1000
ag1001
ag918
ag1002
ag1003
ag608
ag1004
asS'owl:backwardcompatiblewith'
p1132
(lp1133
g102
ag500
asS'omvmmi:hasresourcetype'
p1134
(lp1135
g106
ag108
ag109
ag110
ag112
ag113
ag114
ag116
ag117
ag118
ag119
ag120
ag121
ag122
ag123
ag124
ag126
ag128
ag129
ag130
ag131
ag132
ag133
ag134
ag135
ag136
ag138
ag139
ag141
ag142
ag143
ag144
ag145
ag147
ag148
ag154
ag155
ag156
ag158
ag160
ag161
ag163
ag164
ag165
ag168
ag169
ag170
ag171
ag172
ag173
ag174
ag177
ag178
ag179
ag180
ag181
ag182
ag183
ag184
ag186
ag191
ag192
ag193
ag194
ag195
ag197
ag198
ag201
ag202
ag203
ag206
ag207
ag208
ag209
ag210
ag211
ag212
ag214
ag215
ag218
ag219
ag221
ag222
ag223
ag225
ag226
ag227
ag229
ag231
ag232
ag233
ag235
ag236
ag237
ag238
ag239
ag241
ag243
ag245
ag247
ag248
ag249
ag250
ag251
ag252
ag253
ag254
ag255
ag256
ag257
ag258
ag259
ag260
ag261
ag262
ag264
ag265
ag266
ag267
ag268
ag270
ag271
ag272
ag275
ag278
ag279
ag280
ag282
ag283
ag285
ag286
ag287
ag288
ag289
ag290
ag292
ag293
ag294
ag296
ag297
ag298
ag300
ag301
ag302
ag303
ag306
ag307
ag310
ag311
ag312
ag313
ag315
ag316
ag317
ag318
ag320
ag321
ag322
ag323
ag324
ag325
ag328
ag329
ag330
ag331
ag332
ag333
ag335
ag336
ag338
ag340
ag341
ag342
ag343
ag344
ag345
ag346
ag347
ag348
ag349
ag350
ag351
ag352
ag354
ag356
ag357
asS'obo:iao_0000116'
p1136
(lp1137
g362
ag365
ag366
ag367
ag457
ag372
ag377
ag498
ag393
asS'omvmmi:contact'
p1138
(lp1139
g105
ag106
ag107
ag109
ag112
ag113
ag117
ag118
ag122
ag123
ag124
ag125
ag126
ag127
ag130
ag132
ag136
ag138
ag140
ag142
ag143
ag146
ag147
ag150
ag157
ag158
ag159
ag162
ag163
ag166
ag167
ag170
ag172
ag173
ag177
ag180
ag181
ag189
ag192
ag198
ag202
ag203
ag204
ag207
ag208
ag210
ag223
ag225
ag233
ag235
ag236
ag239
ag242
ag245
ag247
ag248
ag252
ag255
ag256
ag258
ag259
ag263
ag265
ag267
ag268
ag271
ag272
ag276
ag278
ag279
ag281
ag282
ag286
ag287
ag288
ag289
ag290
ag293
ag297
ag298
ag299
ag301
ag302
ag304
ag307
ag311
ag314
ag320
ag325
ag326
ag335
ag336
ag337
ag341
ag344
ag345
ag348
ag351
ag354
ag357
asS'omvmmi:origvocmanager'
p1140
(lp1141
g105
ag106
ag107
ag109
ag112
ag113
ag117
ag122
ag123
ag125
ag126
ag130
ag131
ag132
ag138
ag140
ag142
ag143
ag146
ag148
ag150
ag157
ag158
ag159
ag161
ag163
ag165
ag166
ag167
ag170
ag172
ag173
ag174
ag177
ag181
ag183
ag189
ag190
ag192
ag198
ag201
ag202
ag203
ag204
ag208
ag210
ag213
ag214
ag216
ag219
ag223
ag225
ag233
ag235
ag236
ag239
ag242
ag245
ag248
ag249
ag252
ag255
ag256
ag258
ag259
ag263
ag265
ag267
ag268
ag271
ag272
ag276
ag278
ag279
ag286
ag287
ag288
ag289
ag290
ag293
ag297
ag298
ag299
ag301
ag302
ag304
ag306
ag314
ag315
ag318
ag320
ag325
ag328
ag329
ag331
ag333
ag335
ag336
ag337
ag341
ag342
ag344
ag345
ag348
ag351
ag354
ag357
asS'chmo:has_format-version'
p1142
(lp1143
g988
asS'omv:acronym'
p1144
(lp1145
g105
ag106
ag107
ag108
ag109
ag110
ag111
ag112
ag113
ag114
ag115
ag116
ag117
ag118
ag119
ag120
ag121
ag122
ag123
ag124
ag125
ag126
ag127
ag128
ag129
ag130
ag131
ag132
ag133
ag134
ag135
ag136
ag137
ag138
ag139
ag140
ag141
ag142
ag143
ag144
ag145
ag146
ag147
ag148
ag149
ag150
ag151
ag152
ag153
ag154
ag155
ag156
ag157
ag158
ag159
ag160
ag161
ag162
ag163
ag164
ag165
ag166
ag167
ag168
ag169
ag170
ag171
ag172
ag173
ag174
ag175
ag176
ag177
ag178
ag179
ag180
ag181
ag182
ag183
ag184
ag185
ag186
ag187
ag188
ag189
ag190
ag191
ag192
ag193
ag194
ag195
ag196
ag197
ag198
ag199
ag200
ag201
ag202
ag203
ag204
ag205
ag206
ag207
ag208
ag209
ag210
ag211
ag212
ag213
ag214
ag215
ag216
ag217
ag218
ag219
ag220
ag221
ag222
ag223
ag224
ag225
ag226
ag227
ag228
ag229
ag230
ag231
ag232
ag233
ag234
ag235
ag236
ag237
ag238
ag239
ag240
ag241
ag242
ag243
ag244
ag245
ag246
ag247
ag248
ag249
ag250
ag251
ag252
ag253
ag254
ag255
ag256
ag257
ag258
ag259
ag260
ag261
ag262
ag263
ag264
ag265
ag266
ag267
ag268
ag269
ag270
ag271
ag272
ag273
ag274
ag275
ag276
ag277
ag278
ag279
ag280
ag281
ag282
ag283
ag284
ag285
ag286
ag287
ag288
ag289
ag290
ag291
ag292
ag293
ag294
ag295
ag296
ag297
ag298
ag299
ag300
ag301
ag302
ag303
ag304
ag305
ag306
ag307
ag308
ag309
ag310
ag311
ag312
ag313
ag314
ag315
ag316
ag317
ag318
ag319
ag320
ag321
ag322
ag323
ag324
ag325
ag326
ag327
ag328
ag329
ag330
ag331
ag332
ag333
ag334
ag335
ag336
ag337
ag338
ag339
ag340
ag341
ag342
ag343
ag344
ag345
ag346
ag347
ag348
ag349
ag350
ag351
ag352
ag353
ag354
ag355
ag356
ag357
asS'dcterms:created'
p1146
(lp1147
g398
ag78
ag80
asS'j.14:pendingactionnote'
p1148
(lp1149
g28
asS'rdfs:comment'
p1150
(lp1151
g408
ag409
ag690
ag691
ag833
ag667
ag411
ag834
ag412
ag600
ag361
ag28
ag835
ag414
ag583
ag415
ag836
aS'SensorOntology20090320.owl.xml'
p1152
ag837
ag54
ag417
ag819
ag419
ag420
ag397
aS'out15.owl'
p1153
ag624
ag424
ag692
ag693
ag426
ag694
ag56
ag695
ag1045
ag363
ag36
ag430
ag1113
ag820
ag696
ag432
ag433
ag697
ag844
ag698
ag699
ag700
ag701
ag437
ag438
ag989
aS'OntoWAWO+.owl'
p1154
ag584
ag439
ag702
aS'statistics.owl'
p1155
ag854
ag703
ag704
aS'OntoKBCF1301new.owl'
p1156
ag705
ag859
ag1047
ag650
ag706
ag991
ag32
ag860
ag441
ag710
ag711
aS'BFOROGFO-basicMappings.owl'
p1157
ag993
ag37
ag664
ag865
ag443
ag444
ag445
ag446
ag712
ag713
ag12
ag871
ag447
ag64
aS'STO.owl'
p1158
ag714
ag448
ag65
ag1048
ag449
ag716
aS'Normalisation-demo-hormones-01-01.owl'
p1159
ag451
ag453
ag718
ag454
ag877
ag455
ag720
ag878
ag457
ag995
ag458
ag459
ag721
ag66
ag881
ag722
ag725
ag726
ag625
ag374
ag101
ag729
ag463
ag730
ag731
ag732
ag464
ag885
ag466
ag467
ag1118
ag468
aS'leo.owl'
p1160
ag39
ag735
ag998
aS'TemporalRelationsGFO-basicMappings.owl'
p1161
ag68
ag736
ag737
ag738
ag999
ag1119
ag102
ag739
ag97
ag740
ag891
ag654
ag470
ag1049
ag668
ag471
aS'biopax-level2.owl'
p1162
ag741
ag472
ag1015
ag473
ag742
ag475
ag743
ag524
ag25
ag476
ag69
ag1050
ag744
aS'functions.owl.2'
p1163
aS'Breast cell line ontology.owl'
p1164
ag531
aS'DebianDpkgDist.owl'
p1165
ag585
ag478
ag479
ag902
ag745
ag1051
ag746
ag906
ag748
ag72
ag749
ag527
ag655
ag578
ag481
aS'biopax-level3.owl'
p1166
ag482
ag1000
ag750
ag73
ag74
ag752
ag753
ag755
ag916
ag917
ag918
ag756
ag485
aS'bca00030.owl'
p1167
ag586
ag758
ag760
ag761
ag669
ag488
ag608
ag532
ag763
ag533
ag489
ag764
ag307
ag490
ag41
ag492
ag493
aS'obo.owl.1'
p1168
ag765
aS'study_design.owl'
p1169
ag81
ag312
ag766
ag84
ag1120
ag767
ag387
ag928
ag496
aS'venom_ontology.xml'
p1170
ag670
ag497
ag929
ag498
aS'SpatialRelationsBFOMappings.owl'
p1171
ag821
ag769
ag770
ag500
ag501
ag931
ag502
ag389
ag671
ag932
ag88
ag771
ag1121
ag504
ag641
ag933
ag773
ag90
ag774
ag935
ag775
ag403
aS'skeleton.owl'
p1172
ag776
ag777
ag91
ag939
ag941
ag509
aS'citygml2.0.owl'
p1173
ag944
ag391
ag510
ag778
ag779
ag945
ag780
ag511
ag781
ag782
ag6
ag783
ag672
ag513
asS'oboinowl:hasoboformatversion'
p1174
(lp1175
g988
ag840
aS'NMOSp.owl'
p1176
ag1113
ag44
ag605
ag989
ag1115
ag854
ag990
ag606
ag991
ag992
ag993
ag807
ag1131
ag1116
ag994
ag878
ag995
ag607
ag45
ag996
ag1117
ag997
ag597
ag998
ag999
ag1119
ag1000
ag1001
ag918
ag1002
ag1003
ag608
ag1121
ag1004
asS'terms:modified'
p1177
(lp1178
g428
ag530
ag452
ag483
ag499
ag503
ag506
asS'omv:version'
p1179
(lp1180
g106
ag108
ag109
ag110
ag113
ag114
ag116
ag117
ag118
ag119
ag121
ag122
ag123
ag124
ag126
ag128
ag129
ag130
ag131
ag132
ag133
ag135
ag136
ag138
ag139
ag142
ag143
ag144
ag145
ag155
ag156
ag158
ag160
ag161
ag163
ag165
ag169
ag170
ag171
ag172
ag173
ag174
ag177
ag180
ag181
ag182
ag183
ag184
ag186
ag191
ag194
ag198
ag201
ag202
ag203
ag207
ag208
ag210
ag211
ag212
ag214
ag218
ag219
ag221
ag223
ag225
ag226
ag227
ag232
ag233
ag235
ag236
ag237
ag239
ag241
ag245
ag247
ag248
ag251
ag252
ag253
ag254
ag255
ag256
ag257
ag258
ag261
ag262
ag264
ag265
ag266
ag267
ag268
ag270
ag271
ag272
ag275
ag278
ag280
ag282
ag283
ag285
ag286
ag287
ag289
ag292
ag293
ag294
ag297
ag298
ag300
ag301
ag302
ag303
ag306
ag311
ag312
ag313
ag315
ag316
ag318
ag320
ag321
ag322
ag323
ag324
ag325
ag328
ag329
ag330
ag331
ag332
ag333
ag335
ag336
ag340
ag341
ag343
ag344
ag345
ag346
ag347
ag348
ag349
ag350
ag351
ag354
ag356
ag357
asS'prism:doi'
p1181
(lp1182
g78
ag80
asS'oboinowl:treat-xrefs-as-is_a'
p1183
(lp1184
g44
ag45
ag90
asS'dc:title'
p1185
(lp1186
g360
ag408
ag409
ag112
ag410
ag411
ag413
ag361
ag28
ag416
ag53
ag54
ag417
ag418
ag397
ag423
ag536
ag424
ag55
ag56
ag362
ag428
ag36
ag364
ag365
ag432
ag366
ag58
ag146
ag147
ag21
ag149
ag59
ag438
ag367
aS'Skin Physiology Ontology 2.0.owl'
p1187
ag151
ag60
ag854
ag61
ag368
ag440
ag162
ag398
ag442
ag369
ag175
ag370
ag37
ag664
ag443
ag38
ag712
ag62
ag63
ag192
ag64
ag65
ag200
ag450
ag452
ag458
ag371
ag460
ag66
ag372
ag67
ag216
ag217
ag461
ag373
ag374
ag220
ag462
ag222
ag463
ag96
ag375
ag465
ag227
ag468
ag376
ag469
ag39
ag377
ag68
ag738
ag97
ag378
ag471
ag249
ag69
ag379
ag18
ag577
ag477
ag70
ag71
ag40
ag72
ag380
ag578
ag381
ag382
ag278
ag279
ag751
ag73
ag74
ag75
ag483
ag383
ag290
ag917
ag384
ag76
ag77
ag484
ag487
ag385
ag79
ag488
ag386
ag489
ag490
ag41
ag81
ag82
ag83
ag926
ag495
ag84
ag85
ag387
ag86
ag87
ag497
ag388
ag499
ag500
ag501
ag389
ag503
ag88
ag89
ag390
ag90
ag334
ag505
ag48
ag506
ag91
ag339
ag92
ag509
ag391
ag510
ag93
ag392
ag393
ag6
ag394
ag513
asS'cpannotationschema:hasconsequences'
p1188
(lp1189
g653
ag32
ag459
ag33
ag654
ag655
asS'dct:hasformat'
p1190
(lp1191
g501
asS'dcterms:language'
p1192
(lp1193
g102
asS'doap:version'
p1194
(lp1195
g96
ag97
ag48
asS'j.0:defaultlanguage'
p1196
(lp1197
g869
ag883
ag388
ag392
asS'dce:date'
p1198
(lp1199
g728
asS'obo:date'
p1200
(lp1201
g96
ag97
asS'oboinowl:default-namespace'
p1202
(lp1203
g840
ag1113
ag44
ag1114
ag605
ag989
ag1115
ag854
ag990
ag606
ag991
ag992
ag993
ag807
ag1131
ag1116
ag994
ag878
ag995
ag607
ag45
ag996
ag997
ag597
ag998
ag999
ag1119
ag1000
ag1001
ag1036
ag918
ag1002
ag1003
ag608
ag1121
ag90
ag1004
asS'j.0:imports'
p1204
(lp1205
g91
asS'j.14:createddate'
p1206
(lp1207
g28
asS'dcterms:subject'
p1208
(lp1209
g78
ag80
asS'ns0:license'
p1210
(lp1211
g25
asS'dc:identifier'
p1212
(lp1213
g55
ag61
ag63
ag66
ag69
ag71
ag72
ag493
ag82
ag86
ag89
asS'doap:bug-database'
p1214
(lp1215
g90
asS'core:editorialnote'
p1216
(lp1217
g360
ag368
ag369
ag382
ag388
ag392
asS'dc:format'
p1218
(lp1219
g411
ag361
ag397
ag55
ag56
ag362
ag365
ag366
ag438
ag367
ag61
ag370
ag443
ag62
ag63
ag64
ag65
ag66
ag372
ag374
ag96
ag377
ag68
ag97
ag69
ag379
ag71
ag72
ag380
ag381
ag751
ag73
ag74
ag383
ag384
ag386
ag81
ag82
ag84
ag86
ag389
ag88
ag89
ag390
ag48
ag510
ag393
ag394
asS'note'
p1220
(lp1221
g720
asS'cpannotationschema:coversrequirements'
p1222
(lp1223
g653
ag32
ag459
ag33
ag654
ag655
asS'omv:keywords'
p1224
(lp1225
g105
ag106
ag107
ag108
ag109
ag113
ag116
ag117
ag119
ag121
ag122
ag123
ag124
ag125
ag126
ag128
ag130
ag131
ag132
ag133
ag136
ag138
ag139
ag142
ag143
ag146
ag148
ag150
ag151
ag155
ag157
ag158
ag159
ag161
ag163
ag165
ag166
ag167
ag169
ag170
ag173
ag174
ag175
ag177
ag180
ag182
ag183
ag184
ag189
ag190
ag191
ag198
ag201
ag202
ag203
ag204
ag207
ag212
ag214
ag216
ag217
ag219
ag225
ag226
ag233
ag235
ag236
ag239
ag242
ag247
ag248
ag252
ag253
ag254
ag255
ag256
ag257
ag258
ag263
ag264
ag265
ag267
ag269
ag271
ag272
ag273
ag275
ag276
ag278
ag282
ag287
ag288
ag292
ag293
ag294
ag298
ag299
ag301
ag302
ag303
ag304
ag306
ag311
ag312
ag313
ag314
ag315
ag316
ag317
ag318
ag321
ag322
ag323
ag326
ag329
ag331
ag333
ag335
ag336
ag337
ag341
ag343
ag345
ag347
ag350
ag354
ag356
ag357
asS'ontoneo:ontoneo_1000000'
p1226
(lp1227
g464
asS'skos:altlabel'
p1228
(lp1229
g361
ag36
ag723
ag728
ag78
ag80
asS'owl:ontology'
p1230
(lp1231
g28
ag694
ag705
ag859
ag710
ag882
ag374
ag739
ag891
ag907
ag532
ag533
ag389
asS'dc:description'
p1232
(lp1233
g360
ag105
ag106
ag107
ag108
ag109
ag110
ag111
ag112
ag410
ag413
ag113
ag361
ag28
ag114
ag115
ag116
ag418
ag117
ag118
ag119
ag120
ag397
ag423
ag121
ag122
ag123
ag424
ag124
ag125
ag126
ag127
ag128
ag55
ag129
ag130
ag131
ag132
ag133
ag134
ag135
ag136
ag362
ag428
ag137
ag363
ag138
ag36
ag364
ag139
ag140
ag365
ag431
ag366
ag141
ag142
ag143
ag144
ag435
ag145
ag146
ag147
ag148
ag149
ag150
ag367
ag1187
ag151
ag152
ag153
ag154
ag155
ag156
ag157
ag158
ag159
ag440
ag160
ag161
ag162
ag163
ag398
ag164
ag165
ag166
ag167
ag168
ag169
ag170
ag171
ag172
ag173
ag174
ag442
ag369
ag175
ag176
ag370
ag37
ag177
ag178
ag38
ag179
ag180
ag181
ag182
ag183
ag184
ag185
ag186
ag63
ag187
ag188
ag189
ag190
ag191
ag192
ag193
ag194
ag195
ag196
ag197
ag198
ag199
ag200
ag450
ag201
ag202
ag452
ag203
ag204
ag205
ag206
ag719
ag207
ag460
ag208
ag66
ag209
ag210
ag211
ag372
ag212
ag213
ag214
ag215
ag216
ag217
ag461
ag218
ag219
ag374
ag220
ag221
ag222
ag223
ag463
ag224
ag225
ag226
ag375
ag227
ag228
ag229
ag376
ag230
ag231
ag232
ag233
ag469
ag234
ag377
ag235
ag236
ag237
ag238
ag239
ag102
ag240
ag241
ag242
ag243
ag244
ag245
ag378
ag471
ag246
ag247
ag248
ag249
ag250
ag251
ag252
ag253
ag254
ag474
ag255
ag256
ag69
ag257
ag258
ag379
ag259
ag260
ag261
ag262
ag477
ag478
ag263
ag264
ag265
ag266
ag267
ag268
ag269
ag270
ag271
ag71
ag272
ag273
ag40
ag274
ag275
ag380
ag276
ag381
ag277
ag278
ag279
ag280
ag281
ag282
ag283
ag75
ag284
ag285
ag483
ag286
ag287
ag288
ag383
ag289
ag290
ag291
ag917
ag384
ag292
ag293
ag294
ag295
ag296
ag297
ag298
ag487
ag299
ag300
ag385
ag301
ag302
ag303
ag304
ag386
ag305
ag306
ag307
ag490
ag41
ag491
ag308
ag309
ag493
ag310
ag311
ag494
ag312
ag495
ag313
ag314
ag315
ag316
ag317
ag86
ag318
ag497
ag388
ag319
ag320
ag321
ag322
ag323
ag324
ag499
ag500
ag389
ag325
ag503
ag326
ag327
ag89
ag328
ag329
ag330
ag331
ag332
ag390
ag333
ag90
ag334
ag335
ag505
ag506
ag336
ag337
ag91
ag338
ag339
ag340
ag341
ag342
ag510
ag343
ag344
ag345
ag346
ag347
ag348
ag393
ag349
ag6
ag350
ag351
ag352
ag353
ag354
ag394
ag355
ag356
ag357
asS'dc:right'
p1234
(lp1235
g469
asS'dc:contributor'
p1236
(lp1237
g360
ag408
ag106
ag107
ag109
ag112
ag412
ag113
ag28
ag53
ag54
ag116
ag420
ag117
ag118
ag119
ag422
ag536
ag121
ag122
ag123
ag424
ag124
ag125
ag126
ag425
ag130
ag131
ag132
ag56
ag136
ag362
ag428
ag363
ag364
ag140
ag365
ag366
ag142
ag143
ag434
ag436
ag146
ag147
ag21
ag148
ag149
ag150
ag367
ag1187
ag786
ag151
ag60
ag61
ag157
ag158
ag368
ag159
ag440
ag161
ag162
ag165
ag166
ag787
ag167
ag169
ag171
ag173
ag369
ag37
ag664
ag177
ag178
ag38
ag180
ag181
ag712
ag182
ag184
ag62
ag189
ag190
ag191
ag192
ag64
ag193
ag65
ag198
ag201
ag202
ag452
ag203
ag718
ag455
ag456
ag457
ag207
ag371
ag66
ag372
ag214
ag67
ag788
ag216
ag373
ag726
ag219
ag374
ag462
ag222
ag225
ag226
ag464
ag375
ag466
ag469
ag39
ag377
ag68
ag235
ag236
ag738
ag239
ag102
ag242
ag245
ag1049
ag247
ag248
ag249
ag252
ag742
ag255
ag256
ag524
ag476
ag69
ag257
ag258
ag18
ag259
ag477
ag263
ag789
ag265
ag266
ag267
ag70
ag271
ag272
ag40
ag72
ag380
ag276
ag382
ag278
ag279
ag751
ag282
ag73
ag74
ag1036
ag483
ag287
ag383
ag289
ag290
ag76
ag77
ag292
ag293
ag294
ag487
ag299
ag301
ag79
ag307
ag490
ag41
ag492
ag311
ag81
ag312
ag82
ag83
ag926
ag495
ag313
ag314
ag84
ag315
ag387
ag317
ag318
ag87
ag497
ag388
ag319
ag498
ag321
ag323
ag499
ag500
ag501
ag389
ag503
ag326
ag88
ag328
ag329
ag933
ag331
ag390
ag333
ag90
ag335
ag506
ag336
ag339
ag508
ag92
ag510
ag343
ag345
ag347
ag93
ag392
ag512
ag394
ag356
asS'j.18:definition'
p1238
(lp1239
g28
asS'omvmmi:creditrequired'
p1240
(lp1241
g105
ag106
ag107
ag108
ag109
ag110
ag111
ag112
ag113
ag114
ag115
ag116
ag117
ag118
ag119
ag120
ag121
ag122
ag123
ag124
ag125
ag126
ag127
ag128
ag129
ag130
ag131
ag132
ag133
ag134
ag135
ag136
ag137
ag138
ag139
ag140
ag141
ag142
ag143
ag144
ag145
ag146
ag147
ag148
ag149
ag150
ag151
ag152
ag153
ag154
ag155
ag156
ag157
ag158
ag159
ag160
ag161
ag162
ag163
ag164
ag165
ag166
ag167
ag168
ag169
ag170
ag171
ag172
ag173
ag174
ag175
ag176
ag177
ag178
ag179
ag180
ag181
ag182
ag183
ag184
ag185
ag186
ag187
ag188
ag189
ag190
ag191
ag192
ag193
ag194
ag195
ag196
ag197
ag198
ag199
ag200
ag201
ag202
ag203
ag204
ag205
ag206
ag207
ag208
ag209
ag210
ag211
ag212
ag213
ag214
ag215
ag216
ag217
ag218
ag219
ag220
ag221
ag222
ag223
ag224
ag225
ag226
ag227
ag228
ag229
ag230
ag231
ag232
ag233
ag234
ag235
ag236
ag237
ag238
ag239
ag240
ag241
ag242
ag243
ag244
ag245
ag246
ag247
ag248
ag249
ag250
ag251
ag252
ag253
ag254
ag255
ag256
ag257
ag258
ag259
ag260
ag261
ag262
ag263
ag264
ag265
ag266
ag267
ag268
ag269
ag270
ag271
ag272
ag273
ag274
ag275
ag276
ag277
ag278
ag279
ag280
ag281
ag282
ag283
ag284
ag285
ag286
ag287
ag288
ag289
ag290
ag291
ag292
ag293
ag294
ag295
ag296
ag297
ag298
ag299
ag300
ag301
ag302
ag303
ag304
ag305
ag306
ag307
ag308
ag309
ag310
ag311
ag312
ag313
ag314
ag315
ag316
ag317
ag318
ag319
ag320
ag321
ag322
ag323
ag324
ag325
ag326
ag327
ag328
ag329
ag330
ag331
ag332
ag333
ag334
ag335
ag336
ag337
ag338
ag339
ag340
ag341
ag342
ag343
ag344
ag345
ag346
ag347
ag348
ag349
ag350
ag351
ag352
ag353
ag354
ag355
ag356
ag357
asS'description'
p1242
(lp1243
g194
ag963
asS'terms:issued'
p1244
(lp1245
g530
ag626
asS'terms:description'
p1246
(lp1247
g623
ag530
ag626
asS'birn_annot:curationstatus'
p1248
(lp1249
g391
asS'oboinowl:auto-generated-by'
p1250
(lp1251
g605
ag989
ag854
ag990
ag606
ag991
ag992
ag993
ag807
ag994
ag878
ag995
ag607
ag45
ag996
ag997
ag597
ag998
ag999
ag675
ag69
ag1000
ag1001
ag918
ag1002
ag1003
ag608
ag1004
asS'pav:version'
p1252
(lp1253
g78
ag80
asS'efo:creator'
p1254
(lp1255
g708
ag744
asS'asthma:creator'
p1256
(lp1257
g376
asS'oboinowl:data-version'
p1258
(lp1259
g606
asS'oboinowl:savedby'
p1260
(lp1261
g583
ag819
ag820
ag584
ag96
ag97
ag585
ag586
ag821
ag48
asS'protege:defaultlanguage'
p1262
(lp1263
g360
ag667
ag54
ag363
ag842
ag700
ag367
ag368
ag858
ag369
aS'SitBAC1_3.owl'
p1264
ag449
ag455
ag457
ag371
ag373
ag374
ag464
ag733
ag524
ag72
ag382
ag922
ag498
ag389
ag390
asS'terms:isreferencedby'
p1265
(lp1266
g90
asS'ns:license'
p1267
(lp1268
g39
asS'uri'
p1269
(lp1270
g194
asS'foaf:person'
p1271
(lp1272
g397
ag435
ag398
ag38
ag12
asS'oboinowl:synonymtypedef'
p1273
(lp1274
g675
asS'terms:created'
p1275
(lp1276
g623
asS'omvmmi:shortnameuri'
p1277
(lp1278
g106
ag109
ag110
ag113
ag116
ag117
ag118
ag119
ag120
ag121
ag122
ag124
ag128
ag129
ag131
ag136
ag137
ag138
ag142
ag143
ag144
ag145
ag146
ag148
ag149
ag151
ag152
ag153
ag161
ag162
ag163
ag164
ag165
ag166
ag168
ag169
ag170
ag172
ag173
ag174
ag175
ag176
ag177
ag178
ag181
ag183
ag184
ag185
ag186
ag187
ag191
ag194
ag195
ag196
ag197
ag199
ag200
ag201
ag202
ag205
ag207
ag208
ag210
ag212
ag214
ag215
ag216
ag217
ag218
ag219
ag220
ag223
ag224
ag225
ag226
ag228
ag230
ag231
ag233
ag234
ag235
ag237
ag240
ag241
ag244
ag245
ag247
ag252
ag253
ag254
ag257
ag258
ag262
ag265
ag266
ag267
ag268
ag269
ag272
ag273
ag274
ag275
ag277
ag281
ag282
ag283
ag284
ag287
ag289
ag291
ag293
ag294
ag295
ag298
ag299
ag300
ag301
ag302
ag303
ag305
ag306
ag308
ag309
ag310
ag311
ag313
ag314
ag315
ag316
ag317
ag318
ag320
ag321
ag322
ag326
ag327
ag328
ag329
ag331
ag333
ag334
ag336
ag340
ag341
ag343
ag348
ag349
ag350
ag353
ag354
ag355
ag357
asS'oboinowl:remark'
p1279
(lp1280
g606
ag807
ag675
ag474
ag904
asS'omvmmi:temporarymmirole'
p1281
(lp1282
g105
ag106
ag107
ag109
ag113
ag117
ag122
ag123
ag124
ag125
ag126
ag127
ag130
ag131
ag132
ag136
ag138
ag140
ag141
ag142
ag143
ag146
ag148
ag150
ag151
ag158
ag159
ag162
ag163
ag165
ag166
ag167
ag170
ag172
ag173
ag174
ag175
ag177
ag180
ag181
ag183
ag190
ag198
ag201
ag202
ag203
ag204
ag207
ag210
ag213
ag214
ag216
ag217
ag219
ag223
ag225
ag233
ag235
ag236
ag239
ag242
ag245
ag247
ag248
ag249
ag252
ag255
ag256
ag258
ag259
ag263
ag265
ag267
ag268
ag271
ag272
ag276
ag278
ag281
ag282
ag284
ag287
ag288
ag289
ag293
ag298
ag299
ag301
ag302
ag304
ag306
ag311
ag315
ag318
ag320
ag325
ag328
ag329
ag331
ag333
ag334
ag335
ag336
ag337
ag341
ag342
ag345
ag348
ag354
ag357
asS'dcterms:modified'
p1283
(lp1284
g600
ag398
ag100
ag101
ag102
ag75
ag78
ag762
ag782
ag6
asS'oboinowl:property-value'
p1285
(lp1286
g918
as.