(dp1
S'dc:language'
p2
(lp3
S'bfo-1.1.owl'
p4
aS'airtravelbookingontology.owl'
p5
asS'dc:type'
p6
(lp7
S'adolena_OBDA.owl'
p8
asS'vann:preferrednamespaceprefix'
p9
(lp10
S'agrelon.rdf'
p11
asS'dc:title'
p12
(lp13
g4
ag11
aS'bibtex.owl'
p14
asS'rdfs:comment'
p15
(lp16
S'Book.owl'
p17
ag11
aS'animals.owl'
p18
ag14
aS'AncientGreekWisdomOnto.owl'
p19
ag5
aS'bao_vocabulary_result.owl'
p20
asS'owl:priorVersion'
p21
(lp22
g19
asS'dc:publisher'
p23
(lp24
g4
asS'dct:publisher'
p25
(lp26
g11
asS'dc:subject'
p27
(lp28
g14
asS'dc:source'
p29
(lp30
g4
asS'dct:available'
p31
(lp32
g11
asS'dc:identifier'
p33
(lp34
g4
ag14
asS'dct:modified'
p35
(lp36
g11
asS'dc:format'
p37
(lp38
g4
asS'owl:versioninfo'
p39
(lp40
g4
ag17
ag8
aS'bibo.owl'
p41
ag11
ag14
ag5
ag20
asS'owl:priorversion'
p42
(lp43
g11
asS'cc:license'
p44
(lp45
g11
asS'dc:date'
p46
(lp47
g18
ag14
ag20
asS'owl:versioniri'
p48
(lp49
g11
asS'dc:description'
p50
(lp51
g11
ag14
asS'dc:rights'
p52
(lp53
g4
asS'dc:contributor'
p54
(lp55
g4
asS'rdfs:label'
p56
(lp57
g14
ag20
asS'rdfs:seeAlso'
p58
(lp59
g19
asS'vann:preferrednamespaceuri'
p60
(lp61
g11
asS'dct:rights'
p62
(lp63
g11
asS'terms:title'
p64
(lp65
g41
asS'owl:versionInfo'
p66
(lp67
g19
asS'dc:license'
p68
(lp69
g20
asS'dct:contributor'
p70
(lp71
g11
asS'dct:creator'
p72
(lp73
g11
asS'dct:issued'
p74
(lp75
g11
asS'owl:imports'
p76
(lp77
g17
ag18
ag20
asS'rdf:type'
p78
(lp79
g11
asS'terms:description'
p80
(lp81
g41
asS'dc:creator'
p82
(lp83
g4
ag8
ag18
ag14
ag5
asS'terms:creator'
p84
(lp85
g41
as.