(lp0
(S'dc:creator'
p1
I16
tp2
a(S'omv:hascreator'
p3
I15
tp4
a(S'omv:creationdate'
p5
I15
tp6
a(S'dc:date'
p7
I15
tp8
a(S'dc:description'
p9
I15
tp10
a(S'omv:uri'
p11
I15
tp12
a(S'omvmmi:creditrequired'
p13
I15
tp14
a(S'omv:description'
p15
I15
tp16
a(S'omv:name'
p17
I15
tp18
a(S'omvmmi:origmaintainercode'
p19
I15
tp20
a(S'omv:acronym'
p21
I15
tp22
a(S'omvmmi:hascontentcreator'
p23
I10
tp24
a(S'omvmmi:hasresourcetype'
p25
I10
tp26
a(S'omvmmi:shortnameuri'
p27
I10
tp28
a(S'omv:version'
p29
I9
tp30
a(S'omvmmi:contact'
p31
I8
tp32
a(S'omvmmi:contactrole'
p33
I7
tp34
a(S'dc:source'
p35
I7
tp36
a(S'omv:keywords'
p37
I7
tp38
a(S'dc:contributor'
p39
I7
tp40
a(S'omv:usedontologyengineeringtool'
p41
I7
tp42
a(S'omvmmi:temporarymmirole'
p43
I7
tp44
a(S'omv:hascontributor'
p45
I6
tp46
a(S'omv:documentation'
p47
I6
tp48
a(S'omvmmi:origvocuri'
p49
I6
tp50
a(S'omvmmi:origvocmanager'
p51
I6
tp52
a(S'omvmmi:origvocdescriptivename'
p53
I5
tp54
a(S'omv:reference'
p55
I4
tp56
a(S'omvmmi:origvocversionid'
p57
I4
tp58
a(S'owl:versioninfo'
p59
I4
tp60
a(S'omvmmi:creditcitation'
p61
I4
tp62
a(S'rdfs:comment'
p63
I3
tp64
a(S'omvmmi:origvocdocumentationuri'
p65
I3
tp66
a(S'omvmmi:origvockeywords'
p67
I2
tp68
a(S'omvmmi:origvocsyntaxformat'
p69
I2
tp70
a(S'dc:title'
p71
I1
tp72
a(S'dc:language'
p73
I1
tp74
a(S'dc:publisher'
p75
I1
tp76
a(S'dc:format'
p77
I1
tp78
a(S'owl:imports'
p79
I1
tp80
a(S'omvmmi:origvoclastmodified'
p81
I1
tp82
a(S'dc:identifier'
p83
I1
tp84
a(S'dc:rights'
p85
I1
tp86
a.