(lp0
(S'dc:creator'
p1
I564
tp2
a(S'owl:imports'
p3
I407
tp4
a(S'owl:versioninfo'
p5
I372
tp6
a(S'dc:date'
p7
I363
tp8
a(S'rdfs:comment'
p9
I361
tp10
a(S'dc:description'
p11
I358
tp12
a(S'omv:hascreator'
p13
I255
tp14
a(S'omv:uri'
p15
I255
tp16
a(S'omv:name'
p17
I255
tp18
a(S'omv:creationdate'
p19
I255
tp20
a(S'omvmmi:origmaintainercode'
p21
I255
tp22
a(S'omv:description'
p23
I255
tp24
a(S'omv:acronym'
p25
I255
tp26
a(S'omvmmi:creditrequired'
p27
I255
tp28
a(S'dc:contributor'
p29
I247
tp30
a(S'omvmmi:hascontentcreator'
p31
I196
tp32
a(S'dc:title'
p33
I194
tp34
a(S'omvmmi:hasresourcetype'
p35
I188
tp36
a(S'omv:usedontologyengineeringtool'
p37
I159
tp38
a(S'rdfs:label'
p39
I159
tp40
a(S'omvmmi:shortnameuri'
p41
I154
tp42
a(S'omv:version'
p43
I150
tp44
a(S'omv:keywords'
p45
I129
tp46
a(S'omv:hascontributor'
p47
I112
tp48
a(S'omvmmi:temporarymmirole'
p49
I111
tp50
a(S'omvmmi:origvocmanager'
p51
I109
tp52
a(S'vann:preferrednamespaceprefix'
p53
I108
tp54
a(S'omvmmi:contactrole'
p55
I107
tp56
a(S'vann:preferrednamespaceuri'
p57
I103
tp58
a(S'omvmmi:contact'
p59
I101
tp60
a(S'owl:versioniri'
p61
I99
tp62
a(S'dcterms:modified'
p63
I95
tp64
a(S'foaf:homepage'
p65
I94
tp66
a(S'rdf:type'
p67
I87
tp68
a(S'dcterms:created'
p69
I85
tp70
a(S'dcterms:title'
p71
I85
tp72
a(S'dcterms:type'
p73
I81
tp74
a(S'dcterms:status'
p75
I81
tp76
a(S'dcterms:partof'
p77
I81
tp78
a(S'dc:source'
p79
I80
tp80
a(S'dc:subject'
p81
I77
tp82
a(S'omv:documentation'
p83
I77
tp84
a(S'dcterms:publisher'
p85
I64
tp86
a(S'dcterms:description'
p87
I63
tp88
a(S'omvmmi:origvocuri'
p89
I61
tp90
a(S'oboinowl:default-namespace'
p91
I57
tp92
a(S'oboinowl:hasoboformatversion'
p93
I56
tp94
a(S'dc:format'
p95
I53
tp96
a(S'omv:reference'
p97
I51
tp98
a(S'dc:publisher'
p99
I49
tp100
a(S'dc:rights'
p101
I49
tp102
a(S'oboinowl:saved-by'
p103
I48
tp104
a(S'oboinowl:date'
p105
I48
tp106
a(S'oboinowl:auto-generated-by'
p107
I41
tp108
a(S'omvmmi:origvocdocumentationuri'
p109
I40
tp110
a(S'omvmmi:creditcitation'
p111
I39
tp112
a(S'omvmmi:origvocdescriptivename'
p113
I36
tp114
a(S'rdfs:seealso'
p115
I36
tp116
a(S'owl:priorversion'
p117
I31
tp118
a(S'dc:license'
p119
I31
tp120
a(S'omvmmi:origvocsyntaxformat'
p121
I30
tp122
a(S'cc:license'
p123
I29
tp124
a(S'protege:defaultlanguage'
p125
I28
tp126
a(S'dc:language'
p127
I24
tp128
a(S'swivt:creationdate'
p129
I24
tp130
a(S'omvmmi:origvockeywords'
p131
I23
tp132
a(S'rdfs:isdefinedby'
p133
I18
tp134
a(S'omvmmi:origvocversionid'
p135
I16
tp136
a(S'dc:identifier'
p137
I14
tp138
a(S'owl:ontology'
p139
I14
tp140
a(S'core:changenote'
p141
I13
tp142
a(S'dc:issued'
p143
I12
tp144
a(S'dc:modified'
p145
I10
tp146
a(S'obo:iao_0000116'
p147
I10
tp148
a(S'oboinowl:savedby'
p149
I10
tp150
a(S'terms:modified'
p151
I9
tp152
a(S'foaf:person'
p153
I9
tp154
a(S'dcterms:creator'
p155
I8
tp156
a(S'oboinowl:hassubset'
p157
I8
tp158
a(S'cpannotationschema:hasintent'
p159
I8
tp160
a(S'dcterms:license'
p161
I8
tp162
a(S'vaem:revisionnumber'
p163
I7
tp164
a(S'vaem:lastupdated'
p165
I7
tp166
a(S'terms:creator'
p167
I7
tp168
a(S'foaf:mbox'
p169
I7
tp170
a(S'vaem:hasdisciplinescope'
p171
I7
tp172
a(S'oboinowl:hasdate'
p173
I7
tp174
a(S'vaem:hasaspectscope'
p175
I7
tp176
a(S'vaem:usesnonimportedresource'
p177
I7
tp178
a(S'oboinowl:hasdefaultnamespace'
p179
I7
tp180
a(S'vaem:datecreated'
p181
I7
tp182
a(S'terms:title'
p183
I7
tp184
a(S'vaem:hasdomainscope'
p185
I7
tp186
a(S'vaem:hasrole'
p187
I7
tp188
a(S'cpannotationschema:hasconsequences'
p189
I7
tp190
a(S'cpannotationschema:coversrequirements'
p191
I7
tp192
a(S'voag:haslicensetype'
p193
I6
tp194
a(S'voag:withattributionto'
p195
I6
tp196
a(S'vaem:namespace'
p197
I6
tp198
a(S'foaf:name'
p199
I6
tp200
a(S'oboinowl:namespaceidrule'
p201
I6
tp202
a(S'vaem:description'
p203
I6
tp204
a(S'vaem:specificity'
p205
I6
tp206
a(S'obo_annot:createddate'
p207
I6
tp208
a(S'skos:preflabel'
p209
I6
tp210
a(S'obo_annot:modifieddate'
p211
I6
tp212
a(S'ns0:defaultlanguage'
p213
I6
tp214
a(S'cpannotationschema:scenarios'
p215
I6
tp216
a(S'cpannotationschema:extractedfrom'
p217
I6
tp218
a(S'terms:identifier'
p219
I6
tp220
a(S'vaem:namespaceprefix'
p221
I6
tp222
a(S'skos:altlabel'
p223
I6
tp224
a(S'vaem:acronym'
p225
I6
tp226
a(S'foaf:page'
p227
I5
tp228
a(S'dct:creator'
p229
I5
tp230
a(S'voag:hascatalogentry'
p231
I5
tp232
a(S'terms:description'
p233
I5
tp234
a(S'core:editorialnote'
p235
I5
tp236
a(S'oboinowl:remark'
p237
I5
tp238
a(S'cpannotationschema:hasauthor'
p239
I4
tp240
a(S'foaf:maker'
p241
I4
tp242
a(S'dcterms:issued'
p243
I4
tp244
a(S'terms:contributor'
p245
I4
tp246
a(S'oboinowl:treat-xrefs-as-equivalent'
p247
I4
tp248
a(S'core:definition'
p249
I4
tp250
a(S'terms:license'
p251
I4
tp252
a(S'terms:rights'
p253
I4
tp254
a(S'skos:definition'
p255
I4
tp256
a(S'cpannotationschema:relatedcps'
p257
I4
tp258
a(S'foaf:organization'
p259
I4
tp260
a(S'owl:incompatiblewith'
p261
I4
tp262
a(S'oboinowl:treat-xrefs-as-is_a'
p263
I4
tp264
a(S'j.0:defaultlanguage'
p265
I4
tp266
a(S'terms:issued'
p267
I4
tp268
a(S'dct:contributor'
p269
I3
tp270
a(S'dct:issued'
p271
I3
tp272
a(S'dct:created'
p273
I3
tp274
a(S'dc:coverage'
p275
I3
tp276
a(S'dc:created'
p277
I3
tp278
a(S'obo_annot:pendingactionnote'
p279
I3
tp280
a(S'dct:modified'
p281
I3
tp282
a(S'oboinowl:format-version'
p283
I3
tp284
a(S'rdf:description'
p285
I3
tp286
a(S'dct:description'
p287
I3
tp288
a(S'dct:date'
p289
I3
tp290
a(S'oboinowl:subset'
p291
I3
tp292
a(S'vaem:intent'
p293
I3
tp294
a(S'doap:version'
p295
I3
tp296
a(S'ns:license'
p297
I3
tp298
a(S'nemo_annot:created_date'
p299
I2
tp300
a(S'owl:annotationproperty'
p301
I2
tp302
a(S'dct:license'
p303
I2
tp304
a(S'oboinowl:treat-xrefs-as-genus-differentia'
p305
I2
tp306
a(S'obo:idspace'
p307
I2
tp308
a(S'dcterms:subject'
p309
I2
tp310
a(S'nemo_annot:curator'
p311
I2
tp312
a(S'dcterms:identifier'
p313
I2
tp314
a(S'oboinowl:treat-xrefs-as-reverse-genus-differentia'
p315
I2
tp316
a(S'dcterms:contributor'
p317
I2
tp318
a(S'obo:default-relationship-id-prefix'
p319
I2
tp320
a(S'nemo_annot:pref_label'
p321
I2
tp322
a(S'doap:svnrepository'
p323
I2
tp324
a(S'rdfs:range'
p325
I2
tp326
a(S'dc11:date'
p327
I2
tp328
a(S'nemo_annot:synonym'
p329
I2
tp330
a(S'dct:title'
p331
I2
tp332
a(S'oboinowl:treat-xrefs-as-has-subclass'
p333
I2
tp334
a(S'terms:publisher'
p335
I2
tp336
a(S'dcat:landingpage'
p337
I2
tp338
a(S'dc11:created'
p339
I2
tp340
a(S'dc11:publisher'
p341
I2
tp342
a(S'obo:format-version'
p343
I2
tp344
a(S'doap:mailing-list'
p345
I2
tp346
a(S'terms:isreferencedby'
p347
I2
tp348
a(S'owl:backwardcompatiblewith'
p349
I2
tp350
a(S'prism:doi'
p351
I2
tp352
a(S'obo:date'
p353
I2
tp354
a(S'doap:gitrepository'
p355
I2
tp356
a(S'doap:bug-database'
p357
I2
tp358
a(S'vaem:hascatalogentry'
p359
I2
tp360
a(S'description'
p361
I2
tp362
a(S'dc11:creator'
p363
I2
tp364
a(S'pav:version'
p365
I2
tp366
a(S'efo:creator'
p367
I2
tp368
a(S'nemo_annot:modified_date'
p369
I2
tp370
a(S'owl:deprecated'
p371
I1
tp372
a(S'obo:is_metadata_tag'
p373
I1
tp374
a(S'elements:creator'
p375
I1
tp376
a(S'j.0:historynote'
p377
I1
tp378
a(S'rdf:comment'
p379
I1
tp380
a(S'voaf:classnumber'
p381
I1
tp382
a(S'j.0:definition'
p383
I1
tp384
a(S'foaf:mbox_sha1sum'
p385
I1
tp386
a(S'smw:exportdate'
p387
I1
tp388
a(S'obo:iao_0000412'
p389
I1
tp390
a(S'owl:datatypeproperty'
p391
I1
tp392
a(S'void:databrowse'
p393
I1
tp394
a(S'dc:right'
p395
I1
tp396
a(S'b807e4-4286-46f3-89f6-f67df1657fdc:efo_0000009'
p397
I1
tp398
a(S'dct:rights'
p399
I1
tp400
a(S'cpannotationschema:hascomponent'
p401
I1
tp402
a(S'asthma:defaultlanguage'
p403
I1
tp404
a(S'dcterms:isrequiredby'
p405
I1
tp406
a(S'name'
p407
I1
tp408
a(S'dce:date'
p409
I1
tp410
a(S'voaf:relieson'
p411
I1
tp412
a(S'contributing_author'
p413
I1
tp414
a(S'creator'
p415
I1
tp416
a(S'version'
p417
I1
tp418
a(S'dcat:downloadurl'
p419
I1
tp420
a(S'patterns:createdby'
p421
I1
tp422
a(S'dcterms:isreferencedby'
p423
I1
tp424
a(S'primary_author_and_curator'
p425
I1
tp426
a(S'oboinowl:pairwise-disjoint'
p427
I1
tp428
a(S'owl:objectproperty'
p429
I1
tp430
a(S'oboother:idspace'
p431
I1
tp432
a(S'oboinowl:subsetdef'
p433
I1
tp434
a(S'j.1:defaultlanguage'
p435
I1
tp436
a(S'omvmmi:origvoclastmodified'
p437
I1
tp438
a(S'next_id'
p439
I1
tp440
a(S'wob:rdfdocument'
p441
I1
tp442
a(S'terms:date'
p443
I1
tp444
a(S'vs:term_status'
p445
I1
tp446
a(S'webprotege:revision'
p447
I1
tp448
a(S'core:historynote'
p449
I1
tp450
a(S'chmo:has_format-version'
p451
I1
tp452
a(S'cc:licence'
p453
I1
tp454
a(S'title'
p455
I1
tp456
a(S'cpannotationschema:isspecializationof'
p457
I1
tp458
a(S'voaf:propertynumber'
p459
I1
tp460
a(S'dcterms:rights'
p461
I1
tp462
a(S'prov:has_provenance'
p463
I1
tp464
a(S'specializationof'
p465
I1
tp466
a(S'comment'
p467
I1
tp468
a(S'wasrevisionof'
p469
I1
tp470
a(S'edamontology1:next_id'
p471
I1
tp472
a(S'oboinowl:hasversion'
p473
I1
tp474
a(S'rdfs:domain'
p475
I1
tp476
a(S'j.0:editorialnote'
p477
I1
tp478
a(S'foaf:primarytopic'
p479
I1
tp480
a(S'dct:publisher'
p481
I1
tp482
a(S'skos:historynote'
p483
I1
tp484
a(S'dct:available'
p485
I1
tp486
a(S'obo:remark'
p487
I1
tp488
a(S'voaf:metadatavoc'
p489
I1
tp490
a(S'dcterms:format'
p491
I1
tp492
a(S'foaf:isprimarytopicof'
p493
I1
tp494
a(S'obo:comment'
p495
I1
tp496
a(S'oboother:default-relationship-id-prefix'
p497
I1
tp498
a(S'dcterms:language'
p499
I1
tp500
a(S'meta:bookmark'
p501
I1
tp502
a(S'dct:source'
p503
I1
tp504
a(S'relationship:idspace'
p505
I1
tp506
a(S'tool'
p507
I1
tp508
a(S'void:datadump'
p509
I1
tp510
a(S'owl:class'
p511
I1
tp512
a(S'oboother:remark'
p513
I1
tp514
a(S'dce:creator'
p515
I1
tp516
a(S'j.0:organization'
p517
I1
tp518
a(S'technical_support'
p519
I1
tp520
a(S'cpannotationschema:hasunittest'
p521
I1
tp522
a(S'oboinowl:comment'
p523
I1
tp524
a(S'voaf:specializes'
p525
I1
tp526
a(S'dce:subject'
p527
I1
tp528
a(S'dcterms:lastmodified'
p529
I1
tp530
a(S'obo:iao_0000117'
p531
I1
tp532
a(S'acetext:acetext'
p533
I1
tp534
a(S'dct:hasformat'
p535
I1
tp536
a(S'owl:namedindividual'
p537
I1
tp538
a(S'j.0:imports'
p539
I1
tp540
a(S'rdf:property'
p541
I1
tp542
a(S'j.0:license'
p543
I1
tp544
a(S'doc:version'
p545
I1
tp546
a(S'ns0:license'
p547
I1
tp548
a(S'owl:unionof'
p549
I1
tp550
a(S'terms:created'
p551
I1
tp552
a(S'note'
p553
I1
tp554
a(S'cito:citesasauthority'
p555
I1
tp556
a(S'ontoneo:ontoneo_1000000'
p557
I1
tp558
a(S'oboinowl:next-id'
p559
I1
tp560
a(S'birn_annot:curationstatus'
p561
I1
tp562
a(S'dc:type'
p563
I1
tp564
a(S'rdfs:subclassof'
p565
I1
tp566
a(S'asthma:creator'
p567
I1
tp568
a(S'spin:imports'
p569
I1
tp570
a(S'oboinowl:data-version'
p571
I1
tp572
a(S'oboother:date'
p573
I1
tp574
a(S'uri'
p575
I1
tp576
a(S'oboinowl:synonymtypedef'
p577
I1
tp578
a(S'oboinowl:default-relationship-id-prefix'
p579
I1
tp580
a(S'oboinowl:property-value'
p581
I1
tp582
a.