(dp0
S'dc:language'
p1
(lp2
S'bfo-1.1.owl'
p3
aS'airtravelbookingontology.owl'
p4
asS'dc:type'
p5
(lp6
S'adolena_OBDA.owl'
p7
asS'vann:preferrednamespaceprefix'
p8
(lp9
S'agrelon.rdf'
p10
asS'dc:title'
p11
(lp12
g3
ag10
aS'bibtex.owl'
p13
asS'rdfs:comment'
p14
(lp15
S'Book.owl'
p16
ag10
aS'animals.owl'
p17
ag13
aS'AncientGreekWisdomOnto.owl'
p18
ag4
aS'bao_vocabulary_result.owl'
p19
asS'owl:priorVersion'
p20
(lp21
g18
asS'dc:publisher'
p22
(lp23
g3
asS'dct:publisher'
p24
(lp25
g10
asS'dc:subject'
p26
(lp27
g13
asS'dc:source'
p28
(lp29
g3
asS'dct:available'
p30
(lp31
g10
asS'dc:identifier'
p32
(lp33
g3
ag13
asS'dct:modified'
p34
(lp35
g10
asS'dc:format'
p36
(lp37
g3
asS'owl:versioninfo'
p38
(lp39
g3
ag16
ag7
aS'bibo.owl'
p40
ag10
ag13
ag4
ag19
asS'owl:priorversion'
p41
(lp42
g10
asS'cc:license'
p43
(lp44
g10
asS'dc:date'
p45
(lp46
g17
ag13
ag19
asS'owl:versioniri'
p47
(lp48
g10
asS'dc:description'
p49
(lp50
g10
ag13
asS'dc:rights'
p51
(lp52
g3
asS'dc:contributor'
p53
(lp54
g3
asS'rdfs:label'
p55
(lp56
g13
ag19
asS'rdfs:seeAlso'
p57
(lp58
g18
asS'vann:preferrednamespaceuri'
p59
(lp60
g10
asS'dct:rights'
p61
(lp62
g10
asS'terms:title'
p63
(lp64
g40
asS'owl:versionInfo'
p65
(lp66
g18
asS'dc:license'
p67
(lp68
g19
asS'dct:contributor'
p69
(lp70
g10
asS'dct:creator'
p71
(lp72
g10
asS'dct:issued'
p73
(lp74
g10
asS'owl:imports'
p75
(lp76
g16
ag17
ag19
asS'rdf:type'
p77
(lp78
g10
asS'terms:description'
p79
(lp80
g40
asS'dc:creator'
p81
(lp82
g3
ag7
ag17
ag13
ag4
asS'terms:creator'
p83
(lp84
g40
as.