(lp0
(S'dc:creator'
p1
I448
tp2
a(S'dc:date'
p3
I352
tp4
a(S'dc:description'
p5
I338
tp6
a(S'owl:imports'
p7
I333
tp8
a(S'owl:versioninfo'
p9
I299
tp10
a(S'rdfs:comment'
p11
I275
tp12
a(S'omv:hascreator'
p13
I253
tp14
a(S'omv:uri'
p15
I253
tp16
a(S'omv:name'
p17
I253
tp18
a(S'omv:creationdate'
p19
I253
tp20
a(S'omvmmi:origmaintainercode'
p21
I253
tp22
a(S'omv:description'
p23
I253
tp24
a(S'omv:acronym'
p25
I253
tp26
a(S'omvmmi:creditrequired'
p27
I253
tp28
a(S'dc:contributor'
p29
I230
tp30
a(S'omvmmi:hascontentcreator'
p31
I194
tp32
a(S'omvmmi:hasresourcetype'
p33
I186
tp34
a(S'dc:title'
p35
I163
tp36
a(S'omv:usedontologyengineeringtool'
p37
I158
tp38
a(S'omvmmi:shortnameuri'
p39
I152
tp40
a(S'omv:version'
p41
I149
tp42
a(S'omv:keywords'
p43
I128
tp44
a(S'omv:hascontributor'
p45
I111
tp46
a(S'omvmmi:temporarymmirole'
p47
I110
tp48
a(S'omvmmi:origvocmanager'
p49
I107
tp50
a(S'omvmmi:contactrole'
p51
I105
tp52
a(S'rdfs:label'
p53
I103
tp54
a(S'omvmmi:contact'
p55
I100
tp56
a(S'omv:documentation'
p57
I76
tp58
a(S'dc:source'
p59
I75
tp60
a(S'owl:versioniri'
p61
I72
tp62
a(S'dc:subject'
p63
I66
tp64
a(S'omvmmi:origvocuri'
p65
I60
tp66
a(S'omv:reference'
p67
I49
tp68
a(S'dc:format'
p69
I48
tp70
a(S'dc:publisher'
p71
I46
tp72
a(S'omvmmi:origvocdocumentationuri'
p73
I40
tp74
a(S'omvmmi:creditcitation'
p75
I39
tp76
a(S'oboinowl:hasoboformatversion'
p77
I37
tp78
a(S'oboinowl:default-namespace'
p79
I37
tp80
a(S'omvmmi:origvocdescriptivename'
p81
I36
tp82
a(S'oboinowl:saved-by'
p83
I33
tp84
a(S'dc:rights'
p85
I32
tp86
a(S'omvmmi:origvocsyntaxformat'
p87
I30
tp88
a(S'oboinowl:date'
p89
I30
tp90
a(S'owl:priorversion'
p91
I29
tp92
a(S'oboinowl:auto-generated-by'
p93
I28
tp94
a(S'protege:defaultlanguage'
p95
I26
tp96
a(S'dc:license'
p97
I25
tp98
a(S'rdfs:seealso'
p99
I23
tp100
a(S'omvmmi:origvockeywords'
p101
I23
tp102
a(S'dc:language'
p103
I23
tp104
a(S'cc:license'
p105
I22
tp106
a(S'vann:preferrednamespaceprefix'
p107
I20
tp108
a(S'omvmmi:origvocversionid'
p109
I16
tp110
a(S'vann:preferrednamespaceuri'
p111
I15
tp112
a(S'rdfs:isdefinedby'
p113
I15
tp114
a(S'core:changenote'
p115
I13
tp116
a(S'owl:ontology'
p117
I13
tp118
a(S'dc:issued'
p119
I12
tp120
a(S'dc:identifier'
p121
I11
tp122
a(S'oboinowl:savedby'
p123
I10
tp124
a(S'dcterms:modified'
p125
I10
tp126
a(S'foaf:homepage'
p127
I9
tp128
a(S'obo:iao_0000116'
p129
I9
tp130
a(S'oboinowl:hassubset'
p131
I8
tp132
a(S'cpannotationschema:hasintent'
p133
I7
tp134
a(S'oboinowl:hasdate'
p135
I7
tp136
a(S'oboinowl:hasdefaultnamespace'
p137
I7
tp138
a(S'terms:modified'
p139
I7
tp140
a(S'dc:modified'
p141
I6
tp142
a(S'foaf:mbox'
p143
I6
tp144
a(S'obo_annot:createddate'
p145
I6
tp146
a(S'obo_annot:modifieddate'
p147
I6
tp148
a(S'skos:preflabel'
p149
I6
tp150
a(S'terms:identifier'
p151
I6
tp152
a(S'ns0:defaultlanguage'
p153
I6
tp154
a(S'cpannotationschema:scenarios'
p155
I6
tp156
a(S'cpannotationschema:hasconsequences'
p157
I6
tp158
a(S'core:editorialnote'
p159
I6
tp160
a(S'cpannotationschema:coversrequirements'
p161
I6
tp162
a(S'skos:altlabel'
p163
I6
tp164
a(S'dcterms:creator'
p165
I5
tp166
a(S'terms:creator'
p167
I5
tp168
a(S'core:definition'
p169
I5
tp170
a(S'terms:title'
p171
I5
tp172
a(S'cpannotationschema:extractedfrom'
p173
I5
tp174
a(S'foaf:person'
p175
I5
tp176
a(S'oboinowl:remark'
p177
I5
tp178
a(S'foaf:page'
p179
I4
tp180
a(S'foaf:name'
p181
I4
tp182
a(S'dcterms:issued'
p183
I4
tp184
a(S'oboinowl:namespaceidrule'
p185
I4
tp186
a(S'dct:creator'
p187
I4
tp188
a(S'skos:definition'
p189
I4
tp190
a(S'cpannotationschema:relatedcps'
p191
I4
tp192
a(S'terms:license'
p193
I4
tp194
a(S'dcterms:license'
p195
I4
tp196
a(S'j.0:defaultlanguage'
p197
I4
tp198
a(S'cpannotationschema:hasauthor'
p199
I3
tp200
a(S'dcterms:description'
p201
I3
tp202
a(S'terms:contributor'
p203
I3
tp204
a(S'dc:coverage'
p205
I3
tp206
a(S'obo_annot:pendingactionnote'
p207
I3
tp208
a(S'oboinowl:format-version'
p209
I3
tp210
a(S'oboinowl:treat-xrefs-as-equivalent'
p211
I3
tp212
a(S'oboinowl:subset'
p213
I3
tp214
a(S'terms:rights'
p215
I3
tp216
a(S'dct:description'
p217
I3
tp218
a(S'owl:incompatiblewith'
p219
I3
tp220
a(S'dct:date'
p221
I3
tp222
a(S'dcterms:created'
p223
I3
tp224
a(S'oboinowl:treat-xrefs-as-is_a'
p225
I3
tp226
a(S'doap:version'
p227
I3
tp228
a(S'terms:description'
p229
I3
tp230
a(S'dct:contributor'
p231
I2
tp232
a(S'oboinowl:treat-xrefs-as-genus-differentia'
p233
I2
tp234
a(S'obo:idspace'
p235
I2
tp236
a(S'foaf:maker'
p237
I2
tp238
a(S'dcterms:contributor'
p239
I2
tp240
a(S'obo:default-relationship-id-prefix'
p241
I2
tp242
a(S'dcterms:publisher'
p243
I2
tp244
a(S'core:historynote'
p245
I2
tp246
a(S'dct:title'
p247
I2
tp248
a(S'dcterms:title'
p249
I2
tp250
a(S'rdf:description'
p251
I2
tp252
a(S'dcat:landingpage'
p253
I2
tp254
a(S'obo:format-version'
p255
I2
tp256
a(S'owl:backwardcompatiblewith'
p257
I2
tp258
a(S'prism:doi'
p259
I2
tp260
a(S'obo:date'
p261
I2
tp262
a(S'dcterms:subject'
p263
I2
tp264
a(S'description'
p265
I2
tp266
a(S'terms:issued'
p267
I2
tp268
a(S'pav:version'
p269
I2
tp270
a(S'efo:creator'
p271
I2
tp272
a(S'nemo_annot:created_date'
p273
I1
tp274
a(S'owl:deprecated'
p275
I1
tp276
a(S'obo:is_metadata_tag'
p277
I1
tp278
a(S'foaf:mbox_sha1sum'
p279
I1
tp280
a(S'dct:source'
p281
I1
tp282
a(S'j.0:historynote'
p283
I1
tp284
a(S'rdf:comment'
p285
I1
tp286
a(S'j.15:defaultlanguage'
p287
I1
tp288
a(S'oboother:date'
p289
I1
tp290
a(S'oboother:idspace'
p291
I1
tp292
a(S'j.0:definition'
p293
I1
tp294
a(S'wasrevisionof'
p295
I1
tp296
a(S'dct:license'
p297
I1
tp298
a(S'smw:exportdate'
p299
I1
tp300
a(S'obo:iao_0000412'
p301
I1
tp302
a(S'version'
p303
I1
tp304
a(S'nemo_annot:curator'
p305
I1
tp306
a(S'void:databrowse'
p307
I1
tp308
a(S'j.14:modifieddate'
p309
I1
tp310
a(S'b807e4-4286-46f3-89f6-f67df1657fdc:efo_0000009'
p311
I1
tp312
a(S'rdf:type'
p313
I1
tp314
a(S'cpannotationschema:hascomponent'
p315
I1
tp316
a(S'dcterms:identifier'
p317
I1
tp318
a(S'asthma:defaultlanguage'
p319
I1
tp320
a(S'oboinowl:treat-xrefs-as-reverse-genus-differentia'
p321
I1
tp322
a(S'next_id'
p323
I1
tp324
a(S'name'
p325
I1
tp326
a(S'oboinowl:rgdformat-version'
p327
I1
tp328
a(S'owl:ontologyiri'
p329
I1
tp330
a(S'j.18:changenote'
p331
I1
tp332
a(S'dcat:downloadurl'
p333
I1
tp334
a(S'nemo_annot:pref_label'
p335
I1
tp336
a(S'foaf:isprimarytopicof'
p337
I1
tp338
a(S'creator'
p339
I1
tp340
a(S'dct:created'
p341
I1
tp342
a(S'patterns:createdby'
p343
I1
tp344
a(S'dc:created'
p345
I1
tp346
a(S'acetext:acetext'
p347
I1
tp348
a(S'obo:comment'
p349
I1
tp350
a(S'oboinowl:subsetdef'
p351
I1
tp352
a(S'j.1:defaultlanguage'
p353
I1
tp354
a(S'nemo_annot:modified_date'
p355
I1
tp356
a(S'omvmmi:origvoclastmodified'
p357
I1
tp358
a(S'j.18:historynote'
p359
I1
tp360
a(S'wob:rdfdocument'
p361
I1
tp362
a(S'contributing_author'
p363
I1
tp364
a(S'nemo_annot:synonym'
p365
I1
tp366
a(S'meta:bookmark'
p367
I1
tp368
a(S'j.3:curationstatus'
p369
I1
tp370
a(S'cc:licence'
p371
I1
tp372
a(S'title'
p373
I1
tp374
a(S'cpannotationschema:isspecializationof'
p375
I1
tp376
a(S'terms:publisher'
p377
I1
tp378
a(S'dcterms:rights'
p379
I1
tp380
a(S'prov:has_provenance'
p381
I1
tp382
a(S'dcterms:bibliographiccitation'
p383
I1
tp384
a(S'specializationof'
p385
I1
tp386
a(S'doap:gitrepository'
p387
I1
tp388
a(S'dct:issued'
p389
I1
tp390
a(S'edamontology1:next_id'
p391
I1
tp392
a(S'oboinowl:hasversion'
p393
I1
tp394
a(S'doap:svnrepository'
p395
I1
tp396
a(S'j.0:editorialnote'
p397
I1
tp398
a(S'foaf:primarytopic'
p399
I1
tp400
a(S'skos:historynote'
p401
I1
tp402
a(S'terms:date'
p403
I1
tp404
a(S'obo:remark'
p405
I1
tp406
a(S'doap:mailing-list'
p407
I1
tp408
a(S'dcterms:format'
p409
I1
tp410
a(S'foaf:organization'
p411
I1
tp412
a(S'oboother:default-relationship-id-prefix'
p413
I1
tp414
a(S'j.18:editorialnote'
p415
I1
tp416
a(S'relationship:idspace'
p417
I1
tp418
a(S'tool'
p419
I1
tp420
a(S'void:datadump'
p421
I1
tp422
a(S'oboother:remark'
p423
I1
tp424
a(S'dce:creator'
p425
I1
tp426
a(S'technical_support'
p427
I1
tp428
a(S'primary_author_and_curator'
p429
I1
tp430
a(S'cpannotationschema:hasunittest'
p431
I1
tp432
a(S'oboinowl:comment'
p433
I1
tp434
a(S'oboinowl:treat-xrefs-as-has-subclass'
p435
I1
tp436
a(S'doc:version'
p437
I1
tp438
a(S'dce:subject'
p439
I1
tp440
a(S'chmo:has_format-version'
p441
I1
tp442
a(S'j.14:pendingactionnote'
p443
I1
tp444
a(S'dct:hasformat'
p445
I1
tp446
a(S'dcterms:language'
p447
I1
tp448
a(S'dce:date'
p449
I1
tp450
a(S'j.0:imports'
p451
I1
tp452
a(S'j.14:createddate'
p453
I1
tp454
a(S'ns0:license'
p455
I1
tp456
a(S'doap:bug-database'
p457
I1
tp458
a(S'note'
p459
I1
tp460
a(S'ontoneo:ontoneo_1000000'
p461
I1
tp462
a(S'dc:right'
p463
I1
tp464
a(S'j.18:definition'
p465
I1
tp466
a(S'birn_annot:curationstatus'
p467
I1
tp468
a(S'asthma:creator'
p469
I1
tp470
a(S'oboinowl:data-version'
p471
I1
tp472
a(S'terms:isreferencedby'
p473
I1
tp474
a(S'ns:license'
p475
I1
tp476
a(S'uri'
p477
I1
tp478
a(S'oboinowl:synonymtypedef'
p479
I1
tp480
a(S'terms:created'
p481
I1
tp482
a(S'oboinowl:property-value'
p483
I1
tp484
a.