(dp1
S'dc:language'
p2
I2
sS'dc:type'
p3
I1
sS'vann:preferrednamespaceprefix'
p4
I1
sS'dc:title'
p5
I3
sS'rdfs:comment'
p6
I7
sS'owl:priorVersion'
p7
I1
sS'dc:publisher'
p8
I1
sS'dct:publisher'
p9
I1
sS'dc:subject'
p10
I1
sS'dc:source'
p11
I1
sS'dct:available'
p12
I1
sS'dc:identifier'
p13
I2
sS'dct:modified'
p14
I1
sS'dc:format'
p15
I1
sS'owl:versioninfo'
p16
I8
sS'owl:priorversion'
p17
I1
sS'cc:license'
p18
I1
sS'dc:date'
p19
I3
sS'owl:versioniri'
p20
I1
sS'dc:description'
p21
I2
sS'dc:rights'
p22
I1
sS'dc:contributor'
p23
I1
sS'rdfs:label'
p24
I2
sS'rdfs:seeAlso'
p25
I1
sS'vann:preferrednamespaceuri'
p26
I1
sS'dct:rights'
p27
I1
sS'terms:title'
p28
I1
sS'owl:versionInfo'
p29
I1
sS'dc:license'
p30
I1
sS'dct:contributor'
p31
I1
sS'dct:creator'
p32
I1
sS'dct:issued'
p33
I1
sS'owl:imports'
p34
I3
sS'rdf:type'
p35
I1
sS'terms:description'
p36
I1
sS'dc:creator'
p37
I5
sS'terms:creator'
p38
I1
s.